; Listing generated by Microsoft (R) Optimizing Compiler Version 19.24.28314.0 

	TITLE	e:\visual studio application\????????????\thatboyencryptfileencoder\pch.cpp
	.686P
	.XMM
	include listing.inc
	.model	flat

INCLUDELIB OLDNAMES

PUBLIC	___@@_PchSym_@00@UerhfzoLhgfwrlLzkkorxzgrlmUKltKqtKrsKlvKooKotKluKrpKpzKluKpkKrtKlsKplKqsKltKowKquKlrKplKolKlrKplKpyUgszgylbvmxibkgurovvmxlwviUivovzhvUkxsOlyq@4B2008FD98C1DD4
PUBLIC	??_C@_0BA@MKMIKKJB@atlTraceGeneral@		; `string'
PUBLIC	??_C@_0M@DGPFJEBB@atlTraceCOM@			; `string'
PUBLIC	??_C@_0L@LHELAKBP@atlTraceQI@			; `string'
PUBLIC	??_C@_0BC@MALHFBAO@atlTraceRegistrar@		; `string'
PUBLIC	??_C@_0BB@ILPPDKFL@atlTraceRefcount@		; `string'
PUBLIC	??_C@_0BC@DGHHNKDC@atlTraceWindowing@		; `string'
PUBLIC	??_C@_0BB@GHKJKKIE@atlTraceControls@		; `string'
PUBLIC	??_C@_0BA@DKOAAGGM@atlTraceHosting@		; `string'
PUBLIC	??_C@_0BB@BEBMGMDO@atlTraceDBClient@		; `string'
PUBLIC	??_C@_0BD@KOADKDIA@atlTraceDBProvider@		; `string'
PUBLIC	??_C@_0P@LNEGBOLO@atlTraceSnapin@		; `string'
PUBLIC	??_C@_0BA@MCBFIDIC@atlTraceNotImpl@		; `string'
PUBLIC	??_C@_0BD@PJPCCAKP@atlTraceAllocation@		; `string'
PUBLIC	??_C@_0BC@PGMFNIFA@atlTraceException@		; `string'
PUBLIC	??_C@_0N@BNNILHBE@atlTraceTime@			; `string'
PUBLIC	??_C@_0O@MEOJAOKK@atlTraceCache@		; `string'
PUBLIC	??_C@_0BA@IDBKCKK@atlTraceStencil@		; `string'
PUBLIC	??_C@_0P@MBNHGHMI@atlTraceString@		; `string'
PUBLIC	??_C@_0M@IOBBMAHG@atlTraceMap@			; `string'
PUBLIC	??_C@_0N@FEAAACHD@atlTraceUtil@			; `string'
PUBLIC	??_C@_0BB@DNJDADMG@atlTraceSecurity@		; `string'
PUBLIC	??_C@_0N@KLPNCFEE@atlTraceSync@			; `string'
PUBLIC	??_C@_0O@KHOBHOBJ@atlTraceISAPI@		; `string'
PUBLIC	??_C@_0BB@KEKMKJPM@Invalid?5DateTime@		; `string'
PUBLIC	??_C@_0BF@GPPHKJFN@Invalid?5DateTimeSpan@	; `string'
PUBLIC	??_C@_01CPLAODJH@S@				; `string'
PUBLIC	??_C@_01PLPBNMEI@M@				; `string'
PUBLIC	??_C@_01CKDDGHAB@D@				; `string'
PUBLIC	??_C@_01HMGJMAIH@B@				; `string'
PUBLIC	??_C@_03LAIAPFCB@Val@				; `string'
PUBLIC	??_C@_0M@DBGDLGLL@ForceRemove@			; `string'
PUBLIC	??_C@_08KAAPDIAN@NoRemove@			; `string'
PUBLIC	??_C@_06JBKGCNBB@Delete@			; `string'
PUBLIC	??_7CWin32Heap@ATL@@6B@				; ATL::CWin32Heap::`vftable'
PUBLIC	_IID_IRegistrar
PUBLIC	??_R2CAtlStringMgr@ATL@@8			; ATL::CAtlStringMgr::`RTTI Base Class Array'
PUBLIC	_IID_IAxWinAmbientDispatchEx
PUBLIC	??_R3IAtlStringMgr@ATL@@8			; ATL::IAtlStringMgr::`RTTI Class Hierarchy Descriptor'
PUBLIC	_UsbClassGuid
PUBLIC	??_R2CWin32Heap@ATL@@8				; ATL::CWin32Heap::`RTTI Base Class Array'
PUBLIC	??_R4CAtlStringMgr@ATL@@6B@			; ATL::CAtlStringMgr::`RTTI Complete Object Locator'
PUBLIC	??_R2IAtlStringMgr@ATL@@8			; ATL::IAtlStringMgr::`RTTI Base Class Array'
PUBLIC	??_R3CWin32Heap@ATL@@8				; ATL::CWin32Heap::`RTTI Class Hierarchy Descriptor'
PUBLIC	??_R3CAtlStringMgr@ATL@@8			; ATL::CAtlStringMgr::`RTTI Class Hierarchy Descriptor'
PUBLIC	??_R2IAtlMemMgr@ATL@@8				; ATL::IAtlMemMgr::`RTTI Base Class Array'
PUBLIC	_IID_IAxWinHostWindow
PUBLIC	_IID_IDocHostUIHandlerDispatch
PUBLIC	_LIBID_ATLLib
PUBLIC	??_R4CWin32Heap@ATL@@6B@			; ATL::CWin32Heap::`RTTI Complete Object Locator'
PUBLIC	??_R0?AUIAtlStringMgr@ATL@@@8			; ATL::IAtlStringMgr `RTTI Type Descriptor'
PUBLIC	??_R1A@?0A@EA@CWin32Heap@ATL@@8			; ATL::CWin32Heap::`RTTI Base Class Descriptor at (0,-1,0,64)'
PUBLIC	??_7CAtlStringMgr@ATL@@6B@			; ATL::CAtlStringMgr::`vftable'
PUBLIC	??_R3IAtlMemMgr@ATL@@8				; ATL::IAtlMemMgr::`RTTI Class Hierarchy Descriptor'
PUBLIC	??_R0?AVCAtlStringMgr@ATL@@@8			; ATL::CAtlStringMgr `RTTI Type Descriptor'
PUBLIC	_IID_IInternalConnection
PUBLIC	?CLSID_WinFormsControl@@3U_GUID@@B		; CLSID_WinFormsControl
PUBLIC	?szInvalidDateTimeSpan@ATL@@3QBDB		; ATL::szInvalidDateTimeSpan
PUBLIC	?szValToken@ATL@@3QBDB				; ATL::szValToken
PUBLIC	?_pAtlAutoThreadModule@ATL@@3PAUIAtlAutoThreadModule@1@A ; ATL::_pAtlAutoThreadModule
PUBLIC	?_pAtlModule@ATL@@3PAVCAtlModule@1@A		; ATL::_pAtlModule
PUBLIC	?chQuote@ATL@@3DB				; ATL::chQuote
PUBLIC	?szDelete@ATL@@3QBDB				; ATL::szDelete
PUBLIC	?szInvalidDateTime@ATL@@3QBDB			; ATL::szInvalidDateTime
PUBLIC	?_AtlRegisterPerUser@ATL@@3_NA			; ATL::_AtlRegisterPerUser
PUBLIC	?m_bInitFailed@CAtlBaseModule@ATL@@2_NA		; ATL::CAtlBaseModule::m_bInitFailed
PUBLIC	___pobjMapEntryLast
PUBLIC	?szBinaryVal@ATL@@3QBDB				; ATL::szBinaryVal
PUBLIC	___pobjMapEntryFirst
PUBLIC	?szForceRemove@ATL@@3QBDB			; ATL::szForceRemove
PUBLIC	?szStringVal@ATL@@3QBDB				; ATL::szStringVal
PUBLIC	?multiszStringVal@ATL@@3QBDB			; ATL::multiszStringVal
PUBLIC	?chDirSep@ATL@@3DB				; ATL::chDirSep
PUBLIC	?_pPerfRegFunc@ATL@@3P6AJPAUHINSTANCE__@@@ZA	; ATL::_pPerfRegFunc
PUBLIC	?szNoRemove@ATL@@3QBDB				; ATL::szNoRemove
PUBLIC	?chRightBracket@ATL@@3DB			; ATL::chRightBracket
PUBLIC	?chEquals@ATL@@3DB				; ATL::chEquals
PUBLIC	?szDwordVal@ATL@@3QBDB				; ATL::szDwordVal
PUBLIC	?_pModule@ATL@@3PAVCComModule@1@A		; ATL::_pModule
PUBLIC	?_pPerfUnRegFunc@ATL@@3P6AJXZA			; ATL::_pPerfUnRegFunc
PUBLIC	?chLeftBracket@ATL@@3DB				; ATL::chLeftBracket
PUBLIC	_CLSID_Registrar
PUBLIC	__pIncludeInitManaged
PUBLIC	??_R1A@?0A@EA@IAtlStringMgr@ATL@@8		; ATL::IAtlStringMgr::`RTTI Base Class Descriptor at (0,-1,0,64)'
PUBLIC	??_R1A@?0A@EA@IAtlMemMgr@ATL@@8			; ATL::IAtlMemMgr::`RTTI Base Class Descriptor at (0,-1,0,64)'
PUBLIC	??_R0?AVCWin32Heap@ATL@@@8			; ATL::CWin32Heap `RTTI Type Descriptor'
PUBLIC	_IID_IAxWinAmbientDispatch
PUBLIC	??_R1A@?0A@EA@CAtlStringMgr@ATL@@8		; ATL::CAtlStringMgr::`RTTI Base Class Descriptor at (0,-1,0,64)'
PUBLIC	??_R0?AUIAtlMemMgr@ATL@@@8			; ATL::IAtlMemMgr `RTTI Type Descriptor'
PUBLIC	_IID_IAxWinHostWindowLic
EXTRN	__imp__GetProcessHeap@0:PROC
EXTRN	__imp__DeleteCriticalSection@4:PROC
EXTRN	__imp__free:PROC
EXTRN	__imp__HeapDestroy@4:PROC
EXTRN	___ImageBase:BYTE
EXTRN	__imp__DecodePointer@4:PROC
EXTRN	__imp__HeapAlloc@12:PROC
EXTRN	__imp__RaiseException@16:PROC
EXTRN	__imp__HeapReAlloc@16:PROC
EXTRN	__Init_thread_header:PROC
EXTRN	__imp__GetLastError@0:PROC
EXTRN	_atexit:PROC
EXTRN	__imp__HeapSize@12:PROC
EXTRN	__imp__DeleteDC@4:PROC
EXTRN	__Init_thread_footer:PROC
EXTRN	__imp__GdiplusShutdown@4:PROC
EXTRN	__imp__InitializeCriticalSectionEx@12:PROC
EXTRN	?_AtlBaseModule@ATL@@3VCAtlBaseModule@1@A:BYTE	; ATL::_AtlBaseModule
EXTRN	__imp__LeaveCriticalSection@4:PROC
EXTRN	__imp__UnregisterClassA@8:PROC
EXTRN	__Init_thread_epoch:DWORD
EXTRN	__imp__EnterCriticalSection@4:PROC
EXTRN	__imp__HeapFree@12:PROC
;	COMDAT ___@@_PchSym_@00@UerhfzoLhgfwrlLzkkorxzgrlmUKltKqtKrsKlvKooKotKluKrpKpzKluKpkKrtKlsKplKqsKltKowKquKlrKplKolKlrKplKpyUgszgylbvmxibkgurovvmxlwviUivovzhvUkxsOlyq@4B2008FD98C1DD4
_BSS	SEGMENT
___@@_PchSym_@00@UerhfzoLhgfwrlLzkkorxzgrlmUKltKqtKrsKlvKooKotKluKrpKpzKluKpkKrtKlsKplKqsKltKowKquKlrKplKolKlrKplKpyUgszgylbvmxibkgurovvmxlwviUivovzhvUkxsOlyq@4B2008FD98C1DD4 DD 01H DUP (?)
_BSS	ENDS
;	COMDAT ?_pAtlAutoThreadModule@ATL@@3PAUIAtlAutoThreadModule@1@A
_BSS	SEGMENT
?_pAtlAutoThreadModule@ATL@@3PAUIAtlAutoThreadModule@1@A DD 01H DUP (?) ; ATL::_pAtlAutoThreadModule
_BSS	ENDS
;	COMDAT ?_pAtlModule@ATL@@3PAVCAtlModule@1@A
_BSS	SEGMENT
?_pAtlModule@ATL@@3PAVCAtlModule@1@A DD 01H DUP (?)	; ATL::_pAtlModule
_BSS	ENDS
;	COMDAT ?_AtlRegisterPerUser@ATL@@3_NA
_BSS	SEGMENT
?_AtlRegisterPerUser@ATL@@3_NA DB 01H DUP (?)		; ATL::_AtlRegisterPerUser
_BSS	ENDS
;	COMDAT ?m_bInitFailed@CAtlBaseModule@ATL@@2_NA
_BSS	SEGMENT
?m_bInitFailed@CAtlBaseModule@ATL@@2_NA DB 01H DUP (?)	; ATL::CAtlBaseModule::m_bInitFailed
_BSS	ENDS
;	COMDAT ?_pPerfRegFunc@ATL@@3P6AJPAUHINSTANCE__@@@ZA
_BSS	SEGMENT
?_pPerfRegFunc@ATL@@3P6AJPAUHINSTANCE__@@@ZA DD 01H DUP (?) ; ATL::_pPerfRegFunc
_BSS	ENDS
;	COMDAT ?_pModule@ATL@@3PAVCComModule@1@A
_BSS	SEGMENT
?_pModule@ATL@@3PAVCComModule@1@A DD 01H DUP (?)	; ATL::_pModule
_BSS	ENDS
;	COMDAT ?_pPerfUnRegFunc@ATL@@3P6AJXZA
_BSS	SEGMENT
?_pPerfUnRegFunc@ATL@@3P6AJXZA DD 01H DUP (?)		; ATL::_pPerfUnRegFunc
_BSS	ENDS
;	COMDAT _IID_IAxWinHostWindowLic
CONST	SEGMENT
_IID_IAxWinHostWindowLic DD 03935bda8H
	DW	04ed9H
	DW	0495cH
	DB	086H
	DB	050H
	DB	0e0H
	DB	01fH
	DB	0c1H
	DB	0e3H
	DB	08aH
	DB	04bH
CONST	ENDS
;	COMDAT ??_R0?AUIAtlMemMgr@ATL@@@8
data$r	SEGMENT
??_R0?AUIAtlMemMgr@ATL@@@8 DD FLAT:??_7type_info@@6B@	; ATL::IAtlMemMgr `RTTI Type Descriptor'
	DD	00H
	DB	'.?AUIAtlMemMgr@ATL@@', 00H
data$r	ENDS
;	COMDAT ??_R1A@?0A@EA@CAtlStringMgr@ATL@@8
rdata$r	SEGMENT
??_R1A@?0A@EA@CAtlStringMgr@ATL@@8 DD FLAT:??_R0?AVCAtlStringMgr@ATL@@@8 ; ATL::CAtlStringMgr::`RTTI Base Class Descriptor at (0,-1,0,64)'
	DD	01H
	DD	00H
	DD	0ffffffffH
	DD	00H
	DD	040H
	DD	FLAT:??_R3CAtlStringMgr@ATL@@8
rdata$r	ENDS
;	COMDAT _IID_IAxWinAmbientDispatch
CONST	SEGMENT
_IID_IAxWinAmbientDispatch DD 0b6ea2051H
	DW	048aH
	DW	011d1H
	DB	082H
	DB	0b9H
	DB	00H
	DB	0c0H
	DB	04fH
	DB	0b9H
	DB	094H
	DB	02eH
CONST	ENDS
;	COMDAT ??_R0?AVCWin32Heap@ATL@@@8
data$r	SEGMENT
??_R0?AVCWin32Heap@ATL@@@8 DD FLAT:??_7type_info@@6B@	; ATL::CWin32Heap `RTTI Type Descriptor'
	DD	00H
	DB	'.?AVCWin32Heap@ATL@@', 00H
data$r	ENDS
;	COMDAT ??_R1A@?0A@EA@IAtlMemMgr@ATL@@8
rdata$r	SEGMENT
??_R1A@?0A@EA@IAtlMemMgr@ATL@@8 DD FLAT:??_R0?AUIAtlMemMgr@ATL@@@8 ; ATL::IAtlMemMgr::`RTTI Base Class Descriptor at (0,-1,0,64)'
	DD	00H
	DD	00H
	DD	0ffffffffH
	DD	00H
	DD	040H
	DD	FLAT:??_R3IAtlMemMgr@ATL@@8
rdata$r	ENDS
;	COMDAT ??_R1A@?0A@EA@IAtlStringMgr@ATL@@8
rdata$r	SEGMENT
??_R1A@?0A@EA@IAtlStringMgr@ATL@@8 DD FLAT:??_R0?AUIAtlStringMgr@ATL@@@8 ; ATL::IAtlStringMgr::`RTTI Base Class Descriptor at (0,-1,0,64)'
	DD	00H
	DD	00H
	DD	0ffffffffH
	DD	00H
	DD	040H
	DD	FLAT:??_R3IAtlStringMgr@ATL@@8
rdata$r	ENDS
;	COMDAT __pIncludeInitManaged
_DATA	SEGMENT
__pIncludeInitManaged DD FLAT:?_AfxInitManaged@@YAHXZ
_DATA	ENDS
;	COMDAT _CLSID_Registrar
CONST	SEGMENT
_CLSID_Registrar DD 044ec053aH
	DW	0400fH
	DW	011d0H
	DB	09dH
	DB	0cdH
	DB	00H
	DB	0a0H
	DB	0c9H
	DB	03H
	DB	091H
	DB	0d3H
CONST	ENDS
;	COMDAT ?chLeftBracket@ATL@@3DB
CONST	SEGMENT
?chLeftBracket@ATL@@3DB DB 07bH				; ATL::chLeftBracket
CONST	ENDS
;	COMDAT ?szDwordVal@ATL@@3QBDB
CONST	SEGMENT
?szDwordVal@ATL@@3QBDB DD FLAT:??_C@_01CKDDGHAB@D@	; ATL::szDwordVal
CONST	ENDS
;	COMDAT ?chEquals@ATL@@3DB
CONST	SEGMENT
?chEquals@ATL@@3DB DB 03dH				; ATL::chEquals
CONST	ENDS
;	COMDAT ?chRightBracket@ATL@@3DB
CONST	SEGMENT
?chRightBracket@ATL@@3DB DB 07dH			; ATL::chRightBracket
CONST	ENDS
;	COMDAT ?szNoRemove@ATL@@3QBDB
CONST	SEGMENT
?szNoRemove@ATL@@3QBDB DD FLAT:??_C@_08KAAPDIAN@NoRemove@ ; ATL::szNoRemove
CONST	ENDS
;	COMDAT ?chDirSep@ATL@@3DB
CONST	SEGMENT
?chDirSep@ATL@@3DB DB 05cH				; ATL::chDirSep
CONST	ENDS
;	COMDAT ?multiszStringVal@ATL@@3QBDB
CONST	SEGMENT
?multiszStringVal@ATL@@3QBDB DD FLAT:??_C@_01PLPBNMEI@M@ ; ATL::multiszStringVal
CONST	ENDS
;	COMDAT ?szStringVal@ATL@@3QBDB
CONST	SEGMENT
?szStringVal@ATL@@3QBDB DD FLAT:??_C@_01CPLAODJH@S@	; ATL::szStringVal
CONST	ENDS
;	COMDAT ?szForceRemove@ATL@@3QBDB
CONST	SEGMENT
?szForceRemove@ATL@@3QBDB DD FLAT:??_C@_0M@DBGDLGLL@ForceRemove@ ; ATL::szForceRemove
CONST	ENDS
;	COMDAT ___pobjMapEntryFirst
ATL$__a	SEGMENT
___pobjMapEntryFirst DD 00H
ATL$__a	ENDS
;	COMDAT ?szBinaryVal@ATL@@3QBDB
CONST	SEGMENT
?szBinaryVal@ATL@@3QBDB DD FLAT:??_C@_01HMGJMAIH@B@	; ATL::szBinaryVal
CONST	ENDS
;	COMDAT ___pobjMapEntryLast
ATL$__z	SEGMENT
___pobjMapEntryLast DD 00H
ATL$__z	ENDS
;	COMDAT ?szInvalidDateTime@ATL@@3QBDB
CONST	SEGMENT
?szInvalidDateTime@ATL@@3QBDB DD FLAT:??_C@_0BB@KEKMKJPM@Invalid?5DateTime@ ; ATL::szInvalidDateTime
CONST	ENDS
;	COMDAT ?szDelete@ATL@@3QBDB
CONST	SEGMENT
?szDelete@ATL@@3QBDB DD FLAT:??_C@_06JBKGCNBB@Delete@	; ATL::szDelete
CONST	ENDS
;	COMDAT ?chQuote@ATL@@3DB
CONST	SEGMENT
?chQuote@ATL@@3DB DB 027H				; ATL::chQuote
CONST	ENDS
;	COMDAT ?szValToken@ATL@@3QBDB
CONST	SEGMENT
?szValToken@ATL@@3QBDB DD FLAT:??_C@_03LAIAPFCB@Val@	; ATL::szValToken
CONST	ENDS
;	COMDAT ?szInvalidDateTimeSpan@ATL@@3QBDB
CONST	SEGMENT
?szInvalidDateTimeSpan@ATL@@3QBDB DD FLAT:??_C@_0BF@GPPHKJFN@Invalid?5DateTimeSpan@ ; ATL::szInvalidDateTimeSpan
CONST	ENDS
;	COMDAT ?CLSID_WinFormsControl@@3U_GUID@@B
CONST	SEGMENT
?CLSID_WinFormsControl@@3U_GUID@@B DD 0b7e7a666H	; CLSID_WinFormsControl
	DW	0d623H
	DW	0457fH
	DB	0a3H
	DB	0aH
	DB	06aH
	DB	049H
	DB	0a3H
	DB	0e5H
	DB	0b4H
	DB	070H
CONST	ENDS
;	COMDAT _IID_IInternalConnection
CONST	SEGMENT
_IID_IInternalConnection DD 072ad0770H
	DW	06a9fH
	DW	011d1H
	DB	0bcH
	DB	0ecH
	DB	00H
	DB	060H
	DB	08H
	DB	08fH
	DB	044H
	DB	04eH
CONST	ENDS
;	COMDAT ??_R0?AVCAtlStringMgr@ATL@@@8
data$r	SEGMENT
??_R0?AVCAtlStringMgr@ATL@@@8 DD FLAT:??_7type_info@@6B@ ; ATL::CAtlStringMgr `RTTI Type Descriptor'
	DD	00H
	DB	'.?AVCAtlStringMgr@ATL@@', 00H
data$r	ENDS
;	COMDAT ??_R3IAtlMemMgr@ATL@@8
rdata$r	SEGMENT
??_R3IAtlMemMgr@ATL@@8 DD 00H				; ATL::IAtlMemMgr::`RTTI Class Hierarchy Descriptor'
	DD	00H
	DD	01H
	DD	FLAT:??_R2IAtlMemMgr@ATL@@8
rdata$r	ENDS
;	COMDAT ??_7CAtlStringMgr@ATL@@6B@
CONST	SEGMENT
??_7CAtlStringMgr@ATL@@6B@ DD FLAT:??_R4CAtlStringMgr@ATL@@6B@ ; ATL::CAtlStringMgr::`vftable'
	DD	FLAT:?Allocate@CAtlStringMgr@ATL@@UAEPAUCStringData@2@HH@Z
	DD	FLAT:?Free@CAtlStringMgr@ATL@@UAEXPAUCStringData@2@@Z
	DD	FLAT:?Reallocate@CAtlStringMgr@ATL@@UAEPAUCStringData@2@PAU32@HH@Z
	DD	FLAT:?GetNilString@CAtlStringMgr@ATL@@UAEPAUCStringData@2@XZ
	DD	FLAT:?Clone@CAtlStringMgr@ATL@@UAEPAUIAtlStringMgr@2@XZ
	DD	FLAT:??_ECAtlStringMgr@ATL@@UAEPAXI@Z
CONST	ENDS
;	COMDAT ??_R1A@?0A@EA@CWin32Heap@ATL@@8
rdata$r	SEGMENT
??_R1A@?0A@EA@CWin32Heap@ATL@@8 DD FLAT:??_R0?AVCWin32Heap@ATL@@@8 ; ATL::CWin32Heap::`RTTI Base Class Descriptor at (0,-1,0,64)'
	DD	01H
	DD	00H
	DD	0ffffffffH
	DD	00H
	DD	040H
	DD	FLAT:??_R3CWin32Heap@ATL@@8
rdata$r	ENDS
;	COMDAT ??_R0?AUIAtlStringMgr@ATL@@@8
data$r	SEGMENT
??_R0?AUIAtlStringMgr@ATL@@@8 DD FLAT:??_7type_info@@6B@ ; ATL::IAtlStringMgr `RTTI Type Descriptor'
	DD	00H
	DB	'.?AUIAtlStringMgr@ATL@@', 00H
data$r	ENDS
;	COMDAT ??_R4CWin32Heap@ATL@@6B@
rdata$r	SEGMENT
??_R4CWin32Heap@ATL@@6B@ DD 00H				; ATL::CWin32Heap::`RTTI Complete Object Locator'
	DD	00H
	DD	00H
	DD	FLAT:??_R0?AVCWin32Heap@ATL@@@8
	DD	FLAT:??_R3CWin32Heap@ATL@@8
rdata$r	ENDS
;	COMDAT _LIBID_ATLLib
CONST	SEGMENT
_LIBID_ATLLib DD 044ec0535H
	DW	0400fH
	DW	011d0H
	DB	09dH
	DB	0cdH
	DB	00H
	DB	0a0H
	DB	0c9H
	DB	03H
	DB	091H
	DB	0d3H
CONST	ENDS
;	COMDAT _IID_IDocHostUIHandlerDispatch
CONST	SEGMENT
_IID_IDocHostUIHandlerDispatch DD 0425b5af0H
	DW	065f1H
	DW	011d1H
	DB	096H
	DB	011H
	DB	00H
	DB	00H
	DB	0f8H
	DB	01eH
	DB	0dH
	DB	0dH
CONST	ENDS
;	COMDAT _IID_IAxWinHostWindow
CONST	SEGMENT
_IID_IAxWinHostWindow DD 0b6ea2050H
	DW	048aH
	DW	011d1H
	DB	082H
	DB	0b9H
	DB	00H
	DB	0c0H
	DB	04fH
	DB	0b9H
	DB	094H
	DB	02eH
CONST	ENDS
;	COMDAT ??_R2IAtlMemMgr@ATL@@8
rdata$r	SEGMENT
??_R2IAtlMemMgr@ATL@@8 DD FLAT:??_R1A@?0A@EA@IAtlMemMgr@ATL@@8 ; ATL::IAtlMemMgr::`RTTI Base Class Array'
rdata$r	ENDS
;	COMDAT ??_R3CAtlStringMgr@ATL@@8
rdata$r	SEGMENT
??_R3CAtlStringMgr@ATL@@8 DD 00H			; ATL::CAtlStringMgr::`RTTI Class Hierarchy Descriptor'
	DD	00H
	DD	02H
	DD	FLAT:??_R2CAtlStringMgr@ATL@@8
rdata$r	ENDS
;	COMDAT ??_R3CWin32Heap@ATL@@8
rdata$r	SEGMENT
??_R3CWin32Heap@ATL@@8 DD 00H				; ATL::CWin32Heap::`RTTI Class Hierarchy Descriptor'
	DD	00H
	DD	02H
	DD	FLAT:??_R2CWin32Heap@ATL@@8
rdata$r	ENDS
;	COMDAT ??_R2IAtlStringMgr@ATL@@8
rdata$r	SEGMENT
??_R2IAtlStringMgr@ATL@@8 DD FLAT:??_R1A@?0A@EA@IAtlStringMgr@ATL@@8 ; ATL::IAtlStringMgr::`RTTI Base Class Array'
rdata$r	ENDS
;	COMDAT ??_R4CAtlStringMgr@ATL@@6B@
rdata$r	SEGMENT
??_R4CAtlStringMgr@ATL@@6B@ DD 00H			; ATL::CAtlStringMgr::`RTTI Complete Object Locator'
	DD	00H
	DD	00H
	DD	FLAT:??_R0?AVCAtlStringMgr@ATL@@@8
	DD	FLAT:??_R3CAtlStringMgr@ATL@@8
rdata$r	ENDS
;	COMDAT ??_R2CWin32Heap@ATL@@8
rdata$r	SEGMENT
??_R2CWin32Heap@ATL@@8 DD FLAT:??_R1A@?0A@EA@CWin32Heap@ATL@@8 ; ATL::CWin32Heap::`RTTI Base Class Array'
	DD	FLAT:??_R1A@?0A@EA@IAtlMemMgr@ATL@@8
rdata$r	ENDS
;	COMDAT _UsbClassGuid
CONST	SEGMENT
_UsbClassGuid DD 0a5dcbf10H
	DW	06530H
	DW	011d2H
	DB	090H
	DB	01fH
	DB	00H
	DB	0c0H
	DB	04fH
	DB	0b9H
	DB	051H
	DB	0edH
CONST	ENDS
;	COMDAT ??_R3IAtlStringMgr@ATL@@8
rdata$r	SEGMENT
??_R3IAtlStringMgr@ATL@@8 DD 00H			; ATL::IAtlStringMgr::`RTTI Class Hierarchy Descriptor'
	DD	00H
	DD	01H
	DD	FLAT:??_R2IAtlStringMgr@ATL@@8
rdata$r	ENDS
;	COMDAT _IID_IAxWinAmbientDispatchEx
CONST	SEGMENT
_IID_IAxWinAmbientDispatchEx DD 0b2d0778bH
	DW	0ac99H
	DW	04c58H
	DB	0a5H
	DB	0c8H
	DB	0e7H
	DB	072H
	DB	04eH
	DB	053H
	DB	016H
	DB	0b5H
CONST	ENDS
;	COMDAT ??_R2CAtlStringMgr@ATL@@8
rdata$r	SEGMENT
??_R2CAtlStringMgr@ATL@@8 DD FLAT:??_R1A@?0A@EA@CAtlStringMgr@ATL@@8 ; ATL::CAtlStringMgr::`RTTI Base Class Array'
	DD	FLAT:??_R1A@?0A@EA@IAtlStringMgr@ATL@@8
rdata$r	ENDS
;	COMDAT _IID_IRegistrar
CONST	SEGMENT
_IID_IRegistrar DD 044ec053bH
	DW	0400fH
	DW	011d0H
	DB	09dH
	DB	0cdH
	DB	00H
	DB	0a0H
	DB	0c9H
	DB	03H
	DB	091H
	DB	0d3H
CONST	ENDS
;	COMDAT ??_7CWin32Heap@ATL@@6B@
CONST	SEGMENT
??_7CWin32Heap@ATL@@6B@ DD FLAT:??_R4CWin32Heap@ATL@@6B@ ; ATL::CWin32Heap::`vftable'
	DD	FLAT:?Allocate@CWin32Heap@ATL@@UAEPAXI@Z
	DD	FLAT:?Free@CWin32Heap@ATL@@UAEXPAX@Z
	DD	FLAT:?Reallocate@CWin32Heap@ATL@@UAEPAXPAXI@Z
	DD	FLAT:?GetSize@CWin32Heap@ATL@@UAEIPAX@Z
	DD	FLAT:??_ECWin32Heap@ATL@@UAEPAXI@Z
CONST	ENDS
;	COMDAT ??_C@_06JBKGCNBB@Delete@
CONST	SEGMENT
??_C@_06JBKGCNBB@Delete@ DB 'Delete', 00H		; `string'
CONST	ENDS
;	COMDAT ??_C@_08KAAPDIAN@NoRemove@
CONST	SEGMENT
??_C@_08KAAPDIAN@NoRemove@ DB 'NoRemove', 00H		; `string'
CONST	ENDS
;	COMDAT ??_C@_0M@DBGDLGLL@ForceRemove@
CONST	SEGMENT
??_C@_0M@DBGDLGLL@ForceRemove@ DB 'ForceRemove', 00H	; `string'
CONST	ENDS
;	COMDAT ??_C@_03LAIAPFCB@Val@
CONST	SEGMENT
??_C@_03LAIAPFCB@Val@ DB 'Val', 00H			; `string'
CONST	ENDS
;	COMDAT ??_C@_01HMGJMAIH@B@
CONST	SEGMENT
??_C@_01HMGJMAIH@B@ DB 'B', 00H				; `string'
CONST	ENDS
;	COMDAT ??_C@_01CKDDGHAB@D@
CONST	SEGMENT
??_C@_01CKDDGHAB@D@ DB 'D', 00H				; `string'
CONST	ENDS
;	COMDAT ??_C@_01PLPBNMEI@M@
CONST	SEGMENT
??_C@_01PLPBNMEI@M@ DB 'M', 00H				; `string'
CONST	ENDS
;	COMDAT ??_C@_01CPLAODJH@S@
CONST	SEGMENT
??_C@_01CPLAODJH@S@ DB 'S', 00H				; `string'
CONST	ENDS
;	COMDAT ??_C@_0BF@GPPHKJFN@Invalid?5DateTimeSpan@
CONST	SEGMENT
??_C@_0BF@GPPHKJFN@Invalid?5DateTimeSpan@ DB 'Invalid DateTimeSpan', 00H ; `string'
CONST	ENDS
;	COMDAT ??_C@_0BB@KEKMKJPM@Invalid?5DateTime@
CONST	SEGMENT
??_C@_0BB@KEKMKJPM@Invalid?5DateTime@ DB 'Invalid DateTime', 00H ; `string'
CONST	ENDS
;	COMDAT ??_C@_0O@KHOBHOBJ@atlTraceISAPI@
CONST	SEGMENT
??_C@_0O@KHOBHOBJ@atlTraceISAPI@ DB 'atlTraceISAPI', 00H ; `string'
CONST	ENDS
;	COMDAT ??_C@_0N@KLPNCFEE@atlTraceSync@
CONST	SEGMENT
??_C@_0N@KLPNCFEE@atlTraceSync@ DB 'atlTraceSync', 00H	; `string'
CONST	ENDS
;	COMDAT ??_C@_0BB@DNJDADMG@atlTraceSecurity@
CONST	SEGMENT
??_C@_0BB@DNJDADMG@atlTraceSecurity@ DB 'atlTraceSecurity', 00H ; `string'
CONST	ENDS
;	COMDAT ??_C@_0N@FEAAACHD@atlTraceUtil@
CONST	SEGMENT
??_C@_0N@FEAAACHD@atlTraceUtil@ DB 'atlTraceUtil', 00H	; `string'
CONST	ENDS
;	COMDAT ??_C@_0M@IOBBMAHG@atlTraceMap@
CONST	SEGMENT
??_C@_0M@IOBBMAHG@atlTraceMap@ DB 'atlTraceMap', 00H	; `string'
CONST	ENDS
;	COMDAT ??_C@_0P@MBNHGHMI@atlTraceString@
CONST	SEGMENT
??_C@_0P@MBNHGHMI@atlTraceString@ DB 'atlTraceString', 00H ; `string'
CONST	ENDS
;	COMDAT ??_C@_0BA@IDBKCKK@atlTraceStencil@
CONST	SEGMENT
??_C@_0BA@IDBKCKK@atlTraceStencil@ DB 'atlTraceStencil', 00H ; `string'
CONST	ENDS
;	COMDAT ??_C@_0O@MEOJAOKK@atlTraceCache@
CONST	SEGMENT
??_C@_0O@MEOJAOKK@atlTraceCache@ DB 'atlTraceCache', 00H ; `string'
CONST	ENDS
;	COMDAT ??_C@_0N@BNNILHBE@atlTraceTime@
CONST	SEGMENT
??_C@_0N@BNNILHBE@atlTraceTime@ DB 'atlTraceTime', 00H	; `string'
CONST	ENDS
;	COMDAT ??_C@_0BC@PGMFNIFA@atlTraceException@
CONST	SEGMENT
??_C@_0BC@PGMFNIFA@atlTraceException@ DB 'atlTraceException', 00H ; `string'
CONST	ENDS
;	COMDAT ??_C@_0BD@PJPCCAKP@atlTraceAllocation@
CONST	SEGMENT
??_C@_0BD@PJPCCAKP@atlTraceAllocation@ DB 'atlTraceAllocation', 00H ; `string'
CONST	ENDS
;	COMDAT ??_C@_0BA@MCBFIDIC@atlTraceNotImpl@
CONST	SEGMENT
??_C@_0BA@MCBFIDIC@atlTraceNotImpl@ DB 'atlTraceNotImpl', 00H ; `string'
CONST	ENDS
;	COMDAT ??_C@_0P@LNEGBOLO@atlTraceSnapin@
CONST	SEGMENT
??_C@_0P@LNEGBOLO@atlTraceSnapin@ DB 'atlTraceSnapin', 00H ; `string'
CONST	ENDS
;	COMDAT ??_C@_0BD@KOADKDIA@atlTraceDBProvider@
CONST	SEGMENT
??_C@_0BD@KOADKDIA@atlTraceDBProvider@ DB 'atlTraceDBProvider', 00H ; `string'
CONST	ENDS
;	COMDAT ??_C@_0BB@BEBMGMDO@atlTraceDBClient@
CONST	SEGMENT
??_C@_0BB@BEBMGMDO@atlTraceDBClient@ DB 'atlTraceDBClient', 00H ; `string'
CONST	ENDS
;	COMDAT ??_C@_0BA@DKOAAGGM@atlTraceHosting@
CONST	SEGMENT
??_C@_0BA@DKOAAGGM@atlTraceHosting@ DB 'atlTraceHosting', 00H ; `string'
CONST	ENDS
;	COMDAT ??_C@_0BB@GHKJKKIE@atlTraceControls@
CONST	SEGMENT
??_C@_0BB@GHKJKKIE@atlTraceControls@ DB 'atlTraceControls', 00H ; `string'
CONST	ENDS
;	COMDAT ??_C@_0BC@DGHHNKDC@atlTraceWindowing@
CONST	SEGMENT
??_C@_0BC@DGHHNKDC@atlTraceWindowing@ DB 'atlTraceWindowing', 00H ; `string'
CONST	ENDS
;	COMDAT ??_C@_0BB@ILPPDKFL@atlTraceRefcount@
CONST	SEGMENT
??_C@_0BB@ILPPDKFL@atlTraceRefcount@ DB 'atlTraceRefcount', 00H ; `string'
CONST	ENDS
;	COMDAT ??_C@_0BC@MALHFBAO@atlTraceRegistrar@
CONST	SEGMENT
??_C@_0BC@MALHFBAO@atlTraceRegistrar@ DB 'atlTraceRegistrar', 00H ; `string'
CONST	ENDS
;	COMDAT ??_C@_0L@LHELAKBP@atlTraceQI@
CONST	SEGMENT
??_C@_0L@LHELAKBP@atlTraceQI@ DB 'atlTraceQI', 00H	; `string'
CONST	ENDS
;	COMDAT ??_C@_0M@DGPFJEBB@atlTraceCOM@
CONST	SEGMENT
??_C@_0M@DGPFJEBB@atlTraceCOM@ DB 'atlTraceCOM', 00H	; `string'
CONST	ENDS
;	COMDAT ??_C@_0BA@MKMIKKJB@atlTraceGeneral@
CONST	SEGMENT
??_C@_0BA@MKMIKKJB@atlTraceGeneral@ DB 'atlTraceGeneral', 00H ; `string'
PUBLIC	??$AtlAlignUp@H@ATL@@YGHHK@Z			; ATL::AtlAlignUp<int>
PUBLIC	??1?$CSimpleArray@GV?$CSimpleArrayEqualHelper@G@ATL@@@ATL@@QAE@XZ ; ATL::CSimpleArray<unsigned short,ATL::CSimpleArrayEqualHelper<unsigned short> >::~CSimpleArray<unsigned short,ATL::CSimpleArrayEqualHelper<unsigned short> >
PUBLIC	??$AtlAdd@H@ATL@@YAJPAHHH@Z			; ATL::AtlAdd<int>
PUBLIC	??$AtlAdd@I@ATL@@YAJPAIII@Z			; ATL::AtlAdd<unsigned int>
PUBLIC	??0?$CTraceCategoryEx@$0EAAAAA@$0A@@ATL@@QAE@PBD@Z ; ATL::CTraceCategoryEx<4194304,0>::CTraceCategoryEx<4194304,0>
PUBLIC	??0?$CTraceCategoryEx@$0CAAAAA@$0A@@ATL@@QAE@PBD@Z ; ATL::CTraceCategoryEx<2097152,0>::CTraceCategoryEx<2097152,0>
PUBLIC	??0?$CTraceCategoryEx@$0BAAAAA@$0A@@ATL@@QAE@PBD@Z ; ATL::CTraceCategoryEx<1048576,0>::CTraceCategoryEx<1048576,0>
PUBLIC	??0?$CTraceCategoryEx@$0EAAAA@$0A@@ATL@@QAE@PBD@Z ; ATL::CTraceCategoryEx<262144,0>::CTraceCategoryEx<262144,0>
PUBLIC	??0?$CTraceCategoryEx@$0CAAAA@$0A@@ATL@@QAE@PBD@Z ; ATL::CTraceCategoryEx<131072,0>::CTraceCategoryEx<131072,0>
PUBLIC	??0?$CTraceCategoryEx@$0BAAAA@$0A@@ATL@@QAE@PBD@Z ; ATL::CTraceCategoryEx<65536,0>::CTraceCategoryEx<65536,0>
PUBLIC	??0?$CTraceCategoryEx@$0IAAA@$0A@@ATL@@QAE@PBD@Z ; ATL::CTraceCategoryEx<32768,0>::CTraceCategoryEx<32768,0>
PUBLIC	??0?$CTraceCategoryEx@$0EAAA@$0A@@ATL@@QAE@PBD@Z ; ATL::CTraceCategoryEx<16384,0>::CTraceCategoryEx<16384,0>
PUBLIC	??0?$CTraceCategoryEx@$0CAAA@$0A@@ATL@@QAE@PBD@Z ; ATL::CTraceCategoryEx<8192,0>::CTraceCategoryEx<8192,0>
PUBLIC	??0?$CTraceCategoryEx@$0BAAA@$0A@@ATL@@QAE@PBD@Z ; ATL::CTraceCategoryEx<4096,0>::CTraceCategoryEx<4096,0>
PUBLIC	??0?$CTraceCategoryEx@$0IAA@$0A@@ATL@@QAE@PBD@Z	; ATL::CTraceCategoryEx<2048,0>::CTraceCategoryEx<2048,0>
PUBLIC	??0?$CTraceCategoryEx@$0EAA@$0A@@ATL@@QAE@PBD@Z	; ATL::CTraceCategoryEx<1024,0>::CTraceCategoryEx<1024,0>
PUBLIC	??0?$CTraceCategoryEx@$0CAA@$0A@@ATL@@QAE@PBD@Z	; ATL::CTraceCategoryEx<512,0>::CTraceCategoryEx<512,0>
PUBLIC	??0?$CTraceCategoryEx@$0BAA@$0A@@ATL@@QAE@PBD@Z	; ATL::CTraceCategoryEx<256,0>::CTraceCategoryEx<256,0>
PUBLIC	??0?$CTraceCategoryEx@$0IA@$0A@@ATL@@QAE@PBD@Z	; ATL::CTraceCategoryEx<128,0>::CTraceCategoryEx<128,0>
PUBLIC	??0?$CTraceCategoryEx@$0EA@$0A@@ATL@@QAE@PBD@Z	; ATL::CTraceCategoryEx<64,0>::CTraceCategoryEx<64,0>
PUBLIC	??0?$CTraceCategoryEx@$0CA@$0A@@ATL@@QAE@PBD@Z	; ATL::CTraceCategoryEx<32,0>::CTraceCategoryEx<32,0>
PUBLIC	??0?$CTraceCategoryEx@$0BA@$0A@@ATL@@QAE@PBD@Z	; ATL::CTraceCategoryEx<16,0>::CTraceCategoryEx<16,0>
PUBLIC	??0?$CTraceCategoryEx@$07$0A@@ATL@@QAE@PBD@Z	; ATL::CTraceCategoryEx<8,0>::CTraceCategoryEx<8,0>
PUBLIC	??0?$CTraceCategoryEx@$03$0A@@ATL@@QAE@PBD@Z	; ATL::CTraceCategoryEx<4,0>::CTraceCategoryEx<4,0>
PUBLIC	??0?$CTraceCategoryEx@$01$0A@@ATL@@QAE@PBD@Z	; ATL::CTraceCategoryEx<2,0>::CTraceCategoryEx<2,0>
PUBLIC	??0?$CTraceCategoryEx@$00$0A@@ATL@@QAE@PBD@Z	; ATL::CTraceCategoryEx<1,0>::CTraceCategoryEx<1,0>
PUBLIC	??0?$CTraceCategoryEx@$0IAAAA@$0A@@ATL@@QAE@PBD@Z ; ATL::CTraceCategoryEx<524288,0>::CTraceCategoryEx<524288,0>
PUBLIC	??$AtlAdd@K@ATL@@YAJPAKKK@Z			; ATL::AtlAdd<unsigned long>
PUBLIC	??0?$CSimpleArray@GV?$CSimpleArrayEqualHelper@G@ATL@@@ATL@@QAE@XZ ; ATL::CSimpleArray<unsigned short,ATL::CSimpleArrayEqualHelper<unsigned short> >::CSimpleArray<unsigned short,ATL::CSimpleArrayEqualHelper<unsigned short> >
PUBLIC	?GetSize@?$CSimpleArray@GV?$CSimpleArrayEqualHelper@G@ATL@@@ATL@@QBEHXZ ; ATL::CSimpleArray<unsigned short,ATL::CSimpleArrayEqualHelper<unsigned short> >::GetSize
PUBLIC	?RemoveAll@?$CSimpleArray@GV?$CSimpleArrayEqualHelper@G@ATL@@@ATL@@QAEXXZ ; ATL::CSimpleArray<unsigned short,ATL::CSimpleArrayEqualHelper<unsigned short> >::RemoveAll
PUBLIC	??A?$CSimpleArray@GV?$CSimpleArrayEqualHelper@G@ATL@@@ATL@@QAEAAGH@Z ; ATL::CSimpleArray<unsigned short,ATL::CSimpleArrayEqualHelper<unsigned short> >::operator[]
PUBLIC	??1CDCCache@CImage@ATL@@QAE@XZ			; ATL::CImage::CDCCache::~CDCCache
PUBLIC	??0CDCCache@CImage@ATL@@QAE@XZ			; ATL::CImage::CDCCache::CDCCache
PUBLIC	?ReleaseGDIPlus@CInitGDIPlus@CImage@ATL@@QAEXXZ	; ATL::CImage::CInitGDIPlus::ReleaseGDIPlus
PUBLIC	??1CInitGDIPlus@CImage@ATL@@QAE@XZ		; ATL::CImage::CInitGDIPlus::~CInitGDIPlus
PUBLIC	??0CInitGDIPlus@CImage@ATL@@QAE@XZ		; ATL::CImage::CInitGDIPlus::CInitGDIPlus
PUBLIC	??0CImageStaticInitializer@ATLImplementationDetails@ATL@@QAE@XZ ; ATL::ATLImplementationDetails::CImageStaticInitializer::CImageStaticInitializer
PUBLIC	??__FgdiPlus@?1??GetInitGDIPlusInstance@CImage@ATL@@CAPAVCInitGDIPlus@12@XZ@YAXXZ ; `ATL::CImage::GetInitGDIPlusInstance'::`2'::`dynamic atexit destructor for 'gdiPlus''
PUBLIC	??__Fcache@?1??GetCDCCacheInstance@CImage@ATL@@CAPAVCDCCache@12@XZ@YAXXZ ; `ATL::CImage::GetCDCCacheInstance'::`2'::`dynamic atexit destructor for 'cache''
PUBLIC	?GetCDCCacheInstance@CImage@ATL@@CAPAVCDCCache@12@XZ ; ATL::CImage::GetCDCCacheInstance
PUBLIC	?GetInitGDIPlusInstance@CImage@ATL@@CAPAVCInitGDIPlus@12@XZ ; ATL::CImage::GetInitGDIPlusInstance
PUBLIC	??_H@YGXPAXIIP6EPAX0@Z@Z			; `vector constructor iterator'
PUBLIC	??0CAtlStringMgrStaticInitializer@ATLImplementationDetails@ATL@@QAE@XZ ; ATL::ATLImplementationDetails::CAtlStringMgrStaticInitializer::CAtlStringMgrStaticInitializer
PUBLIC	??1CAtlStringMgr@ATL@@UAE@XZ			; ATL::CAtlStringMgr::~CAtlStringMgr
PUBLIC	??_GCAtlStringMgr@ATL@@UAEPAXI@Z		; ATL::CAtlStringMgr::`scalar deleting destructor'
PUBLIC	??__FstrHeap@?1??GetInstance@CAtlStringMgr@ATL@@SAPAUIAtlStringMgr@2@XZ@YAXXZ ; `ATL::CAtlStringMgr::GetInstance'::`2'::`dynamic atexit destructor for 'strHeap''
PUBLIC	??__FstrMgr@?1??GetInstance@CAtlStringMgr@ATL@@SAPAUIAtlStringMgr@2@XZ@YAXXZ ; `ATL::CAtlStringMgr::GetInstance'::`2'::`dynamic atexit destructor for 'strMgr''
PUBLIC	?Clone@CAtlStringMgr@ATL@@UAEPAUIAtlStringMgr@2@XZ ; ATL::CAtlStringMgr::Clone
PUBLIC	?GetNilString@CAtlStringMgr@ATL@@UAEPAUCStringData@2@XZ ; ATL::CAtlStringMgr::GetNilString
PUBLIC	?Reallocate@CAtlStringMgr@ATL@@UAEPAUCStringData@2@PAU32@HH@Z ; ATL::CAtlStringMgr::Reallocate
PUBLIC	?Free@CAtlStringMgr@ATL@@UAEXPAUCStringData@2@@Z ; ATL::CAtlStringMgr::Free
PUBLIC	?Allocate@CAtlStringMgr@ATL@@UAEPAUCStringData@2@HH@Z ; ATL::CAtlStringMgr::Allocate
PUBLIC	?GetInstance@CAtlStringMgr@ATL@@SAPAUIAtlStringMgr@2@XZ ; ATL::CAtlStringMgr::GetInstance
PUBLIC	??0CAtlStringMgr@ATL@@QAE@PAUIAtlMemMgr@1@@Z	; ATL::CAtlStringMgr::CAtlStringMgr
PUBLIC	?AtlWinModuleInit@ATL@@YGJPAU_ATL_WIN_MODULE70@1@@Z ; ATL::AtlWinModuleInit
PUBLIC	?AtlWinModuleTerm@ATL@@YGJPAU_ATL_WIN_MODULE70@1@PAUHINSTANCE__@@@Z ; ATL::AtlWinModuleTerm
PUBLIC	??1_ATL_WIN_MODULE70@ATL@@QAE@XZ		; ATL::_ATL_WIN_MODULE70::~_ATL_WIN_MODULE70
PUBLIC	??0_ATL_WIN_MODULE70@ATL@@QAE@XZ		; ATL::_ATL_WIN_MODULE70::_ATL_WIN_MODULE70
PUBLIC	?Term@CAtlWinModule@ATL@@QAEXXZ			; ATL::CAtlWinModule::Term
PUBLIC	??1CAtlWinModule@ATL@@QAE@XZ			; ATL::CAtlWinModule::~CAtlWinModule
PUBLIC	??0CAtlWinModule@ATL@@QAE@XZ			; ATL::CAtlWinModule::CAtlWinModule
PUBLIC	??1_ATL_COM_MODULE70@ATL@@QAE@XZ		; ATL::_ATL_COM_MODULE70::~_ATL_COM_MODULE70
PUBLIC	??0_ATL_COM_MODULE70@ATL@@QAE@XZ		; ATL::_ATL_COM_MODULE70::_ATL_COM_MODULE70
PUBLIC	?Term@CAtlComModule@ATL@@QAEXXZ			; ATL::CAtlComModule::Term
PUBLIC	??1CAtlComModule@ATL@@QAE@XZ			; ATL::CAtlComModule::~CAtlComModule
PUBLIC	??0CAtlComModule@ATL@@QAE@XZ			; ATL::CAtlComModule::CAtlComModule
PUBLIC	?_AfxInitManaged@@YAHXZ				; _AfxInitManaged
PUBLIC	?SetManager@CNilStringData@ATL@@QAEXPAUIAtlStringMgr@2@@Z ; ATL::CNilStringData::SetManager
PUBLIC	??0CNilStringData@ATL@@QAE@XZ			; ATL::CNilStringData::CNilStringData
PUBLIC	?AddRef@CStringData@ATL@@QAEXXZ			; ATL::CStringData::AddRef
PUBLIC	??_GCWin32Heap@ATL@@UAEPAXI@Z			; ATL::CWin32Heap::`scalar deleting destructor'
PUBLIC	?GetSize@CWin32Heap@ATL@@UAEIPAX@Z		; ATL::CWin32Heap::GetSize
PUBLIC	?Reallocate@CWin32Heap@ATL@@UAEPAXPAXI@Z	; ATL::CWin32Heap::Reallocate
PUBLIC	?Free@CWin32Heap@ATL@@UAEXPAX@Z			; ATL::CWin32Heap::Free
PUBLIC	?Allocate@CWin32Heap@ATL@@UAEPAXI@Z		; ATL::CWin32Heap::Allocate
PUBLIC	??1CWin32Heap@ATL@@UAE@XZ			; ATL::CWin32Heap::~CWin32Heap
PUBLIC	??0CWin32Heap@ATL@@QAE@PAX@Z			; ATL::CWin32Heap::CWin32Heap
PUBLIC	?GetModuleInstance@CAtlBaseModule@ATL@@QAEPAUHINSTANCE__@@XZ ; ATL::CAtlBaseModule::GetModuleInstance
PUBLIC	?Term@CComCriticalSection@ATL@@QAEJXZ		; ATL::CComCriticalSection::Term
PUBLIC	?Init@CComCriticalSection@ATL@@QAEJXZ		; ATL::CComCriticalSection::Init
PUBLIC	??1CComCriticalSection@ATL@@QAE@XZ		; ATL::CComCriticalSection::~CComCriticalSection
PUBLIC	??0CComCriticalSection@ATL@@QAE@XZ		; ATL::CComCriticalSection::CComCriticalSection
PUBLIC	?_AtlInitializeCriticalSectionEx@ATL@@YAHPAU_RTL_CRITICAL_SECTION@@KK@Z ; ATL::_AtlInitializeCriticalSectionEx
PUBLIC	?_AtlRaiseException@ATL@@YAXKK@Z		; ATL::_AtlRaiseException
PUBLIC	??$AtlMultiply@K@ATL@@YAJPAKKK@Z		; ATL::AtlMultiply<unsigned long>
PUBLIC	??$AtlMultiply@I@ATL@@YAJPAIII@Z		; ATL::AtlMultiply<unsigned int>
PUBLIC	_HRESULT_FROM_WIN32
PUBLIC	?$TSS0@?1??GetCDCCacheInstance@CImage@ATL@@CAPAVCDCCache@23@XZ@4HA ; TSS0<`template-parameter-2',ATL::CImage::tCDCCacheInstance,signed char,ATL::CImage::CDCCache const volatile __based() &,void,int, ?? &>
PUBLIC	?gdiPlus@?1??GetInitGDIPlusInstance@CImage@ATL@@CAPAVCInitGDIPlus@23@XZ@4V423@A ; `ATL::CImage::GetInitGDIPlusInstance'::`2'::gdiPlus
PUBLIC	?strMgr@?1??GetInstance@CAtlStringMgr@ATL@@SAPAUIAtlStringMgr@3@XZ@4V23@A ; `ATL::CAtlStringMgr::GetInstance'::`2'::strMgr
PUBLIC	?atlTraceDBProvider@ATL@@3V?$CTraceCategoryEx@$0CAA@$0A@@1@A ; ATL::atlTraceDBProvider
PUBLIC	?atlTraceGeneral@ATL@@3V?$CTraceCategoryEx@$00$0A@@1@A ; ATL::atlTraceGeneral
PUBLIC	?atlTraceDBClient@ATL@@3V?$CTraceCategoryEx@$0BAA@$0A@@1@A ; ATL::atlTraceDBClient
PUBLIC	?atlTraceSnapin@ATL@@3V?$CTraceCategoryEx@$0EAA@$0A@@1@A ; ATL::atlTraceSnapin
PUBLIC	?_AtlWinModule@ATL@@3VCAtlWinModule@1@A		; ATL::_AtlWinModule
PUBLIC	?atlTraceQI@ATL@@3V?$CTraceCategoryEx@$03$0A@@1@A ; ATL::atlTraceQI
PUBLIC	?atlTraceException@ATL@@3V?$CTraceCategoryEx@$0CAAA@$0A@@1@A ; ATL::atlTraceException
PUBLIC	?atlTraceString@ATL@@3V?$CTraceCategoryEx@$0CAAAA@$0A@@1@A ; ATL::atlTraceString
PUBLIC	?atlTraceWindowing@ATL@@3V?$CTraceCategoryEx@$0CA@$0A@@1@A ; ATL::atlTraceWindowing
PUBLIC	?atlTraceStencil@ATL@@3V?$CTraceCategoryEx@$0BAAAA@$0A@@1@A ; ATL::atlTraceStencil
PUBLIC	?atlTraceCache@ATL@@3V?$CTraceCategoryEx@$0IAAA@$0A@@1@A ; ATL::atlTraceCache
PUBLIC	?InitializeCImage@ATLImplementationDetails@ATL@@3UCImageStaticInitializer@12@A ; ATL::ATLImplementationDetails::InitializeCImage
PUBLIC	?atlTraceUtil@ATL@@3V?$CTraceCategoryEx@$0IAAAA@$0A@@1@A ; ATL::atlTraceUtil
PUBLIC	?atlTraceTime@ATL@@3V?$CTraceCategoryEx@$0EAAA@$0A@@1@A ; ATL::atlTraceTime
PUBLIC	?_AtlComModule@ATL@@3VCAtlComModule@1@A		; ATL::_AtlComModule
PUBLIC	?strHeap@?1??GetInstance@CAtlStringMgr@ATL@@SAPAUIAtlStringMgr@3@XZ@4VCWin32Heap@3@A ; `ATL::CAtlStringMgr::GetInstance'::`2'::strHeap
PUBLIC	?atlTraceISAPI@ATL@@3V?$CTraceCategoryEx@$0EAAAAA@$0A@@1@A ; ATL::atlTraceISAPI
PUBLIC	?$TSS0@?1??GetInstance@CAtlStringMgr@ATL@@SAPAUIAtlStringMgr@3@XZ@4HA ; TSS0<`template-parameter-2',ATL::CAtlStringMgr::tInstance,ATL::IAtlStringMgr * * const volatile,void,int, ?? &>
PUBLIC	?$TSS0@?1??GetInitGDIPlusInstance@CImage@ATL@@CAPAVCInitGDIPlus@23@XZ@4HA ; TSS0<`template-parameter-2',ATL::CImage::tInitGDIPlusInstance,signed char,ATL::CImage::CInitGDIPlus const volatile __based() &,void,int, ?? &>
PUBLIC	?atlTraceSync@ATL@@3V?$CTraceCategoryEx@$0CAAAAA@$0A@@1@A ; ATL::atlTraceSync
PUBLIC	?cache@?1??GetCDCCacheInstance@CImage@ATL@@CAPAVCDCCache@23@XZ@4V423@A ; `ATL::CImage::GetCDCCacheInstance'::`2'::cache
PUBLIC	?atlTraceMap@ATL@@3V?$CTraceCategoryEx@$0EAAAA@$0A@@1@A ; ATL::atlTraceMap
PUBLIC	?atlTraceNotImpl@ATL@@3V?$CTraceCategoryEx@$0IAA@$0A@@1@A ; ATL::atlTraceNotImpl
PUBLIC	?atlTraceSecurity@ATL@@3V?$CTraceCategoryEx@$0BAAAAA@$0A@@1@A ; ATL::atlTraceSecurity
PUBLIC	?atlTraceRefcount@ATL@@3V?$CTraceCategoryEx@$0BA@$0A@@1@A ; ATL::atlTraceRefcount
PUBLIC	?atlTraceHosting@ATL@@3V?$CTraceCategoryEx@$0IA@$0A@@1@A ; ATL::atlTraceHosting
PUBLIC	?InitializeCAtlStringMgr@ATLImplementationDetails@ATL@@3UCAtlStringMgrStaticInitializer@12@A ; ATL::ATLImplementationDetails::InitializeCAtlStringMgr
PUBLIC	?$TSS1@?1??GetInstance@CAtlStringMgr@ATL@@SAPAUIAtlStringMgr@3@XZ@4HA ; TSS1<`template-parameter-2',ATL::CAtlStringMgr::tInstance,ATL::IAtlStringMgr * * const volatile,void,int, ?? &>
PUBLIC	?atlTraceRegistrar@ATL@@3V?$CTraceCategoryEx@$07$0A@@1@A ; ATL::atlTraceRegistrar
PUBLIC	?atlTraceAllocation@ATL@@3V?$CTraceCategoryEx@$0BAAA@$0A@@1@A ; ATL::atlTraceAllocation
PUBLIC	?atlTraceControls@ATL@@3V?$CTraceCategoryEx@$0EA@$0A@@1@A ; ATL::atlTraceControls
PUBLIC	?atlTraceCOM@ATL@@3V?$CTraceCategoryEx@$01$0A@@1@A ; ATL::atlTraceCOM
EXTRN	??_ECWin32Heap@ATL@@UAEPAXI@Z:PROC		; ATL::CWin32Heap::`vector deleting destructor'
EXTRN	??_ECAtlStringMgr@ATL@@UAEPAXI@Z:PROC		; ATL::CAtlStringMgr::`vector deleting destructor'
;	COMDAT ?$TSS0@?1??GetCDCCacheInstance@CImage@ATL@@CAPAVCDCCache@23@XZ@4HA
_BSS	SEGMENT
?$TSS0@?1??GetCDCCacheInstance@CImage@ATL@@CAPAVCDCCache@23@XZ@4HA DD 01H DUP (?) ; TSS0<`template-parameter-2',ATL::CImage::tCDCCacheInstance,signed char,ATL::CImage::CDCCache const volatile __based() &,void,int, ?? &>
_BSS	ENDS
;	COMDAT ?gdiPlus@?1??GetInitGDIPlusInstance@CImage@ATL@@CAPAVCInitGDIPlus@23@XZ@4V423@A
_BSS	SEGMENT
?gdiPlus@?1??GetInitGDIPlusInstance@CImage@ATL@@CAPAVCInitGDIPlus@23@XZ@4V423@A DB 024H DUP (?) ; `ATL::CImage::GetInitGDIPlusInstance'::`2'::gdiPlus
_BSS	ENDS
;	COMDAT ?strMgr@?1??GetInstance@CAtlStringMgr@ATL@@SAPAUIAtlStringMgr@3@XZ@4V23@A
_BSS	SEGMENT
?strMgr@?1??GetInstance@CAtlStringMgr@ATL@@SAPAUIAtlStringMgr@3@XZ@4V23@A DB 01cH DUP (?) ; `ATL::CAtlStringMgr::GetInstance'::`2'::strMgr
_BSS	ENDS
;	COMDAT ?atlTraceDBProvider@ATL@@3V?$CTraceCategoryEx@$0CAA@$0A@@1@A
_BSS	SEGMENT
?atlTraceDBProvider@ATL@@3V?$CTraceCategoryEx@$0CAA@$0A@@1@A DD 01H DUP (?) ; ATL::atlTraceDBProvider
_BSS	ENDS
;	COMDAT ?atlTraceGeneral@ATL@@3V?$CTraceCategoryEx@$00$0A@@1@A
_BSS	SEGMENT
?atlTraceGeneral@ATL@@3V?$CTraceCategoryEx@$00$0A@@1@A DD 01H DUP (?) ; ATL::atlTraceGeneral
_BSS	ENDS
;	COMDAT ?atlTraceDBClient@ATL@@3V?$CTraceCategoryEx@$0BAA@$0A@@1@A
_BSS	SEGMENT
?atlTraceDBClient@ATL@@3V?$CTraceCategoryEx@$0BAA@$0A@@1@A DD 01H DUP (?) ; ATL::atlTraceDBClient
_BSS	ENDS
;	COMDAT ?atlTraceSnapin@ATL@@3V?$CTraceCategoryEx@$0EAA@$0A@@1@A
_BSS	SEGMENT
?atlTraceSnapin@ATL@@3V?$CTraceCategoryEx@$0EAA@$0A@@1@A DD 01H DUP (?) ; ATL::atlTraceSnapin
_BSS	ENDS
;	COMDAT ?atlTraceQI@ATL@@3V?$CTraceCategoryEx@$03$0A@@1@A
_BSS	SEGMENT
?atlTraceQI@ATL@@3V?$CTraceCategoryEx@$03$0A@@1@A DD 01H DUP (?) ; ATL::atlTraceQI
_BSS	ENDS
;	COMDAT ?atlTraceException@ATL@@3V?$CTraceCategoryEx@$0CAAA@$0A@@1@A
_BSS	SEGMENT
?atlTraceException@ATL@@3V?$CTraceCategoryEx@$0CAAA@$0A@@1@A DD 01H DUP (?) ; ATL::atlTraceException
_BSS	ENDS
;	COMDAT ?atlTraceString@ATL@@3V?$CTraceCategoryEx@$0CAAAA@$0A@@1@A
_BSS	SEGMENT
?atlTraceString@ATL@@3V?$CTraceCategoryEx@$0CAAAA@$0A@@1@A DD 01H DUP (?) ; ATL::atlTraceString
_BSS	ENDS
;	COMDAT ?atlTraceWindowing@ATL@@3V?$CTraceCategoryEx@$0CA@$0A@@1@A
_BSS	SEGMENT
?atlTraceWindowing@ATL@@3V?$CTraceCategoryEx@$0CA@$0A@@1@A DD 01H DUP (?) ; ATL::atlTraceWindowing
_BSS	ENDS
;	COMDAT ?atlTraceStencil@ATL@@3V?$CTraceCategoryEx@$0BAAAA@$0A@@1@A
_BSS	SEGMENT
?atlTraceStencil@ATL@@3V?$CTraceCategoryEx@$0BAAAA@$0A@@1@A DD 01H DUP (?) ; ATL::atlTraceStencil
_BSS	ENDS
;	COMDAT ?atlTraceCache@ATL@@3V?$CTraceCategoryEx@$0IAAA@$0A@@1@A
_BSS	SEGMENT
?atlTraceCache@ATL@@3V?$CTraceCategoryEx@$0IAAA@$0A@@1@A DD 01H DUP (?) ; ATL::atlTraceCache
_BSS	ENDS
;	COMDAT ?InitializeCImage@ATLImplementationDetails@ATL@@3UCImageStaticInitializer@12@A
_BSS	SEGMENT
?InitializeCImage@ATLImplementationDetails@ATL@@3UCImageStaticInitializer@12@A DB 01H DUP (?) ; ATL::ATLImplementationDetails::InitializeCImage
_BSS	ENDS
;	COMDAT ?atlTraceUtil@ATL@@3V?$CTraceCategoryEx@$0IAAAA@$0A@@1@A
_BSS	SEGMENT
?atlTraceUtil@ATL@@3V?$CTraceCategoryEx@$0IAAAA@$0A@@1@A DD 01H DUP (?) ; ATL::atlTraceUtil
_BSS	ENDS
;	COMDAT ?atlTraceTime@ATL@@3V?$CTraceCategoryEx@$0EAAA@$0A@@1@A
_BSS	SEGMENT
?atlTraceTime@ATL@@3V?$CTraceCategoryEx@$0EAAA@$0A@@1@A DD 01H DUP (?) ; ATL::atlTraceTime
_BSS	ENDS
;	COMDAT ?strHeap@?1??GetInstance@CAtlStringMgr@ATL@@SAPAUIAtlStringMgr@3@XZ@4VCWin32Heap@3@A
_BSS	SEGMENT
?strHeap@?1??GetInstance@CAtlStringMgr@ATL@@SAPAUIAtlStringMgr@3@XZ@4VCWin32Heap@3@A DB 0cH DUP (?) ; `ATL::CAtlStringMgr::GetInstance'::`2'::strHeap
_BSS	ENDS
;	COMDAT ?atlTraceISAPI@ATL@@3V?$CTraceCategoryEx@$0EAAAAA@$0A@@1@A
_BSS	SEGMENT
?atlTraceISAPI@ATL@@3V?$CTraceCategoryEx@$0EAAAAA@$0A@@1@A DD 01H DUP (?) ; ATL::atlTraceISAPI
_BSS	ENDS
;	COMDAT ?$TSS0@?1??GetInstance@CAtlStringMgr@ATL@@SAPAUIAtlStringMgr@3@XZ@4HA
_BSS	SEGMENT
?$TSS0@?1??GetInstance@CAtlStringMgr@ATL@@SAPAUIAtlStringMgr@3@XZ@4HA DD 01H DUP (?) ; TSS0<`template-parameter-2',ATL::CAtlStringMgr::tInstance,ATL::IAtlStringMgr * * const volatile,void,int, ?? &>
_BSS	ENDS
;	COMDAT ?$TSS0@?1??GetInitGDIPlusInstance@CImage@ATL@@CAPAVCInitGDIPlus@23@XZ@4HA
_BSS	SEGMENT
?$TSS0@?1??GetInitGDIPlusInstance@CImage@ATL@@CAPAVCInitGDIPlus@23@XZ@4HA DD 01H DUP (?) ; TSS0<`template-parameter-2',ATL::CImage::tInitGDIPlusInstance,signed char,ATL::CImage::CInitGDIPlus const volatile __based() &,void,int, ?? &>
_BSS	ENDS
;	COMDAT ?atlTraceSync@ATL@@3V?$CTraceCategoryEx@$0CAAAAA@$0A@@1@A
_BSS	SEGMENT
?atlTraceSync@ATL@@3V?$CTraceCategoryEx@$0CAAAAA@$0A@@1@A DD 01H DUP (?) ; ATL::atlTraceSync
_BSS	ENDS
;	COMDAT ?cache@?1??GetCDCCacheInstance@CImage@ATL@@CAPAVCDCCache@23@XZ@4V423@A
_BSS	SEGMENT
?cache@?1??GetCDCCacheInstance@CImage@ATL@@CAPAVCDCCache@23@XZ@4V423@A DB 010H DUP (?) ; `ATL::CImage::GetCDCCacheInstance'::`2'::cache
_BSS	ENDS
;	COMDAT ?atlTraceMap@ATL@@3V?$CTraceCategoryEx@$0EAAAA@$0A@@1@A
_BSS	SEGMENT
?atlTraceMap@ATL@@3V?$CTraceCategoryEx@$0EAAAA@$0A@@1@A DD 01H DUP (?) ; ATL::atlTraceMap
_BSS	ENDS
;	COMDAT ?atlTraceNotImpl@ATL@@3V?$CTraceCategoryEx@$0IAA@$0A@@1@A
_BSS	SEGMENT
?atlTraceNotImpl@ATL@@3V?$CTraceCategoryEx@$0IAA@$0A@@1@A DD 01H DUP (?) ; ATL::atlTraceNotImpl
_BSS	ENDS
;	COMDAT ?atlTraceSecurity@ATL@@3V?$CTraceCategoryEx@$0BAAAAA@$0A@@1@A
_BSS	SEGMENT
?atlTraceSecurity@ATL@@3V?$CTraceCategoryEx@$0BAAAAA@$0A@@1@A DD 01H DUP (?) ; ATL::atlTraceSecurity
_BSS	ENDS
;	COMDAT ?atlTraceRefcount@ATL@@3V?$CTraceCategoryEx@$0BA@$0A@@1@A
_BSS	SEGMENT
?atlTraceRefcount@ATL@@3V?$CTraceCategoryEx@$0BA@$0A@@1@A DD 01H DUP (?) ; ATL::atlTraceRefcount
_BSS	ENDS
;	COMDAT ?atlTraceHosting@ATL@@3V?$CTraceCategoryEx@$0IA@$0A@@1@A
_BSS	SEGMENT
?atlTraceHosting@ATL@@3V?$CTraceCategoryEx@$0IA@$0A@@1@A DD 01H DUP (?) ; ATL::atlTraceHosting
_BSS	ENDS
;	COMDAT ?InitializeCAtlStringMgr@ATLImplementationDetails@ATL@@3UCAtlStringMgrStaticInitializer@12@A
_BSS	SEGMENT
?InitializeCAtlStringMgr@ATLImplementationDetails@ATL@@3UCAtlStringMgrStaticInitializer@12@A DB 01H DUP (?) ; ATL::ATLImplementationDetails::InitializeCAtlStringMgr
_BSS	ENDS
;	COMDAT ?$TSS1@?1??GetInstance@CAtlStringMgr@ATL@@SAPAUIAtlStringMgr@3@XZ@4HA
_BSS	SEGMENT
?$TSS1@?1??GetInstance@CAtlStringMgr@ATL@@SAPAUIAtlStringMgr@3@XZ@4HA DD 01H DUP (?) ; TSS1<`template-parameter-2',ATL::CAtlStringMgr::tInstance,ATL::IAtlStringMgr * * const volatile,void,int, ?? &>
_BSS	ENDS
;	COMDAT ?atlTraceRegistrar@ATL@@3V?$CTraceCategoryEx@$07$0A@@1@A
_BSS	SEGMENT
?atlTraceRegistrar@ATL@@3V?$CTraceCategoryEx@$07$0A@@1@A DD 01H DUP (?) ; ATL::atlTraceRegistrar
_BSS	ENDS
;	COMDAT ?atlTraceAllocation@ATL@@3V?$CTraceCategoryEx@$0BAAA@$0A@@1@A
_BSS	SEGMENT
?atlTraceAllocation@ATL@@3V?$CTraceCategoryEx@$0BAAA@$0A@@1@A DD 01H DUP (?) ; ATL::atlTraceAllocation
_BSS	ENDS
;	COMDAT ?atlTraceControls@ATL@@3V?$CTraceCategoryEx@$0EA@$0A@@1@A
_BSS	SEGMENT
?atlTraceControls@ATL@@3V?$CTraceCategoryEx@$0EA@$0A@@1@A DD 01H DUP (?) ; ATL::atlTraceControls
_BSS	ENDS
;	COMDAT ?atlTraceCOM@ATL@@3V?$CTraceCategoryEx@$01$0A@@1@A
_BSS	SEGMENT
?atlTraceCOM@ATL@@3V?$CTraceCategoryEx@$01$0A@@1@A DD 01H DUP (?) ; ATL::atlTraceCOM
_BSS	ENDS
;	COMDAT CRT$XCU
CRT$XCU	SEGMENT
?_AtlComModule$initializer$@ATL@@3P6AXXZA DD FLAT:??__E_AtlComModule@ATL@@YAXXZ ; ATL::_AtlComModule$initializer$
;	COMDAT ?_AtlComModule@ATL@@3VCAtlComModule@1@A
_DATA	SEGMENT
?_AtlComModule@ATL@@3VCAtlComModule@1@A DB 04H DUP (?)
	DD	FLAT:___ImageBase			; ATL::_AtlComModule
	DD	FLAT:___pobjMapEntryFirst+4
	DD	FLAT:___pobjMapEntryLast
_DATA	ENDS
;	COMDAT ?_AtlWinModule@ATL@@3VCAtlWinModule@1@A
_DATA	SEGMENT
?_AtlWinModule@ATL@@3VCAtlWinModule@1@A DD 02cH		; ATL::_AtlWinModule
	DB	24 DUP(00H)
	DD	00H
_DATA	ENDS
;	COMDAT xdata$x
xdata$x	SEGMENT
__ehfuncinfo$??1CAtlComModule@ATL@@QAE@XZ DD 019930522H
	DD	00H
	DD	00H
	DD	2 DUP(00H)
	DD	2 DUP(00H)
	DD	00H
	DD	05H
xdata$x	ENDS
;	COMDAT xdata$x
xdata$x	SEGMENT
__ehfuncinfo$??__F_AtlComModule@ATL@@YAXXZ DD 019930522H
	DD	01H
	DD	FLAT:__unwindtable$??__F_AtlComModule@ATL@@YAXXZ
	DD	2 DUP(00H)
	DD	2 DUP(00H)
	DD	00H
	DD	01H
__unwindtable$??__F_AtlComModule@ATL@@YAXXZ DD 0ffffffffH
	DD	FLAT:___std_terminate
;	COMDAT CRT$XCU
CRT$XCU	SEGMENT
?_AtlWinModule$initializer$@ATL@@3P6AXXZA DD FLAT:??__E_AtlWinModule@ATL@@YAXXZ ; ATL::_AtlWinModule$initializer$
CRT$XCU	ENDS
;	COMDAT CRT$XCU
CRT$XCU	SEGMENT
?InitializeCAtlStringMgr$initializer$@ATLImplementationDetails@ATL@@3P6AXXZA DD FLAT:??__EInitializeCAtlStringMgr@ATLImplementationDetails@ATL@@YAXXZ ; ATL::ATLImplementationDetails::InitializeCAtlStringMgr$initializer$
CRT$XCU	ENDS
;	COMDAT CRT$XCU
CRT$XCU	SEGMENT
?InitializeCImage$initializer$@ATLImplementationDetails@ATL@@3P6AXXZA DD FLAT:??__EInitializeCImage@ATLImplementationDetails@ATL@@YAXXZ ; ATL::ATLImplementationDetails::InitializeCImage$initializer$
CRT$XCU	ENDS
; Function compile flags: /Ogtp
; File C:\Program Files (x86)\Windows Kits\10\Include\10.0.18362.0\shared\winerror.h
;	COMDAT _HRESULT_FROM_WIN32
_TEXT	SEGMENT
_x$ = 8							; size = 4
_HRESULT_FROM_WIN32 PROC				; COMDAT

; 28857: FORCEINLINE _Translates_Win32_to_HRESULT_(x) HRESULT HRESULT_FROM_WIN32(unsigned long x) { return (HRESULT)(x) <= 0 ? (HRESULT)(x) : (HRESULT) (((x) & 0x0000FFFF) | (FACILITY_WIN32 << 16) | 0x80000000);}

	push	ebp
	mov	ebp, esp
	mov	eax, DWORD PTR _x$[ebp]
	test	eax, eax
	jle	SHORT $LN4@HRESULT_FR
	movzx	eax, ax
	or	eax, -2147024896			; 80070000H
$LN4@HRESULT_FR:
	pop	ebp
	ret	0
_HRESULT_FROM_WIN32 ENDP
_TEXT	ENDS
; Function compile flags: /Ogtp
; File C:\Program Files (x86)\Microsoft Visual Studio\2019\Community\VC\Tools\MSVC\14.24.28314\atlmfc\include\atlalloc.h
;	COMDAT ??$AtlMultiply@I@ATL@@YAJPAIII@Z
_TEXT	SEGMENT
_piResult$ = 8						; size = 4
_iLeft$ = 12						; size = 4
_iRight$ = 16						; size = 4
??$AtlMultiply@I@ATL@@YAJPAIII@Z PROC			; ATL::AtlMultiply<unsigned int>, COMDAT

; 135  : {

	push	ebp
	mov	ebp, esp

; 136  : 	unsigned __int64 i64Result=static_cast<unsigned __int64>(iLeft) * static_cast<unsigned __int64>(iRight);

	mov	eax, DWORD PTR _iLeft$[ebp]
	mul	DWORD PTR _iRight$[ebp]

; 137  : 	if(i64Result>UINT_MAX)

	test	edx, edx
	jne	SHORT $LN8@AtlMultipl
	cmp	eax, -1
	ja	SHORT $LN8@AtlMultipl

; 140  : 	}
; 141  : 	*piResult=static_cast<unsigned int>(i64Result);

	mov	ecx, DWORD PTR _piResult$[ebp]
	mov	DWORD PTR [ecx], eax

; 142  : 	return S_OK;

	xor	eax, eax

; 143  : }

	pop	ebp
	ret	0
$LN8@AtlMultipl:

; 138  : 	{
; 139  : 		return HRESULT_FROM_WIN32(ERROR_ARITHMETIC_OVERFLOW);

	mov	eax, -2147024362			; 80070216H

; 143  : }

	pop	ebp
	ret	0
??$AtlMultiply@I@ATL@@YAJPAIII@Z ENDP			; ATL::AtlMultiply<unsigned int>
_TEXT	ENDS
; Function compile flags: /Ogtp
; File C:\Program Files (x86)\Microsoft Visual Studio\2019\Community\VC\Tools\MSVC\14.24.28314\atlmfc\include\atlalloc.h
;	COMDAT ??$AtlMultiply@K@ATL@@YAJPAKKK@Z
_TEXT	SEGMENT
_piResult$ = 8						; size = 4
_iLeft$ = 12						; size = 4
_iRight$ = 16						; size = 4
??$AtlMultiply@K@ATL@@YAJPAKKK@Z PROC			; ATL::AtlMultiply<unsigned long>, COMDAT

; 165  : {

	push	ebp
	mov	ebp, esp

; 166  : 	unsigned __int64 i64Result=static_cast<unsigned __int64>(iLeft) * static_cast<unsigned __int64>(iRight);

	mov	eax, DWORD PTR _iLeft$[ebp]
	mul	DWORD PTR _iRight$[ebp]

; 167  : 	if(i64Result>ULONG_MAX)

	test	edx, edx
	jne	SHORT $LN8@AtlMultipl
	cmp	eax, -1
	ja	SHORT $LN8@AtlMultipl

; 170  : 	}
; 171  : 	*piResult=static_cast<unsigned long>(i64Result);

	mov	ecx, DWORD PTR _piResult$[ebp]
	mov	DWORD PTR [ecx], eax

; 172  : 	return S_OK;

	xor	eax, eax

; 173  : }

	pop	ebp
	ret	0
$LN8@AtlMultipl:

; 168  : 	{
; 169  : 		return HRESULT_FROM_WIN32(ERROR_ARITHMETIC_OVERFLOW);

	mov	eax, -2147024362			; 80070216H

; 173  : }

	pop	ebp
	ret	0
??$AtlMultiply@K@ATL@@YAJPAKKK@Z ENDP			; ATL::AtlMultiply<unsigned long>
_TEXT	ENDS
; Function compile flags: /Ogtp
; File C:\Program Files (x86)\Microsoft Visual Studio\2019\Community\VC\Tools\MSVC\14.24.28314\atlmfc\include\atlexcept.h
;	COMDAT ?_AtlRaiseException@ATL@@YAXKK@Z
_TEXT	SEGMENT
_dwExceptionCode$ = 8					; size = 4
_dwExceptionFlags$ = 12					; size = 4
?_AtlRaiseException@ATL@@YAXKK@Z PROC			; ATL::_AtlRaiseException, COMDAT

; 30   : {

	push	ebp
	mov	ebp, esp

; 31   : 	RaiseException( dwExceptionCode, dwExceptionFlags, 0, NULL );

	push	0
	push	0
	push	DWORD PTR _dwExceptionFlags$[ebp]
	push	DWORD PTR _dwExceptionCode$[ebp]
	call	DWORD PTR __imp__RaiseException@16

; 32   : }

	pop	ebp
	ret	0
?_AtlRaiseException@ATL@@YAXKK@Z ENDP			; ATL::_AtlRaiseException
_TEXT	ENDS
; Function compile flags: /Ogtp
; File C:\Program Files (x86)\Microsoft Visual Studio\2019\Community\VC\Tools\MSVC\14.24.28314\atlmfc\include\atlwinverapi.h
;	COMDAT ?_AtlInitializeCriticalSectionEx@ATL@@YAHPAU_RTL_CRITICAL_SECTION@@KK@Z
_TEXT	SEGMENT
_lpCriticalSection$ = 8					; size = 4
_dwSpinCount$ = 12					; size = 4
_Flags$ = 16						; size = 4
?_AtlInitializeCriticalSectionEx@ATL@@YAHPAU_RTL_CRITICAL_SECTION@@KK@Z PROC ; ATL::_AtlInitializeCriticalSectionEx, COMDAT

; 727  : {

	push	ebp
	mov	ebp, esp

; 728  : #if (NTDDI_VERSION >= NTDDI_VISTA) && !defined(_USING_V110_SDK71_) && !defined(_ATL_XP_TARGETING)
; 729  : 	// InitializeCriticalSectionEx is available in Vista or later, desktop or store apps
; 730  : 	return ::InitializeCriticalSectionEx(lpCriticalSection, dwSpinCount, Flags);

	push	DWORD PTR _Flags$[ebp]
	push	DWORD PTR _dwSpinCount$[ebp]
	push	DWORD PTR _lpCriticalSection$[ebp]
	call	DWORD PTR __imp__InitializeCriticalSectionEx@12

; 731  : #else
; 732  : 	UNREFERENCED_PARAMETER(Flags);
; 733  : 
; 734  : 	// ...otherwise fall back to using InitializeCriticalSectionAndSpinCount.
; 735  : 	return ::InitializeCriticalSectionAndSpinCount(lpCriticalSection, dwSpinCount);
; 736  : #endif
; 737  : }

	pop	ebp
	ret	0
?_AtlInitializeCriticalSectionEx@ATL@@YAHPAU_RTL_CRITICAL_SECTION@@KK@Z ENDP ; ATL::_AtlInitializeCriticalSectionEx
_TEXT	ENDS
; Function compile flags: /Ogtp
; File C:\Program Files (x86)\Microsoft Visual Studio\2019\Community\VC\Tools\MSVC\14.24.28314\atlmfc\include\atlcore.h
;	COMDAT ??0CComCriticalSection@ATL@@QAE@XZ
_TEXT	SEGMENT
??0CComCriticalSection@ATL@@QAE@XZ PROC			; ATL::CComCriticalSection::CComCriticalSection, COMDAT
; _this$ = ecx

; 123  : 	CComCriticalSection() throw()

	xorps	xmm0, xmm0

; 124  : 	{
; 125  : 		memset(&m_sec, 0, sizeof(CRITICAL_SECTION));
; 126  : 	}

	mov	eax, ecx
	movups	XMMWORD PTR [ecx], xmm0
	movq	QWORD PTR [ecx+16], xmm0
	ret	0
??0CComCriticalSection@ATL@@QAE@XZ ENDP			; ATL::CComCriticalSection::CComCriticalSection
_TEXT	ENDS
; Function compile flags: /Ogtp
; File C:\Program Files (x86)\Microsoft Visual Studio\2019\Community\VC\Tools\MSVC\14.24.28314\atlmfc\include\atlcore.h
;	COMDAT ??1CComCriticalSection@ATL@@QAE@XZ
_TEXT	SEGMENT
??1CComCriticalSection@ATL@@QAE@XZ PROC			; ATL::CComCriticalSection::~CComCriticalSection, COMDAT
; _this$ = ecx

; 130  : 	}

	ret	0
??1CComCriticalSection@ATL@@QAE@XZ ENDP			; ATL::CComCriticalSection::~CComCriticalSection
_TEXT	ENDS
; Function compile flags: /Ogtp
; File C:\Program Files (x86)\Microsoft Visual Studio\2019\Community\VC\Tools\MSVC\14.24.28314\atlmfc\include\atlcore.h
; File C:\Program Files (x86)\Microsoft Visual Studio\2019\Community\VC\Tools\MSVC\14.24.28314\atlmfc\include\atlwinverapi.h
; File C:\Program Files (x86)\Microsoft Visual Studio\2019\Community\VC\Tools\MSVC\14.24.28314\atlmfc\include\atlcore.h
; File C:\Program Files (x86)\Windows Kits\10\Include\10.0.18362.0\shared\winerror.h
; File C:\Program Files (x86)\Microsoft Visual Studio\2019\Community\VC\Tools\MSVC\14.24.28314\atlmfc\include\atlcore.h
;	COMDAT ?Init@CComCriticalSection@ATL@@QAEJXZ
_TEXT	SEGMENT
?Init@CComCriticalSection@ATL@@QAEJXZ PROC		; ATL::CComCriticalSection::Init, COMDAT
; _this$ = ecx
; File C:\Program Files (x86)\Microsoft Visual Studio\2019\Community\VC\Tools\MSVC\14.24.28314\atlmfc\include\atlwinverapi.h

; 730  : 	return ::InitializeCriticalSectionEx(lpCriticalSection, dwSpinCount, Flags);

	push	0
	push	0
	push	ecx
	call	DWORD PTR __imp__InitializeCriticalSectionEx@12
; File C:\Program Files (x86)\Microsoft Visual Studio\2019\Community\VC\Tools\MSVC\14.24.28314\atlmfc\include\atlcore.h

; 145  : 		if (!_AtlInitializeCriticalSectionEx(&m_sec, 0, 0))

	test	eax, eax
	jne	SHORT $LN10@Init

; 146  : 		{
; 147  : 			hRes = HRESULT_FROM_WIN32(GetLastError());

	call	DWORD PTR __imp__GetLastError@0
; File C:\Program Files (x86)\Windows Kits\10\Include\10.0.18362.0\shared\winerror.h

; 28857: FORCEINLINE _Translates_Win32_to_HRESULT_(x) HRESULT HRESULT_FROM_WIN32(unsigned long x) { return (HRESULT)(x) <= 0 ? (HRESULT)(x) : (HRESULT) (((x) & 0x0000FFFF) | (FACILITY_WIN32 << 16) | 0x80000000);}

	test	eax, eax
	jle	SHORT $LN9@Init
	movzx	eax, ax
	or	eax, -2147024896			; 80070000H
; File C:\Program Files (x86)\Microsoft Visual Studio\2019\Community\VC\Tools\MSVC\14.24.28314\atlmfc\include\atlcore.h

; 151  : 	}

	ret	0
$LN10@Init:

; 148  : 		}
; 149  : 
; 150  : 		return hRes;

	xor	eax, eax
$LN9@Init:

; 151  : 	}

	ret	0
?Init@CComCriticalSection@ATL@@QAEJXZ ENDP		; ATL::CComCriticalSection::Init
_TEXT	ENDS
; Function compile flags: /Ogtp
; File C:\Program Files (x86)\Microsoft Visual Studio\2019\Community\VC\Tools\MSVC\14.24.28314\atlmfc\include\atlcore.h
;	COMDAT ?Term@CComCriticalSection@ATL@@QAEJXZ
_TEXT	SEGMENT
?Term@CComCriticalSection@ATL@@QAEJXZ PROC		; ATL::CComCriticalSection::Term, COMDAT
; _this$ = ecx

; 155  : 		DeleteCriticalSection(&m_sec);

	push	ecx
	call	DWORD PTR __imp__DeleteCriticalSection@4

; 156  : 		return S_OK;

	xor	eax, eax

; 157  : 	}

	ret	0
?Term@CComCriticalSection@ATL@@QAEJXZ ENDP		; ATL::CComCriticalSection::Term
_TEXT	ENDS
; Function compile flags: /Ogtp
; File C:\Program Files (x86)\Microsoft Visual Studio\2019\Community\VC\Tools\MSVC\14.24.28314\atlmfc\include\atlcore.h
;	COMDAT ?GetModuleInstance@CAtlBaseModule@ATL@@QAEPAUHINSTANCE__@@XZ
_TEXT	SEGMENT
?GetModuleInstance@CAtlBaseModule@ATL@@QAEPAUHINSTANCE__@@XZ PROC ; ATL::CAtlBaseModule::GetModuleInstance, COMDAT
; _this$ = ecx

; 290  : 		return m_hInst;

	mov	eax, DWORD PTR [ecx+4]

; 291  : 	}

	ret	0
?GetModuleInstance@CAtlBaseModule@ATL@@QAEPAUHINSTANCE__@@XZ ENDP ; ATL::CAtlBaseModule::GetModuleInstance
_TEXT	ENDS
; Function compile flags: /Ogtp
; File C:\Program Files (x86)\Microsoft Visual Studio\2019\Community\VC\Tools\MSVC\14.24.28314\atlmfc\include\atlmem.h
;	COMDAT ??0CWin32Heap@ATL@@QAE@PAX@Z
_TEXT	SEGMENT
_hHeap$ = 8						; size = 4
??0CWin32Heap@ATL@@QAE@PAX@Z PROC			; ATL::CWin32Heap::CWin32Heap, COMDAT
; _this$ = ecx

; 89   : 	{

	push	ebp
	mov	ebp, esp

; 87   : 		m_hHeap( hHeap ),

	mov	eax, DWORD PTR _hHeap$[ebp]
	mov	DWORD PTR [ecx+4], eax

; 90   : 		ATLASSERT( hHeap != NULL );
; 91   : 	}

	mov	eax, ecx
	mov	DWORD PTR [ecx], OFFSET ??_7CWin32Heap@ATL@@6B@
	mov	BYTE PTR [ecx+8], 0
	pop	ebp
	ret	4
??0CWin32Heap@ATL@@QAE@PAX@Z ENDP			; ATL::CWin32Heap::CWin32Heap
_TEXT	ENDS
; Function compile flags: /Ogtp
; File C:\Program Files (x86)\Microsoft Visual Studio\2019\Community\VC\Tools\MSVC\14.24.28314\atlmfc\include\atlmem.h
;	COMDAT ??1CWin32Heap@ATL@@UAE@XZ
_TEXT	SEGMENT
??1CWin32Heap@ATL@@UAE@XZ PROC				; ATL::CWin32Heap::~CWin32Heap, COMDAT
; _this$ = ecx

; 110  : #ifdef _ATL_USE_WINAPI_FAMILY_DESKTOP_APP
; 111  : 		if( m_bOwnHeap && (m_hHeap != NULL) )

	cmp	BYTE PTR [ecx+8], 0
	mov	DWORD PTR [ecx], OFFSET ??_7CWin32Heap@ATL@@6B@
	je	SHORT $LN2@CWin32Heap
	mov	eax, DWORD PTR [ecx+4]
	test	eax, eax
	je	SHORT $LN2@CWin32Heap

; 112  : 		{
; 113  : 			BOOL bSuccess;
; 114  : 
; 115  : 			bSuccess = ::HeapDestroy( m_hHeap );

	push	eax
	call	DWORD PTR __imp__HeapDestroy@4
$LN2@CWin32Heap:

; 116  : 			ATLASSERT( bSuccess );
; 117  : 		}
; 118  : #endif
; 119  : 	}

	ret	0
??1CWin32Heap@ATL@@UAE@XZ ENDP				; ATL::CWin32Heap::~CWin32Heap
_TEXT	ENDS
; Function compile flags: /Ogtp
; File C:\Program Files (x86)\Microsoft Visual Studio\2019\Community\VC\Tools\MSVC\14.24.28314\atlmfc\include\atlmem.h
;	COMDAT ?Allocate@CWin32Heap@ATL@@UAEPAXI@Z
_TEXT	SEGMENT
_nBytes$ = 8						; size = 4
?Allocate@CWin32Heap@ATL@@UAEPAXI@Z PROC		; ATL::CWin32Heap::Allocate, COMDAT
; _this$ = ecx

; 144  : 	{

	push	ebp
	mov	ebp, esp

; 145  : 		return( ::HeapAlloc( m_hHeap, 0, nBytes ) );

	push	DWORD PTR _nBytes$[ebp]
	push	0
	push	DWORD PTR [ecx+4]
	call	DWORD PTR __imp__HeapAlloc@12

; 146  : 	}

	pop	ebp
	ret	4
?Allocate@CWin32Heap@ATL@@UAEPAXI@Z ENDP		; ATL::CWin32Heap::Allocate
_TEXT	ENDS
; Function compile flags: /Ogtp
; File C:\Program Files (x86)\Microsoft Visual Studio\2019\Community\VC\Tools\MSVC\14.24.28314\atlmfc\include\atlmem.h
;	COMDAT ?Free@CWin32Heap@ATL@@UAEXPAX@Z
_TEXT	SEGMENT
_p$ = 8							; size = 4
?Free@CWin32Heap@ATL@@UAEXPAX@Z PROC			; ATL::CWin32Heap::Free, COMDAT
; _this$ = ecx

; 148  : 	{

	push	ebp
	mov	ebp, esp

; 149  : 		if( p != NULL )

	mov	eax, DWORD PTR _p$[ebp]
	test	eax, eax
	je	SHORT $LN2@Free

; 150  : 		{
; 151  : 			BOOL bSuccess;
; 152  : 
; 153  : 			bSuccess = ::HeapFree( m_hHeap, 0, p );

	push	eax
	push	0
	push	DWORD PTR [ecx+4]
	call	DWORD PTR __imp__HeapFree@12
$LN2@Free:

; 154  : 			ATLASSERT( bSuccess );
; 155  : 		}
; 156  : 	}

	pop	ebp
	ret	4
?Free@CWin32Heap@ATL@@UAEXPAX@Z ENDP			; ATL::CWin32Heap::Free
_TEXT	ENDS
; Function compile flags: /Ogtp
; File C:\Program Files (x86)\Microsoft Visual Studio\2019\Community\VC\Tools\MSVC\14.24.28314\atlmfc\include\atlmem.h
;	COMDAT ?Reallocate@CWin32Heap@ATL@@UAEPAXPAXI@Z
_TEXT	SEGMENT
_p$ = 8							; size = 4
_nBytes$ = 12						; size = 4
?Reallocate@CWin32Heap@ATL@@UAEPAXPAXI@Z PROC		; ATL::CWin32Heap::Reallocate, COMDAT
; _this$ = ecx

; 160  : 	{

	push	ebp
	mov	ebp, esp

; 161  : 		if( p == NULL )

	mov	edx, DWORD PTR _p$[ebp]
	test	edx, edx
	jne	SHORT $LN2@Reallocate

; 162  : 		{
; 163  : 			return( Allocate( nBytes ) );

	mov	eax, DWORD PTR [ecx]
	push	DWORD PTR _nBytes$[ebp]
	call	DWORD PTR [eax]

; 173  : 	}

	pop	ebp
	ret	8
$LN2@Reallocate:

; 164  : 		}
; 165  : 
; 166  : 		if (nBytes==0)

	mov	eax, DWORD PTR _nBytes$[ebp]
	test	eax, eax
	jne	SHORT $LN3@Reallocate

; 167  : 		{
; 168  : 			  Free(p);

	mov	eax, DWORD PTR [ecx]
	push	edx
	call	DWORD PTR [eax+4]

; 169  : 			  return NULL;

	xor	eax, eax

; 173  : 	}

	pop	ebp
	ret	8
$LN3@Reallocate:

; 170  : 		}
; 171  : 
; 172  : 		return( ::HeapReAlloc( m_hHeap, 0, p, nBytes ) );

	push	eax
	push	edx
	push	0
	push	DWORD PTR [ecx+4]
	call	DWORD PTR __imp__HeapReAlloc@16

; 173  : 	}

	pop	ebp
	ret	8
?Reallocate@CWin32Heap@ATL@@UAEPAXPAXI@Z ENDP		; ATL::CWin32Heap::Reallocate
_TEXT	ENDS
; Function compile flags: /Ogtp
; File C:\Program Files (x86)\Microsoft Visual Studio\2019\Community\VC\Tools\MSVC\14.24.28314\atlmfc\include\atlmem.h
;	COMDAT ?GetSize@CWin32Heap@ATL@@UAEIPAX@Z
_TEXT	SEGMENT
_p$ = 8							; size = 4
?GetSize@CWin32Heap@ATL@@UAEIPAX@Z PROC			; ATL::CWin32Heap::GetSize, COMDAT
; _this$ = ecx

; 175  : 	{

	push	ebp
	mov	ebp, esp

; 176  : 		return( ::HeapSize( m_hHeap, 0, p ) );

	push	DWORD PTR _p$[ebp]
	push	0
	push	DWORD PTR [ecx+4]
	call	DWORD PTR __imp__HeapSize@12

; 177  : 	}

	pop	ebp
	ret	4
?GetSize@CWin32Heap@ATL@@UAEIPAX@Z ENDP			; ATL::CWin32Heap::GetSize
_TEXT	ENDS
; Function compile flags: /Ogtp
; File C:\Program Files (x86)\Microsoft Visual Studio\2019\Community\VC\Tools\MSVC\14.24.28314\atlmfc\include\atlmem.h
;	COMDAT ??_GCWin32Heap@ATL@@UAEPAXI@Z
_TEXT	SEGMENT
___flags$ = 8						; size = 4
??_GCWin32Heap@ATL@@UAEPAXI@Z PROC			; ATL::CWin32Heap::`scalar deleting destructor', COMDAT
; _this$ = ecx
	push	ebp
	mov	ebp, esp

; 109  : 	{

	push	esi
	mov	esi, ecx

; 110  : #ifdef _ATL_USE_WINAPI_FAMILY_DESKTOP_APP
; 111  : 		if( m_bOwnHeap && (m_hHeap != NULL) )

	cmp	BYTE PTR [esi+8], 0
	mov	DWORD PTR [esi], OFFSET ??_7CWin32Heap@ATL@@6B@
	je	SHORT $LN5@scalar
	mov	eax, DWORD PTR [esi+4]
	test	eax, eax
	je	SHORT $LN5@scalar

; 112  : 		{
; 113  : 			BOOL bSuccess;
; 114  : 
; 115  : 			bSuccess = ::HeapDestroy( m_hHeap );

	push	eax
	call	DWORD PTR __imp__HeapDestroy@4
$LN5@scalar:
	test	BYTE PTR ___flags$[ebp], 1
	je	SHORT $LN7@scalar
	push	12					; 0000000cH
	push	esi
	call	??3@YAXPAXI@Z				; operator delete
	add	esp, 8
$LN7@scalar:
	mov	eax, esi
	pop	esi
	pop	ebp
	ret	4
??_GCWin32Heap@ATL@@UAEPAXI@Z ENDP			; ATL::CWin32Heap::`scalar deleting destructor'
_TEXT	ENDS
; Function compile flags: /Ogtp
; File C:\Program Files (x86)\Microsoft Visual Studio\2019\Community\VC\Tools\MSVC\14.24.28314\atlmfc\include\atlsimpstr.h
;	COMDAT ?AddRef@CStringData@ATL@@QAEXXZ
_TEXT	SEGMENT
?AddRef@CStringData@ATL@@QAEXXZ PROC			; ATL::CStringData::AddRef, COMDAT
; _this$ = ecx

; 64   : 		ATLASSERT(nRefs > 0);
; 65   : 		_InterlockedIncrement(&nRefs);

	lock	 inc	 DWORD PTR [ecx+12]

; 66   : 	}

	ret	0
?AddRef@CStringData@ATL@@QAEXXZ ENDP			; ATL::CStringData::AddRef
_TEXT	ENDS
; Function compile flags: /Ogtp
; File C:\Program Files (x86)\Microsoft Visual Studio\2019\Community\VC\Tools\MSVC\14.24.28314\atlmfc\include\atlsimpstr.h
;	COMDAT ??0CNilStringData@ATL@@QAE@XZ
_TEXT	SEGMENT
??0CNilStringData@ATL@@QAE@XZ PROC			; ATL::CNilStringData::CNilStringData, COMDAT
; _this$ = ecx

; 113  : 	{
; 114  : 		pStringMgr = NULL;
; 115  : 		nRefs = 2;  // Never gets freed by IAtlStringMgr
; 116  : 		nDataLength = 0;
; 117  : 		nAllocLength = 0;
; 118  : 		achNil[0] = 0;

	xor	eax, eax
	mov	DWORD PTR [ecx], 0
	mov	DWORD PTR [ecx+16], eax

; 119  : 		achNil[1] = 0;
; 120  : 	}

	mov	eax, ecx
	mov	DWORD PTR [ecx+12], 2
	mov	DWORD PTR [ecx+4], 0
	mov	DWORD PTR [ecx+8], 0
	ret	0
??0CNilStringData@ATL@@QAE@XZ ENDP			; ATL::CNilStringData::CNilStringData
_TEXT	ENDS
; Function compile flags: /Ogtp
; File C:\Program Files (x86)\Microsoft Visual Studio\2019\Community\VC\Tools\MSVC\14.24.28314\atlmfc\include\atlsimpstr.h
;	COMDAT ?SetManager@CNilStringData@ATL@@QAEXPAUIAtlStringMgr@2@@Z
_TEXT	SEGMENT
_pMgr$ = 8						; size = 4
?SetManager@CNilStringData@ATL@@QAEXPAUIAtlStringMgr@2@@Z PROC ; ATL::CNilStringData::SetManager, COMDAT
; _this$ = ecx

; 123  : 	{

	push	ebp
	mov	ebp, esp

; 124  : 		ATLASSERT( pStringMgr == NULL );
; 125  : 		pStringMgr = pMgr;

	mov	eax, DWORD PTR _pMgr$[ebp]
	mov	DWORD PTR [ecx], eax

; 126  : 	}

	pop	ebp
	ret	4
?SetManager@CNilStringData@ATL@@QAEXPAUIAtlStringMgr@2@@Z ENDP ; ATL::CNilStringData::SetManager
_TEXT	ENDS
; Function compile flags: /Ogtp
; File C:\Program Files (x86)\Microsoft Visual Studio\2019\Community\VC\Tools\MSVC\14.24.28314\atlmfc\include\afx.inl
;	COMDAT ?_AfxInitManaged@@YAHXZ
_TEXT	SEGMENT
?_AfxInitManaged@@YAHXZ PROC				; _AfxInitManaged, COMDAT

; 87   : 	return 0;

	xor	eax, eax

; 88   : }

	ret	0
?_AfxInitManaged@@YAHXZ ENDP				; _AfxInitManaged
_TEXT	ENDS
; Function compile flags: /Ogtp
; File C:\Program Files (x86)\Microsoft Visual Studio\2019\Community\VC\Tools\MSVC\14.24.28314\atlmfc\include\atlbase.h
; File C:\Program Files (x86)\Microsoft Visual Studio\2019\Community\VC\Tools\MSVC\14.24.28314\atlmfc\include\atlcore.h
; File C:\Program Files (x86)\Microsoft Visual Studio\2019\Community\VC\Tools\MSVC\14.24.28314\atlmfc\include\atlwinverapi.h
; File C:\Program Files (x86)\Microsoft Visual Studio\2019\Community\VC\Tools\MSVC\14.24.28314\atlmfc\include\atlcore.h
; File C:\Program Files (x86)\Microsoft Visual Studio\2019\Community\VC\Tools\MSVC\14.24.28314\atlmfc\include\atlwinverapi.h
; File C:\Program Files (x86)\Microsoft Visual Studio\2019\Community\VC\Tools\MSVC\14.24.28314\atlmfc\include\atlbase.h
; File C:\Program Files (x86)\Microsoft Visual Studio\2019\Community\VC\Tools\MSVC\14.24.28314\atlmfc\include\atlwinverapi.h
; File C:\Program Files (x86)\Microsoft Visual Studio\2019\Community\VC\Tools\MSVC\14.24.28314\atlmfc\include\atlcore.h
; File C:\Program Files (x86)\Windows Kits\10\Include\10.0.18362.0\shared\winerror.h
; File C:\Program Files (x86)\Microsoft Visual Studio\2019\Community\VC\Tools\MSVC\14.24.28314\atlmfc\include\atlbase.h
;	COMDAT ??0CAtlComModule@ATL@@QAE@XZ
_TEXT	SEGMENT
??0CAtlComModule@ATL@@QAE@XZ PROC			; ATL::CAtlComModule::CAtlComModule, COMDAT
; _this$ = ecx

; 2586 : 	CAtlComModule() throw()

	push	esi
	mov	esi, ecx
	xorps	xmm0, xmm0
	lea	eax, DWORD PTR [esi+16]
; File C:\Program Files (x86)\Microsoft Visual Studio\2019\Community\VC\Tools\MSVC\14.24.28314\atlmfc\include\atlcore.h

; 125  : 		memset(&m_sec, 0, sizeof(CRITICAL_SECTION));

	movups	XMMWORD PTR [eax], xmm0
; File C:\Program Files (x86)\Microsoft Visual Studio\2019\Community\VC\Tools\MSVC\14.24.28314\atlmfc\include\atlwinverapi.h

; 730  : 	return ::InitializeCriticalSectionEx(lpCriticalSection, dwSpinCount, Flags);

	push	0
; File C:\Program Files (x86)\Microsoft Visual Studio\2019\Community\VC\Tools\MSVC\14.24.28314\atlmfc\include\atlcore.h

; 125  : 		memset(&m_sec, 0, sizeof(CRITICAL_SECTION));

	movq	QWORD PTR [eax+16], xmm0
; File C:\Program Files (x86)\Microsoft Visual Studio\2019\Community\VC\Tools\MSVC\14.24.28314\atlmfc\include\atlwinverapi.h

; 730  : 	return ::InitializeCriticalSectionEx(lpCriticalSection, dwSpinCount, Flags);

	push	0
	push	eax
; File C:\Program Files (x86)\Microsoft Visual Studio\2019\Community\VC\Tools\MSVC\14.24.28314\atlmfc\include\atlbase.h

; 2588 : 		cbSize = 0;

	mov	DWORD PTR [esi], 0

; 2589 : 
; 2590 : 		m_hInstTypeLib = reinterpret_cast<HINSTANCE>(&__ImageBase);

	mov	DWORD PTR [esi+4], OFFSET ___ImageBase

; 2591 : 
; 2592 : 		m_ppAutoObjMapFirst = &__pobjMapEntryFirst + 1;

	mov	DWORD PTR [esi+8], OFFSET ___pobjMapEntryFirst+4

; 2593 : 		m_ppAutoObjMapLast = &__pobjMapEntryLast;

	mov	DWORD PTR [esi+12], OFFSET ___pobjMapEntryLast
; File C:\Program Files (x86)\Microsoft Visual Studio\2019\Community\VC\Tools\MSVC\14.24.28314\atlmfc\include\atlwinverapi.h

; 730  : 	return ::InitializeCriticalSectionEx(lpCriticalSection, dwSpinCount, Flags);

	call	DWORD PTR __imp__InitializeCriticalSectionEx@12
; File C:\Program Files (x86)\Microsoft Visual Studio\2019\Community\VC\Tools\MSVC\14.24.28314\atlmfc\include\atlcore.h

; 145  : 		if (!_AtlInitializeCriticalSectionEx(&m_sec, 0, 0))

	test	eax, eax
	jne	SHORT $LN2@CAtlComMod

; 146  : 		{
; 147  : 			hRes = HRESULT_FROM_WIN32(GetLastError());

	call	DWORD PTR __imp__GetLastError@0
; File C:\Program Files (x86)\Windows Kits\10\Include\10.0.18362.0\shared\winerror.h

; 28857: FORCEINLINE _Translates_Win32_to_HRESULT_(x) HRESULT HRESULT_FROM_WIN32(unsigned long x) { return (HRESULT)(x) <= 0 ? (HRESULT)(x) : (HRESULT) (((x) & 0x0000FFFF) | (FACILITY_WIN32 << 16) | 0x80000000);}

	test	eax, eax
	jle	SHORT $LN18@CAtlComMod
	movzx	eax, ax
	or	eax, -2147024896			; 80070000H
; File C:\Program Files (x86)\Microsoft Visual Studio\2019\Community\VC\Tools\MSVC\14.24.28314\atlmfc\include\atlbase.h

; 2595 : 		if (FAILED(m_csObjMap.Init()))

	test	eax, eax
$LN18@CAtlComMod:
	jns	SHORT $LN2@CAtlComMod

; 2604 : 	}

	mov	eax, esi
	mov	BYTE PTR ?m_bInitFailed@CAtlBaseModule@ATL@@2_NA, 1 ; ATL::CAtlBaseModule::m_bInitFailed
	pop	esi
	ret	0
$LN2@CAtlComMod:

; 2596 : 		{
; 2597 : 			ATLTRACE(atlTraceCOM, 0, _T("ERROR : Unable to initialize critical section in CAtlComModule\n"));
; 2598 : 			ATLASSERT(0);
; 2599 : 			CAtlBaseModule::m_bInitFailed = true;
; 2600 : 			return;
; 2601 : 		}
; 2602 : 		// Set cbSize on success.
; 2603 : 		cbSize = sizeof(_ATL_COM_MODULE);

	mov	DWORD PTR [esi], 40			; 00000028H

; 2604 : 	}

	mov	eax, esi
	pop	esi
	ret	0
??0CAtlComModule@ATL@@QAE@XZ ENDP			; ATL::CAtlComModule::CAtlComModule
_TEXT	ENDS
; Function compile flags: /Ogtp
; File C:\Program Files (x86)\Microsoft Visual Studio\2019\Community\VC\Tools\MSVC\14.24.28314\atlmfc\include\atlbase.h
; File C:\Program Files (x86)\Microsoft Visual Studio\2019\Community\VC\Tools\MSVC\14.24.28314\atlmfc\include\atlcore.h
; File C:\Program Files (x86)\Microsoft Visual Studio\2019\Community\VC\Tools\MSVC\14.24.28314\atlmfc\include\atlbase.h
;	COMDAT ??1CAtlComModule@ATL@@QAE@XZ
_TEXT	SEGMENT
__$EHRec$ = -12						; size = 12
??1CAtlComModule@ATL@@QAE@XZ PROC			; ATL::CAtlComModule::~CAtlComModule, COMDAT
; _this$ = ecx

; 2607 : 	{

	push	ebp
	mov	ebp, esp
	push	-1
	push	__ehhandler$??1CAtlComModule@ATL@@QAE@XZ
	mov	eax, DWORD PTR fs:0
	push	eax
	push	ebx
	push	esi
	push	edi
	mov	eax, DWORD PTR ___security_cookie
	xor	eax, ebp
	push	eax
	lea	eax, DWORD PTR __$EHRec$[ebp]
	mov	DWORD PTR fs:0, eax
	mov	edi, ecx

; 2614 : 		if (cbSize == 0)

	cmp	DWORD PTR [edi], 0
	je	SHORT $LN3@CAtlComMod

; 2615 : 			return;
; 2616 : 
; 2617 : 		for (_ATL_OBJMAP_ENTRY_EX** ppEntry = m_ppAutoObjMapFirst; ppEntry < m_ppAutoObjMapLast; ppEntry++)

	mov	esi, DWORD PTR [edi+8]
	cmp	esi, DWORD PTR [edi+12]
	jae	SHORT $LN5@CAtlComMod
$LL6@CAtlComMod:

; 2618 : 		{
; 2619 : 			if (*ppEntry != NULL)

	mov	eax, DWORD PTR [esi]
	test	eax, eax
	je	SHORT $LN4@CAtlComMod

; 2620 : 			{
; 2621 : 				_ATL_OBJMAP_CACHE* pCache = (**ppEntry).pCache;

	mov	ebx, DWORD PTR [eax+16]

; 2622 : 
; 2623 : 				if (pCache->pCF != NULL)

	mov	eax, DWORD PTR [ebx]
	test	eax, eax
	je	SHORT $LN4@CAtlComMod

; 2624 : 				{
; 2625 : 					// Decode factory pointer if it's not null
; 2626 : 					IUnknown *factory = reinterpret_cast<IUnknown*>(::DecodePointer(pCache->pCF));

	push	eax
	call	DWORD PTR __imp__DecodePointer@4

; 2627 : 					_Analysis_assume_(factory != nullptr);
; 2628 : 					factory->Release();

	push	eax
	mov	ecx, DWORD PTR [eax]
	call	DWORD PTR [ecx+8]

; 2629 : 					pCache->pCF = NULL;

	mov	DWORD PTR [ebx], 0
$LN4@CAtlComMod:

; 2615 : 			return;
; 2616 : 
; 2617 : 		for (_ATL_OBJMAP_ENTRY_EX** ppEntry = m_ppAutoObjMapFirst; ppEntry < m_ppAutoObjMapLast; ppEntry++)

	add	esi, 4
	cmp	esi, DWORD PTR [edi+12]
	jb	SHORT $LL6@CAtlComMod
$LN5@CAtlComMod:
; File C:\Program Files (x86)\Microsoft Visual Studio\2019\Community\VC\Tools\MSVC\14.24.28314\atlmfc\include\atlcore.h

; 155  : 		DeleteCriticalSection(&m_sec);

	lea	eax, DWORD PTR [edi+16]
	push	eax
	call	DWORD PTR __imp__DeleteCriticalSection@4
; File C:\Program Files (x86)\Microsoft Visual Studio\2019\Community\VC\Tools\MSVC\14.24.28314\atlmfc\include\atlbase.h

; 2637 : 		cbSize = 0;

	mov	DWORD PTR [edi], 0
$LN3@CAtlComMod:

; 2608 : 		Term();
; 2609 : 	}

	mov	ecx, DWORD PTR __$EHRec$[ebp]
	mov	DWORD PTR fs:0, ecx
	pop	ecx
	pop	edi
	pop	esi
	pop	ebx
	mov	esp, ebp
	pop	ebp
	ret	0
_TEXT	ENDS
;	COMDAT text$x
text$x	SEGMENT
__ehhandler$??1CAtlComModule@ATL@@QAE@XZ:
	mov	edx, DWORD PTR [esp+8]
	lea	eax, DWORD PTR [edx+12]
	mov	ecx, DWORD PTR [edx-16]
	xor	ecx, eax
	call	@__security_check_cookie@4
	mov	eax, OFFSET __ehfuncinfo$??1CAtlComModule@ATL@@QAE@XZ
	jmp	___CxxFrameHandler3
text$x	ENDS
??1CAtlComModule@ATL@@QAE@XZ ENDP			; ATL::CAtlComModule::~CAtlComModule
; Function compile flags: /Ogtp
; File C:\Program Files (x86)\Microsoft Visual Studio\2019\Community\VC\Tools\MSVC\14.24.28314\atlmfc\include\atlbase.h
; File C:\Program Files (x86)\Microsoft Visual Studio\2019\Community\VC\Tools\MSVC\14.24.28314\atlmfc\include\atlcore.h
; File C:\Program Files (x86)\Microsoft Visual Studio\2019\Community\VC\Tools\MSVC\14.24.28314\atlmfc\include\atlbase.h
;	COMDAT ?Term@CAtlComModule@ATL@@QAEXXZ
_TEXT	SEGMENT
?Term@CAtlComModule@ATL@@QAEXXZ PROC			; ATL::CAtlComModule::Term, COMDAT
; _this$ = ecx

; 2613 : 	{

	push	edi
	mov	edi, ecx

; 2614 : 		if (cbSize == 0)

	cmp	DWORD PTR [edi], 0
	je	SHORT $LN1@Term

; 2615 : 			return;
; 2616 : 
; 2617 : 		for (_ATL_OBJMAP_ENTRY_EX** ppEntry = m_ppAutoObjMapFirst; ppEntry < m_ppAutoObjMapLast; ppEntry++)

	push	esi
	mov	esi, DWORD PTR [edi+8]
	cmp	esi, DWORD PTR [edi+12]
	jae	SHORT $LN3@Term
	push	ebx
$LL4@Term:

; 2618 : 		{
; 2619 : 			if (*ppEntry != NULL)

	mov	eax, DWORD PTR [esi]
	test	eax, eax
	je	SHORT $LN2@Term

; 2620 : 			{
; 2621 : 				_ATL_OBJMAP_CACHE* pCache = (**ppEntry).pCache;

	mov	ebx, DWORD PTR [eax+16]

; 2622 : 
; 2623 : 				if (pCache->pCF != NULL)

	mov	eax, DWORD PTR [ebx]
	test	eax, eax
	je	SHORT $LN2@Term

; 2624 : 				{
; 2625 : 					// Decode factory pointer if it's not null
; 2626 : 					IUnknown *factory = reinterpret_cast<IUnknown*>(::DecodePointer(pCache->pCF));

	push	eax
	call	DWORD PTR __imp__DecodePointer@4

; 2627 : 					_Analysis_assume_(factory != nullptr);
; 2628 : 					factory->Release();

	push	eax
	mov	ecx, DWORD PTR [eax]
	call	DWORD PTR [ecx+8]

; 2629 : 					pCache->pCF = NULL;

	mov	DWORD PTR [ebx], 0
$LN2@Term:

; 2615 : 			return;
; 2616 : 
; 2617 : 		for (_ATL_OBJMAP_ENTRY_EX** ppEntry = m_ppAutoObjMapFirst; ppEntry < m_ppAutoObjMapLast; ppEntry++)

	add	esi, 4
	cmp	esi, DWORD PTR [edi+12]
	jb	SHORT $LL4@Term
	pop	ebx
$LN3@Term:
; File C:\Program Files (x86)\Microsoft Visual Studio\2019\Community\VC\Tools\MSVC\14.24.28314\atlmfc\include\atlcore.h

; 155  : 		DeleteCriticalSection(&m_sec);

	lea	eax, DWORD PTR [edi+16]
	push	eax
	call	DWORD PTR __imp__DeleteCriticalSection@4
; File C:\Program Files (x86)\Microsoft Visual Studio\2019\Community\VC\Tools\MSVC\14.24.28314\atlmfc\include\atlbase.h

; 2637 : 		cbSize = 0;

	mov	DWORD PTR [edi], 0
	pop	esi
$LN1@Term:

; 2638 : 	}

	pop	edi
	ret	0
?Term@CAtlComModule@ATL@@QAEXXZ ENDP			; ATL::CAtlComModule::Term
_TEXT	ENDS
; Function compile flags: /Ogtp
; File C:\Program Files (x86)\Microsoft Visual Studio\2019\Community\VC\Tools\MSVC\14.24.28314\atlmfc\include\atlcore.h
;	COMDAT ??0_ATL_COM_MODULE70@ATL@@QAE@XZ
_TEXT	SEGMENT
??0_ATL_COM_MODULE70@ATL@@QAE@XZ PROC			; ATL::_ATL_COM_MODULE70::_ATL_COM_MODULE70, COMDAT
; _this$ = ecx
	xorps	xmm0, xmm0
	mov	eax, ecx

; 125  : 		memset(&m_sec, 0, sizeof(CRITICAL_SECTION));

	movups	XMMWORD PTR [ecx+16], xmm0
	movq	QWORD PTR [ecx+32], xmm0
	ret	0
??0_ATL_COM_MODULE70@ATL@@QAE@XZ ENDP			; ATL::_ATL_COM_MODULE70::_ATL_COM_MODULE70
_TEXT	ENDS
; Function compile flags: /Ogtp
;	COMDAT ??1_ATL_COM_MODULE70@ATL@@QAE@XZ
_TEXT	SEGMENT
??1_ATL_COM_MODULE70@ATL@@QAE@XZ PROC			; ATL::_ATL_COM_MODULE70::~_ATL_COM_MODULE70, COMDAT
; _this$ = ecx
	ret	0
??1_ATL_COM_MODULE70@ATL@@QAE@XZ ENDP			; ATL::_ATL_COM_MODULE70::~_ATL_COM_MODULE70
_TEXT	ENDS
; Function compile flags: /Ogtp
; File C:\Program Files (x86)\Microsoft Visual Studio\2019\Community\VC\Tools\MSVC\14.24.28314\atlmfc\include\atlbase.h
; File C:\Program Files (x86)\Microsoft Visual Studio\2019\Community\VC\Tools\MSVC\14.24.28314\atlmfc\include\atlwinverapi.h
; File C:\Program Files (x86)\Microsoft Visual Studio\2019\Community\VC\Tools\MSVC\14.24.28314\atlmfc\include\atlcore.h
; File C:\Program Files (x86)\Windows Kits\10\Include\10.0.18362.0\shared\winerror.h
; File C:\Program Files (x86)\Microsoft Visual Studio\2019\Community\VC\Tools\MSVC\14.24.28314\atlmfc\include\atlbase.h
;	COMDAT ??__E_AtlComModule@ATL@@YAXXZ
text$di	SEGMENT
??__E_AtlComModule@ATL@@YAXXZ PROC			; ATL::`dynamic initializer for '_AtlComModule'', COMDAT
; File C:\Program Files (x86)\Microsoft Visual Studio\2019\Community\VC\Tools\MSVC\14.24.28314\atlmfc\include\atlwinverapi.h

; 730  : 	return ::InitializeCriticalSectionEx(lpCriticalSection, dwSpinCount, Flags);

	push	0
	push	0
	push	OFFSET ?_AtlComModule@ATL@@3VCAtlComModule@1@A+16
	call	DWORD PTR __imp__InitializeCriticalSectionEx@12
; File C:\Program Files (x86)\Microsoft Visual Studio\2019\Community\VC\Tools\MSVC\14.24.28314\atlmfc\include\atlcore.h

; 145  : 		if (!_AtlInitializeCriticalSectionEx(&m_sec, 0, 0))

	test	eax, eax
	jne	SHORT $LN4@dynamic

; 146  : 		{
; 147  : 			hRes = HRESULT_FROM_WIN32(GetLastError());

	call	DWORD PTR __imp__GetLastError@0
; File C:\Program Files (x86)\Windows Kits\10\Include\10.0.18362.0\shared\winerror.h

; 28857: FORCEINLINE _Translates_Win32_to_HRESULT_(x) HRESULT HRESULT_FROM_WIN32(unsigned long x) { return (HRESULT)(x) <= 0 ? (HRESULT)(x) : (HRESULT) (((x) & 0x0000FFFF) | (FACILITY_WIN32 << 16) | 0x80000000);}

	test	eax, eax
	jle	SHORT $LN20@dynamic
	movzx	eax, ax
	or	eax, -2147024896			; 80070000H
; File C:\Program Files (x86)\Microsoft Visual Studio\2019\Community\VC\Tools\MSVC\14.24.28314\atlmfc\include\atlbase.h

; 2595 : 		if (FAILED(m_csObjMap.Init()))

	test	eax, eax
$LN20@dynamic:
	jns	SHORT $LN4@dynamic

; 2716 : __declspec(selectany) CAtlComModule _AtlComModule;

	push	OFFSET ??__F_AtlComModule@ATL@@YAXXZ	; ATL::`dynamic atexit destructor for '_AtlComModule''

; 2599 : 			CAtlBaseModule::m_bInitFailed = true;

	mov	BYTE PTR ?m_bInitFailed@CAtlBaseModule@ATL@@2_NA, 1 ; ATL::CAtlBaseModule::m_bInitFailed

; 2716 : __declspec(selectany) CAtlComModule _AtlComModule;

	call	_atexit
	pop	ecx
	ret	0
$LN4@dynamic:
	push	OFFSET ??__F_AtlComModule@ATL@@YAXXZ	; ATL::`dynamic atexit destructor for '_AtlComModule''

; 2603 : 		cbSize = sizeof(_ATL_COM_MODULE);

	mov	DWORD PTR ?_AtlComModule@ATL@@3VCAtlComModule@1@A, 40 ; 00000028H

; 2716 : __declspec(selectany) CAtlComModule _AtlComModule;

	call	_atexit
	pop	ecx
	ret	0
??__E_AtlComModule@ATL@@YAXXZ ENDP			; ATL::`dynamic initializer for '_AtlComModule''
text$di	ENDS
; Function compile flags: /Ogtp
; File C:\Program Files (x86)\Microsoft Visual Studio\2019\Community\VC\Tools\MSVC\14.24.28314\atlmfc\include\atlbase.h
; File C:\Program Files (x86)\Microsoft Visual Studio\2019\Community\VC\Tools\MSVC\14.24.28314\atlmfc\include\atlcore.h
; File C:\Program Files (x86)\Microsoft Visual Studio\2019\Community\VC\Tools\MSVC\14.24.28314\atlmfc\include\atlbase.h
;	COMDAT ??__F_AtlComModule@ATL@@YAXXZ
text$yd	SEGMENT
__$EHRec$ = -12						; size = 12
??__F_AtlComModule@ATL@@YAXXZ PROC			; ATL::`dynamic atexit destructor for '_AtlComModule'', COMDAT
	push	ebp
	mov	ebp, esp
	push	-1
	push	__ehhandler$??__F_AtlComModule@ATL@@YAXXZ
	mov	eax, DWORD PTR fs:0
	push	eax
	push	ebx
	push	esi
	push	edi
	mov	eax, DWORD PTR ___security_cookie
	xor	eax, ebp
	push	eax
	lea	eax, DWORD PTR __$EHRec$[ebp]
	mov	DWORD PTR fs:0, eax

; 2607 : 	{

	mov	DWORD PTR __$EHRec$[ebp+8], 0

; 2614 : 		if (cbSize == 0)

	cmp	DWORD PTR ?_AtlComModule@ATL@@3VCAtlComModule@1@A, 0
	je	SHORT $LN6@dynamic

; 2615 : 			return;
; 2616 : 
; 2617 : 		for (_ATL_OBJMAP_ENTRY_EX** ppEntry = m_ppAutoObjMapFirst; ppEntry < m_ppAutoObjMapLast; ppEntry++)

	mov	esi, DWORD PTR ?_AtlComModule@ATL@@3VCAtlComModule@1@A+8
	mov	ecx, DWORD PTR ?_AtlComModule@ATL@@3VCAtlComModule@1@A+12
	cmp	esi, ecx
	jae	SHORT $LN8@dynamic
	mov	ebx, DWORD PTR __imp__DecodePointer@4
	npad	5
$LL9@dynamic:

; 2618 : 		{
; 2619 : 			if (*ppEntry != NULL)

	mov	eax, DWORD PTR [esi]
	test	eax, eax
	je	SHORT $LN7@dynamic

; 2620 : 			{
; 2621 : 				_ATL_OBJMAP_CACHE* pCache = (**ppEntry).pCache;

	mov	edi, DWORD PTR [eax+16]

; 2622 : 
; 2623 : 				if (pCache->pCF != NULL)

	mov	eax, DWORD PTR [edi]
	test	eax, eax
	je	SHORT $LN7@dynamic

; 2624 : 				{
; 2625 : 					// Decode factory pointer if it's not null
; 2626 : 					IUnknown *factory = reinterpret_cast<IUnknown*>(::DecodePointer(pCache->pCF));

	push	eax
	call	ebx

; 2627 : 					_Analysis_assume_(factory != nullptr);
; 2628 : 					factory->Release();

	push	eax
	mov	ecx, DWORD PTR [eax]
	call	DWORD PTR [ecx+8]

; 2629 : 					pCache->pCF = NULL;

	mov	DWORD PTR [edi], 0
	mov	ecx, DWORD PTR ?_AtlComModule@ATL@@3VCAtlComModule@1@A+12
$LN7@dynamic:

; 2615 : 			return;
; 2616 : 
; 2617 : 		for (_ATL_OBJMAP_ENTRY_EX** ppEntry = m_ppAutoObjMapFirst; ppEntry < m_ppAutoObjMapLast; ppEntry++)

	add	esi, 4
	cmp	esi, ecx
	jb	SHORT $LL9@dynamic
$LN8@dynamic:
; File C:\Program Files (x86)\Microsoft Visual Studio\2019\Community\VC\Tools\MSVC\14.24.28314\atlmfc\include\atlcore.h

; 155  : 		DeleteCriticalSection(&m_sec);

	push	OFFSET ?_AtlComModule@ATL@@3VCAtlComModule@1@A+16
	call	DWORD PTR __imp__DeleteCriticalSection@4
; File C:\Program Files (x86)\Microsoft Visual Studio\2019\Community\VC\Tools\MSVC\14.24.28314\atlmfc\include\atlbase.h

; 2637 : 		cbSize = 0;

	mov	DWORD PTR ?_AtlComModule@ATL@@3VCAtlComModule@1@A, 0
$LN6@dynamic:
	mov	ecx, DWORD PTR __$EHRec$[ebp]
	mov	DWORD PTR fs:0, ecx
	pop	ecx
	pop	edi
	pop	esi
	pop	ebx
	mov	esp, ebp
	pop	ebp
	ret	0
text$yd	ENDS
;	COMDAT text$x
text$x	SEGMENT
__ehhandler$??__F_AtlComModule@ATL@@YAXXZ:
	mov	edx, DWORD PTR [esp+8]
	lea	eax, DWORD PTR [edx+12]
	mov	ecx, DWORD PTR [edx-16]
	xor	ecx, eax
	call	@__security_check_cookie@4
	mov	eax, OFFSET __ehfuncinfo$??__F_AtlComModule@ATL@@YAXXZ
	jmp	___CxxFrameHandler3
text$x	ENDS
??__F_AtlComModule@ATL@@YAXXZ ENDP			; ATL::`dynamic atexit destructor for '_AtlComModule''
; Function compile flags: /Ogtp
; File C:\Program Files (x86)\Microsoft Visual Studio\2019\Community\VC\Tools\MSVC\14.24.28314\atlmfc\include\atlbase.h
; File C:\Program Files (x86)\Microsoft Visual Studio\2019\Community\VC\Tools\MSVC\14.24.28314\atlmfc\include\atlcore.h
; File C:\Program Files (x86)\Microsoft Visual Studio\2019\Community\VC\Tools\MSVC\14.24.28314\atlmfc\include\atlwinverapi.h
; File C:\Program Files (x86)\Microsoft Visual Studio\2019\Community\VC\Tools\MSVC\14.24.28314\atlmfc\include\atlsimpcoll.h
; File C:\Program Files (x86)\Microsoft Visual Studio\2019\Community\VC\Tools\MSVC\14.24.28314\atlmfc\include\atlwinverapi.h
; File C:\Program Files (x86)\Microsoft Visual Studio\2019\Community\VC\Tools\MSVC\14.24.28314\atlmfc\include\atlbase.h
; File C:\Program Files (x86)\Microsoft Visual Studio\2019\Community\VC\Tools\MSVC\14.24.28314\atlmfc\include\atlwinverapi.h
; File C:\Program Files (x86)\Microsoft Visual Studio\2019\Community\VC\Tools\MSVC\14.24.28314\atlmfc\include\atlcore.h
; File C:\Program Files (x86)\Windows Kits\10\Include\10.0.18362.0\shared\winerror.h
; File C:\Program Files (x86)\Microsoft Visual Studio\2019\Community\VC\Tools\MSVC\14.24.28314\atlmfc\include\atlbase.h
;	COMDAT ??0CAtlWinModule@ATL@@QAE@XZ
_TEXT	SEGMENT
??0CAtlWinModule@ATL@@QAE@XZ PROC			; ATL::CAtlWinModule::CAtlWinModule, COMDAT
; _this$ = ecx

; 2937 : 	CAtlWinModule()

	push	esi
	mov	esi, ecx
	xorps	xmm0, xmm0
; File C:\Program Files (x86)\Microsoft Visual Studio\2019\Community\VC\Tools\MSVC\14.24.28314\atlmfc\include\atlcore.h

; 125  : 		memset(&m_sec, 0, sizeof(CRITICAL_SECTION));

	movups	XMMWORD PTR [esi+4], xmm0
	lea	eax, DWORD PTR [esi+4]
	movq	QWORD PTR [eax+16], xmm0
; File C:\Program Files (x86)\Microsoft Visual Studio\2019\Community\VC\Tools\MSVC\14.24.28314\atlmfc\include\atlwinverapi.h

; 730  : 	return ::InitializeCriticalSectionEx(lpCriticalSection, dwSpinCount, Flags);

	push	0
	push	0
; File C:\Program Files (x86)\Microsoft Visual Studio\2019\Community\VC\Tools\MSVC\14.24.28314\atlmfc\include\atlsimpcoll.h

; 119  : 		m_aT(NULL), m_nSize(0), m_nAllocSize(0)

	mov	DWORD PTR [esi+32], 0
	mov	DWORD PTR [esi+36], 0
	mov	DWORD PTR [esi+40], 0
; File C:\Program Files (x86)\Microsoft Visual Studio\2019\Community\VC\Tools\MSVC\14.24.28314\atlmfc\include\atlwinverapi.h

; 730  : 	return ::InitializeCriticalSectionEx(lpCriticalSection, dwSpinCount, Flags);

	push	eax
; File C:\Program Files (x86)\Microsoft Visual Studio\2019\Community\VC\Tools\MSVC\14.24.28314\atlmfc\include\atlbase.h

; 2939 : 		cbSize = sizeof(_ATL_WIN_MODULE);

	mov	DWORD PTR [esi], 44			; 0000002cH

; 8404 : 	pWinModule->m_pCreateWndList = NULL;

	mov	DWORD PTR [esi+28], 0
; File C:\Program Files (x86)\Microsoft Visual Studio\2019\Community\VC\Tools\MSVC\14.24.28314\atlmfc\include\atlwinverapi.h

; 730  : 	return ::InitializeCriticalSectionEx(lpCriticalSection, dwSpinCount, Flags);

	call	DWORD PTR __imp__InitializeCriticalSectionEx@12
; File C:\Program Files (x86)\Microsoft Visual Studio\2019\Community\VC\Tools\MSVC\14.24.28314\atlmfc\include\atlcore.h

; 145  : 		if (!_AtlInitializeCriticalSectionEx(&m_sec, 0, 0))

	test	eax, eax
	jne	SHORT $LN25@CAtlWinMod

; 146  : 		{
; 147  : 			hRes = HRESULT_FROM_WIN32(GetLastError());

	call	DWORD PTR __imp__GetLastError@0
; File C:\Program Files (x86)\Windows Kits\10\Include\10.0.18362.0\shared\winerror.h

; 28857: FORCEINLINE _Translates_Win32_to_HRESULT_(x) HRESULT HRESULT_FROM_WIN32(unsigned long x) { return (HRESULT)(x) <= 0 ? (HRESULT)(x) : (HRESULT) (((x) & 0x0000FFFF) | (FACILITY_WIN32 << 16) | 0x80000000);}

	test	eax, eax
	jle	SHORT $LN26@CAtlWinMod
	movzx	eax, ax
	or	eax, -2147024896			; 80070000H
; File C:\Program Files (x86)\Microsoft Visual Studio\2019\Community\VC\Tools\MSVC\14.24.28314\atlmfc\include\atlbase.h

; 2941 : 		if (FAILED(hr))

	test	eax, eax
$LN26@CAtlWinMod:
	mov	eax, esi
	jns	SHORT $LN2@CAtlWinMod

; 2942 : 		{
; 2943 : 			ATLASSERT(0);
; 2944 : 			CAtlBaseModule::m_bInitFailed = true;

	mov	BYTE PTR ?m_bInitFailed@CAtlBaseModule@ATL@@2_NA, 1 ; ATL::CAtlBaseModule::m_bInitFailed

; 2945 : 			cbSize = 0;

	mov	DWORD PTR [esi], 0
	pop	esi

; 2946 : 			return;
; 2947 : 		}
; 2948 : 	}

	ret	0
$LN25@CAtlWinMod:
	mov	eax, esi
$LN2@CAtlWinMod:
	pop	esi
	ret	0
??0CAtlWinModule@ATL@@QAE@XZ ENDP			; ATL::CAtlWinModule::CAtlWinModule
_TEXT	ENDS
; Function compile flags: /Ogtp
; File C:\Program Files (x86)\Microsoft Visual Studio\2019\Community\VC\Tools\MSVC\14.24.28314\atlmfc\include\atlbase.h
; File C:\Program Files (x86)\Microsoft Visual Studio\2019\Community\VC\Tools\MSVC\14.24.28314\atlmfc\include\atlsimpcoll.h
; File C:\Program Files (x86)\Microsoft Visual Studio\2019\Community\VC\Tools\MSVC\14.24.28314\atlmfc\include\atlbase.h
; File C:\Program Files (x86)\Microsoft Visual Studio\2019\Community\VC\Tools\MSVC\14.24.28314\atlmfc\include\atlsimpcoll.h
; File C:\Program Files (x86)\Microsoft Visual Studio\2019\Community\VC\Tools\MSVC\14.24.28314\atlmfc\include\atlcore.h
; File C:\Program Files (x86)\Microsoft Visual Studio\2019\Community\VC\Tools\MSVC\14.24.28314\atlmfc\include\atlsimpcoll.h
; File C:\Program Files (x86)\Microsoft Visual Studio\2019\Community\VC\Tools\MSVC\14.24.28314\atlmfc\include\atlcore.h
; File C:\Program Files (x86)\Microsoft Visual Studio\2019\Community\VC\Tools\MSVC\14.24.28314\atlmfc\include\atlsimpcoll.h
; File C:\Program Files (x86)\Microsoft Visual Studio\2019\Community\VC\Tools\MSVC\14.24.28314\atlmfc\include\atlcore.h
; File C:\Program Files (x86)\Microsoft Visual Studio\2019\Community\VC\Tools\MSVC\14.24.28314\atlmfc\include\atlbase.h
; File C:\Program Files (x86)\Microsoft Visual Studio\2019\Community\VC\Tools\MSVC\14.24.28314\atlmfc\include\atlsimpcoll.h
; File C:\Program Files (x86)\Microsoft Visual Studio\2019\Community\VC\Tools\MSVC\14.24.28314\atlmfc\include\atlbase.h
; File C:\Program Files (x86)\Microsoft Visual Studio\2019\Community\VC\Tools\MSVC\14.24.28314\atlmfc\include\atlsimpcoll.h
; File C:\Program Files (x86)\Microsoft Visual Studio\2019\Community\VC\Tools\MSVC\14.24.28314\atlmfc\include\atlbase.h
;	COMDAT ??1CAtlWinModule@ATL@@QAE@XZ
_TEXT	SEGMENT
??1CAtlWinModule@ATL@@QAE@XZ PROC			; ATL::CAtlWinModule::~CAtlWinModule, COMDAT
; _this$ = ecx

; 2951 : 	{

	push	ebx

; 2957 : 		AtlWinModuleTerm(this, _AtlBaseModule.GetModuleInstance());

	mov	ebx, DWORD PTR ?_AtlBaseModule@ATL@@3VCAtlBaseModule@1@A+4

; 2951 : 	{

	push	esi
	mov	esi, ecx

; 7653 : 	if (pWinModule == NULL)

	mov	ecx, DWORD PTR __imp__free
	test	esi, esi
	je	SHORT $LN5@CAtlWinMod

; 7654 : 		return E_INVALIDARG;
; 7655 : 	if (pWinModule->cbSize == 0)

	mov	eax, DWORD PTR [esi]
	test	eax, eax
	je	SHORT $LN5@CAtlWinMod

; 7656 : 		return S_OK;
; 7657 : 	if (pWinModule->cbSize != sizeof(_ATL_WIN_MODULE))

	cmp	eax, 44					; 0000002cH
	jne	SHORT $LN5@CAtlWinMod

; 7658 : 		return E_INVALIDARG;
; 7659 : 
; 7660 : 	for (int i = 0; i < pWinModule->m_rgWindowClassAtoms.GetSize(); i++)

	push	edi
	xor	edi, edi
	cmp	DWORD PTR [esi+36], edi
	jle	SHORT $LN7@CAtlWinMod
; File C:\Program Files (x86)\Microsoft Visual Studio\2019\Community\VC\Tools\MSVC\14.24.28314\atlmfc\include\atlsimpcoll.h

; 238  : 		if(nIndex < 0 || nIndex >= m_nSize)

	cmp	edi, DWORD PTR [esi+36]
	jge	SHORT $LN42@CAtlWinMod
$LN54@CAtlWinMod:
; File C:\Program Files (x86)\Microsoft Visual Studio\2019\Community\VC\Tools\MSVC\14.24.28314\atlmfc\include\atlbase.h

; 7661 : 		UnregisterClass((LPCTSTR)pWinModule->m_rgWindowClassAtoms[i], hInst);

	mov	eax, DWORD PTR [esi+32]
	push	ebx
	movzx	eax, WORD PTR [eax+edi*2]
	push	eax
	call	DWORD PTR __imp__UnregisterClassA@8
	inc	edi
	cmp	edi, DWORD PTR [esi+36]
	jl	SHORT $LN54@CAtlWinMod
; File C:\Program Files (x86)\Microsoft Visual Studio\2019\Community\VC\Tools\MSVC\14.24.28314\atlmfc\include\atlsimpcoll.h

; 238  : 		if(nIndex < 0 || nIndex >= m_nSize)

	mov	ecx, DWORD PTR __imp__free
$LN7@CAtlWinMod:

; 216  : 		if(m_aT != NULL)

	mov	eax, DWORD PTR [esi+32]
	pop	edi
	test	eax, eax
	je	SHORT $LN22@CAtlWinMod

; 217  : 		{
; 218  : 			for(int i = 0; i < m_nSize; i++)
; 219  : 				m_aT[i].~T();
; 220  : 			free(m_aT);

	push	eax
	call	ecx
	add	esp, 4

; 221  : 			m_aT = NULL;

	mov	DWORD PTR [esi+32], 0
$LN22@CAtlWinMod:
; File C:\Program Files (x86)\Microsoft Visual Studio\2019\Community\VC\Tools\MSVC\14.24.28314\atlmfc\include\atlcore.h

; 155  : 		DeleteCriticalSection(&m_sec);

	lea	eax, DWORD PTR [esi+4]
; File C:\Program Files (x86)\Microsoft Visual Studio\2019\Community\VC\Tools\MSVC\14.24.28314\atlmfc\include\atlsimpcoll.h

; 223  : 		m_nSize = 0;

	mov	DWORD PTR [esi+36], 0
; File C:\Program Files (x86)\Microsoft Visual Studio\2019\Community\VC\Tools\MSVC\14.24.28314\atlmfc\include\atlcore.h

; 155  : 		DeleteCriticalSection(&m_sec);

	push	eax
; File C:\Program Files (x86)\Microsoft Visual Studio\2019\Community\VC\Tools\MSVC\14.24.28314\atlmfc\include\atlsimpcoll.h

; 224  : 		m_nAllocSize = 0;

	mov	DWORD PTR [esi+40], 0
; File C:\Program Files (x86)\Microsoft Visual Studio\2019\Community\VC\Tools\MSVC\14.24.28314\atlmfc\include\atlcore.h

; 155  : 		DeleteCriticalSection(&m_sec);

	call	DWORD PTR __imp__DeleteCriticalSection@4
; File C:\Program Files (x86)\Microsoft Visual Studio\2019\Community\VC\Tools\MSVC\14.24.28314\atlmfc\include\atlbase.h

; 7664 : 	pWinModule->cbSize = 0;

	mov	ecx, DWORD PTR __imp__free
	mov	DWORD PTR [esi], 0
$LN5@CAtlWinMod:
; File C:\Program Files (x86)\Microsoft Visual Studio\2019\Community\VC\Tools\MSVC\14.24.28314\atlmfc\include\atlsimpcoll.h

; 216  : 		if(m_aT != NULL)

	mov	eax, DWORD PTR [esi+32]
	test	eax, eax
	je	SHORT $LN37@CAtlWinMod

; 217  : 		{
; 218  : 			for(int i = 0; i < m_nSize; i++)
; 219  : 				m_aT[i].~T();
; 220  : 			free(m_aT);

	push	eax
	call	ecx
	add	esp, 4

; 221  : 			m_aT = NULL;

	mov	DWORD PTR [esi+32], 0
$LN37@CAtlWinMod:

; 223  : 		m_nSize = 0;

	mov	DWORD PTR [esi+36], 0

; 224  : 		m_nAllocSize = 0;

	mov	DWORD PTR [esi+40], 0
	pop	esi
	pop	ebx
; File C:\Program Files (x86)\Microsoft Visual Studio\2019\Community\VC\Tools\MSVC\14.24.28314\atlmfc\include\atlbase.h

; 2953 : 	}

	ret	0
$LN42@CAtlWinMod:
; File C:\Program Files (x86)\Microsoft Visual Studio\2019\Community\VC\Tools\MSVC\14.24.28314\atlmfc\include\atlsimpcoll.h

; 240  : 			_AtlRaiseException((DWORD)EXCEPTION_ARRAY_BOUNDS_EXCEEDED);

	push	1
	push	-1073741684				; c000008cH
	call	?_AtlRaiseException@ATL@@YAXKK@Z	; ATL::_AtlRaiseException
$LN52@CAtlWinMod:
	int	3
??1CAtlWinModule@ATL@@QAE@XZ ENDP			; ATL::CAtlWinModule::~CAtlWinModule
_TEXT	ENDS
; Function compile flags: /Ogtp
; File C:\Program Files (x86)\Microsoft Visual Studio\2019\Community\VC\Tools\MSVC\14.24.28314\atlmfc\include\atlbase.h
; File C:\Program Files (x86)\Microsoft Visual Studio\2019\Community\VC\Tools\MSVC\14.24.28314\atlmfc\include\atlsimpcoll.h
; File C:\Program Files (x86)\Microsoft Visual Studio\2019\Community\VC\Tools\MSVC\14.24.28314\atlmfc\include\atlbase.h
; File C:\Program Files (x86)\Microsoft Visual Studio\2019\Community\VC\Tools\MSVC\14.24.28314\atlmfc\include\atlsimpcoll.h
; File C:\Program Files (x86)\Microsoft Visual Studio\2019\Community\VC\Tools\MSVC\14.24.28314\atlmfc\include\atlcore.h
; File C:\Program Files (x86)\Microsoft Visual Studio\2019\Community\VC\Tools\MSVC\14.24.28314\atlmfc\include\atlsimpcoll.h
; File C:\Program Files (x86)\Microsoft Visual Studio\2019\Community\VC\Tools\MSVC\14.24.28314\atlmfc\include\atlcore.h
; File C:\Program Files (x86)\Microsoft Visual Studio\2019\Community\VC\Tools\MSVC\14.24.28314\atlmfc\include\atlsimpcoll.h
; File C:\Program Files (x86)\Microsoft Visual Studio\2019\Community\VC\Tools\MSVC\14.24.28314\atlmfc\include\atlcore.h
; File C:\Program Files (x86)\Microsoft Visual Studio\2019\Community\VC\Tools\MSVC\14.24.28314\atlmfc\include\atlbase.h
; File C:\Program Files (x86)\Microsoft Visual Studio\2019\Community\VC\Tools\MSVC\14.24.28314\atlmfc\include\atlsimpcoll.h
; File C:\Program Files (x86)\Microsoft Visual Studio\2019\Community\VC\Tools\MSVC\14.24.28314\atlmfc\include\atlbase.h
;	COMDAT ?Term@CAtlWinModule@ATL@@QAEXXZ
_TEXT	SEGMENT
?Term@CAtlWinModule@ATL@@QAEXXZ PROC			; ATL::CAtlWinModule::Term, COMDAT
; _this$ = ecx

; 2956 : 	{

	push	ebx

; 2957 : 		AtlWinModuleTerm(this, _AtlBaseModule.GetModuleInstance());

	mov	ebx, DWORD PTR ?_AtlBaseModule@ATL@@3VCAtlBaseModule@1@A+4
	push	esi
	mov	esi, ecx

; 7653 : 	if (pWinModule == NULL)

	test	esi, esi
	je	SHORT $LN3@Term

; 7654 : 		return E_INVALIDARG;
; 7655 : 	if (pWinModule->cbSize == 0)

	mov	eax, DWORD PTR [esi]
	test	eax, eax
	je	SHORT $LN3@Term

; 7656 : 		return S_OK;
; 7657 : 	if (pWinModule->cbSize != sizeof(_ATL_WIN_MODULE))

	cmp	eax, 44					; 0000002cH
	jne	SHORT $LN3@Term

; 7658 : 		return E_INVALIDARG;
; 7659 : 
; 7660 : 	for (int i = 0; i < pWinModule->m_rgWindowClassAtoms.GetSize(); i++)

	push	edi
	xor	edi, edi
	cmp	DWORD PTR [esi+36], edi
	jle	SHORT $LN5@Term
; File C:\Program Files (x86)\Microsoft Visual Studio\2019\Community\VC\Tools\MSVC\14.24.28314\atlmfc\include\atlsimpcoll.h

; 238  : 		if(nIndex < 0 || nIndex >= m_nSize)

	cmp	edi, DWORD PTR [esi+36]
	jge	SHORT $LN27@Term
$LN36@Term:
; File C:\Program Files (x86)\Microsoft Visual Studio\2019\Community\VC\Tools\MSVC\14.24.28314\atlmfc\include\atlbase.h

; 7661 : 		UnregisterClass((LPCTSTR)pWinModule->m_rgWindowClassAtoms[i], hInst);

	mov	eax, DWORD PTR [esi+32]
	push	ebx
	movzx	eax, WORD PTR [eax+edi*2]
	push	eax
	call	DWORD PTR __imp__UnregisterClassA@8
	inc	edi
	cmp	edi, DWORD PTR [esi+36]
	jl	SHORT $LN36@Term
$LN5@Term:
; File C:\Program Files (x86)\Microsoft Visual Studio\2019\Community\VC\Tools\MSVC\14.24.28314\atlmfc\include\atlsimpcoll.h

; 216  : 		if(m_aT != NULL)

	mov	eax, DWORD PTR [esi+32]
	pop	edi
	test	eax, eax
	je	SHORT $LN20@Term

; 217  : 		{
; 218  : 			for(int i = 0; i < m_nSize; i++)
; 219  : 				m_aT[i].~T();
; 220  : 			free(m_aT);

	push	eax
	call	DWORD PTR __imp__free
	add	esp, 4

; 221  : 			m_aT = NULL;

	mov	DWORD PTR [esi+32], 0
$LN20@Term:
; File C:\Program Files (x86)\Microsoft Visual Studio\2019\Community\VC\Tools\MSVC\14.24.28314\atlmfc\include\atlcore.h

; 155  : 		DeleteCriticalSection(&m_sec);

	lea	eax, DWORD PTR [esi+4]
; File C:\Program Files (x86)\Microsoft Visual Studio\2019\Community\VC\Tools\MSVC\14.24.28314\atlmfc\include\atlsimpcoll.h

; 223  : 		m_nSize = 0;

	mov	DWORD PTR [esi+36], 0
; File C:\Program Files (x86)\Microsoft Visual Studio\2019\Community\VC\Tools\MSVC\14.24.28314\atlmfc\include\atlcore.h

; 155  : 		DeleteCriticalSection(&m_sec);

	push	eax
; File C:\Program Files (x86)\Microsoft Visual Studio\2019\Community\VC\Tools\MSVC\14.24.28314\atlmfc\include\atlsimpcoll.h

; 224  : 		m_nAllocSize = 0;

	mov	DWORD PTR [esi+40], 0
; File C:\Program Files (x86)\Microsoft Visual Studio\2019\Community\VC\Tools\MSVC\14.24.28314\atlmfc\include\atlcore.h

; 155  : 		DeleteCriticalSection(&m_sec);

	call	DWORD PTR __imp__DeleteCriticalSection@4
; File C:\Program Files (x86)\Microsoft Visual Studio\2019\Community\VC\Tools\MSVC\14.24.28314\atlmfc\include\atlbase.h

; 7664 : 	pWinModule->cbSize = 0;

	mov	DWORD PTR [esi], 0
$LN3@Term:
	pop	esi

; 2958 : 	}

	pop	ebx
	ret	0
$LN27@Term:
; File C:\Program Files (x86)\Microsoft Visual Studio\2019\Community\VC\Tools\MSVC\14.24.28314\atlmfc\include\atlsimpcoll.h

; 240  : 			_AtlRaiseException((DWORD)EXCEPTION_ARRAY_BOUNDS_EXCEEDED);

	push	1
	push	-1073741684				; c000008cH
	call	?_AtlRaiseException@ATL@@YAXKK@Z	; ATL::_AtlRaiseException
$LN34@Term:
	int	3
?Term@CAtlWinModule@ATL@@QAEXXZ ENDP			; ATL::CAtlWinModule::Term
_TEXT	ENDS
; Function compile flags: /Ogtp
; File C:\Program Files (x86)\Microsoft Visual Studio\2019\Community\VC\Tools\MSVC\14.24.28314\atlmfc\include\atlcore.h
; File C:\Program Files (x86)\Microsoft Visual Studio\2019\Community\VC\Tools\MSVC\14.24.28314\atlmfc\include\atlsimpcoll.h
;	COMDAT ??0_ATL_WIN_MODULE70@ATL@@QAE@XZ
_TEXT	SEGMENT
??0_ATL_WIN_MODULE70@ATL@@QAE@XZ PROC			; ATL::_ATL_WIN_MODULE70::_ATL_WIN_MODULE70, COMDAT
; _this$ = ecx
	xorps	xmm0, xmm0
	mov	eax, ecx
; File C:\Program Files (x86)\Microsoft Visual Studio\2019\Community\VC\Tools\MSVC\14.24.28314\atlmfc\include\atlcore.h

; 125  : 		memset(&m_sec, 0, sizeof(CRITICAL_SECTION));

	movups	XMMWORD PTR [ecx+4], xmm0
	movq	QWORD PTR [ecx+20], xmm0
; File C:\Program Files (x86)\Microsoft Visual Studio\2019\Community\VC\Tools\MSVC\14.24.28314\atlmfc\include\atlsimpcoll.h

; 119  : 		m_aT(NULL), m_nSize(0), m_nAllocSize(0)

	mov	DWORD PTR [ecx+32], 0
	mov	DWORD PTR [ecx+36], 0
	mov	DWORD PTR [ecx+40], 0
	ret	0
??0_ATL_WIN_MODULE70@ATL@@QAE@XZ ENDP			; ATL::_ATL_WIN_MODULE70::_ATL_WIN_MODULE70
_TEXT	ENDS
; Function compile flags: /Ogtp
; File C:\Program Files (x86)\Microsoft Visual Studio\2019\Community\VC\Tools\MSVC\14.24.28314\atlmfc\include\atlsimpcoll.h
;	COMDAT ??1_ATL_WIN_MODULE70@ATL@@QAE@XZ
_TEXT	SEGMENT
??1_ATL_WIN_MODULE70@ATL@@QAE@XZ PROC			; ATL::_ATL_WIN_MODULE70::~_ATL_WIN_MODULE70, COMDAT
; _this$ = ecx

; 216  : 		if(m_aT != NULL)

	push	esi
	mov	esi, ecx
	mov	eax, DWORD PTR [esi+32]
	test	eax, eax
	je	SHORT $LN15@ATL_WIN_MO

; 217  : 		{
; 218  : 			for(int i = 0; i < m_nSize; i++)
; 219  : 				m_aT[i].~T();
; 220  : 			free(m_aT);

	push	eax
	call	DWORD PTR __imp__free
	add	esp, 4

; 221  : 			m_aT = NULL;

	mov	DWORD PTR [esi+32], 0
$LN15@ATL_WIN_MO:

; 222  : 		}
; 223  : 		m_nSize = 0;
; 224  : 		m_nAllocSize = 0;

	mov	DWORD PTR [esi+40], 0
	mov	DWORD PTR [esi+36], 0
	pop	esi
	ret	0
??1_ATL_WIN_MODULE70@ATL@@QAE@XZ ENDP			; ATL::_ATL_WIN_MODULE70::~_ATL_WIN_MODULE70
_TEXT	ENDS
; Function compile flags: /Ogtp
; File C:\Program Files (x86)\Microsoft Visual Studio\2019\Community\VC\Tools\MSVC\14.24.28314\atlmfc\include\atlbase.h
; File C:\Program Files (x86)\Microsoft Visual Studio\2019\Community\VC\Tools\MSVC\14.24.28314\atlmfc\include\atlwinverapi.h
; File C:\Program Files (x86)\Microsoft Visual Studio\2019\Community\VC\Tools\MSVC\14.24.28314\atlmfc\include\atlcore.h
; File C:\Program Files (x86)\Windows Kits\10\Include\10.0.18362.0\shared\winerror.h
; File C:\Program Files (x86)\Microsoft Visual Studio\2019\Community\VC\Tools\MSVC\14.24.28314\atlmfc\include\atlbase.h
;	COMDAT ??__E_AtlWinModule@ATL@@YAXXZ
text$di	SEGMENT
??__E_AtlWinModule@ATL@@YAXXZ PROC			; ATL::`dynamic initializer for '_AtlWinModule'', COMDAT
; File C:\Program Files (x86)\Microsoft Visual Studio\2019\Community\VC\Tools\MSVC\14.24.28314\atlmfc\include\atlwinverapi.h

; 730  : 	return ::InitializeCriticalSectionEx(lpCriticalSection, dwSpinCount, Flags);

	push	0
	push	0
	push	OFFSET ?_AtlWinModule@ATL@@3VCAtlWinModule@1@A+4
	call	DWORD PTR __imp__InitializeCriticalSectionEx@12
; File C:\Program Files (x86)\Microsoft Visual Studio\2019\Community\VC\Tools\MSVC\14.24.28314\atlmfc\include\atlcore.h

; 145  : 		if (!_AtlInitializeCriticalSectionEx(&m_sec, 0, 0))

	test	eax, eax
	jne	SHORT $LN4@dynamic

; 146  : 		{
; 147  : 			hRes = HRESULT_FROM_WIN32(GetLastError());

	call	DWORD PTR __imp__GetLastError@0
; File C:\Program Files (x86)\Windows Kits\10\Include\10.0.18362.0\shared\winerror.h

; 28857: FORCEINLINE _Translates_Win32_to_HRESULT_(x) HRESULT HRESULT_FROM_WIN32(unsigned long x) { return (HRESULT)(x) <= 0 ? (HRESULT)(x) : (HRESULT) (((x) & 0x0000FFFF) | (FACILITY_WIN32 << 16) | 0x80000000);}

	test	eax, eax
	jle	SHORT $LN26@dynamic
	movzx	eax, ax
	or	eax, -2147024896			; 80070000H
; File C:\Program Files (x86)\Microsoft Visual Studio\2019\Community\VC\Tools\MSVC\14.24.28314\atlmfc\include\atlbase.h

; 2941 : 		if (FAILED(hr))

	test	eax, eax
$LN26@dynamic:
	jns	SHORT $LN4@dynamic

; 2942 : 		{
; 2943 : 			ATLASSERT(0);
; 2944 : 			CAtlBaseModule::m_bInitFailed = true;

	mov	BYTE PTR ?m_bInitFailed@CAtlBaseModule@ATL@@2_NA, 1 ; ATL::CAtlBaseModule::m_bInitFailed

; 2945 : 			cbSize = 0;

	mov	DWORD PTR ?_AtlWinModule@ATL@@3VCAtlWinModule@1@A, 0
$LN4@dynamic:

; 2972 : __declspec(selectany) CAtlWinModule _AtlWinModule;

	push	OFFSET ??__F_AtlWinModule@ATL@@YAXXZ	; ATL::`dynamic atexit destructor for '_AtlWinModule''
	call	_atexit
	pop	ecx
	ret	0
??__E_AtlWinModule@ATL@@YAXXZ ENDP			; ATL::`dynamic initializer for '_AtlWinModule''
text$di	ENDS
; Function compile flags: /Ogtp
; File C:\Program Files (x86)\Microsoft Visual Studio\2019\Community\VC\Tools\MSVC\14.24.28314\atlmfc\include\atlbase.h
; File C:\Program Files (x86)\Microsoft Visual Studio\2019\Community\VC\Tools\MSVC\14.24.28314\atlmfc\include\atlsimpcoll.h
; File C:\Program Files (x86)\Microsoft Visual Studio\2019\Community\VC\Tools\MSVC\14.24.28314\atlmfc\include\atlbase.h
; File C:\Program Files (x86)\Microsoft Visual Studio\2019\Community\VC\Tools\MSVC\14.24.28314\atlmfc\include\atlsimpcoll.h
; File C:\Program Files (x86)\Microsoft Visual Studio\2019\Community\VC\Tools\MSVC\14.24.28314\atlmfc\include\atlcore.h
; File C:\Program Files (x86)\Microsoft Visual Studio\2019\Community\VC\Tools\MSVC\14.24.28314\atlmfc\include\atlsimpcoll.h
; File C:\Program Files (x86)\Microsoft Visual Studio\2019\Community\VC\Tools\MSVC\14.24.28314\atlmfc\include\atlcore.h
; File C:\Program Files (x86)\Microsoft Visual Studio\2019\Community\VC\Tools\MSVC\14.24.28314\atlmfc\include\atlbase.h
; File C:\Program Files (x86)\Microsoft Visual Studio\2019\Community\VC\Tools\MSVC\14.24.28314\atlmfc\include\atlsimpcoll.h
;	COMDAT ??__F_AtlWinModule@ATL@@YAXXZ
text$yd	SEGMENT
??__F_AtlWinModule@ATL@@YAXXZ PROC			; ATL::`dynamic atexit destructor for '_AtlWinModule'', COMDAT
; File C:\Program Files (x86)\Microsoft Visual Studio\2019\Community\VC\Tools\MSVC\14.24.28314\atlmfc\include\atlbase.h

; 7655 : 	if (pWinModule->cbSize == 0)

	mov	eax, DWORD PTR ?_AtlWinModule@ATL@@3VCAtlWinModule@1@A
	mov	ecx, DWORD PTR __imp__free

; 2957 : 		AtlWinModuleTerm(this, _AtlBaseModule.GetModuleInstance());

	push	edi
	mov	edi, DWORD PTR ?_AtlBaseModule@ATL@@3VCAtlBaseModule@1@A+4

; 7655 : 	if (pWinModule->cbSize == 0)

	test	eax, eax
	je	$LN8@dynamic

; 7656 : 		return S_OK;
; 7657 : 	if (pWinModule->cbSize != sizeof(_ATL_WIN_MODULE))

	cmp	eax, 44					; 0000002cH
	jne	$LN8@dynamic

; 7658 : 		return E_INVALIDARG;
; 7659 : 
; 7660 : 	for (int i = 0; i < pWinModule->m_rgWindowClassAtoms.GetSize(); i++)

	mov	eax, DWORD PTR ?_AtlWinModule@ATL@@3VCAtlWinModule@1@A+36
	push	esi
	xor	esi, esi
	test	eax, eax
	jle	SHORT $LN10@dynamic
	push	ebx
	mov	ebx, DWORD PTR __imp__UnregisterClassA@8
$LL11@dynamic:
; File C:\Program Files (x86)\Microsoft Visual Studio\2019\Community\VC\Tools\MSVC\14.24.28314\atlmfc\include\atlsimpcoll.h

; 238  : 		if(nIndex < 0 || nIndex >= m_nSize)

	test	esi, esi
	js	$LN46@dynamic
	cmp	esi, eax
	jge	$LN46@dynamic
; File C:\Program Files (x86)\Microsoft Visual Studio\2019\Community\VC\Tools\MSVC\14.24.28314\atlmfc\include\atlbase.h

; 7661 : 		UnregisterClass((LPCTSTR)pWinModule->m_rgWindowClassAtoms[i], hInst);

	mov	eax, DWORD PTR ?_AtlWinModule@ATL@@3VCAtlWinModule@1@A+32
	push	edi
	movzx	eax, WORD PTR [eax+esi*2]
	push	eax
	call	ebx
	mov	eax, DWORD PTR ?_AtlWinModule@ATL@@3VCAtlWinModule@1@A+36
	inc	esi
	cmp	esi, eax
	jl	SHORT $LL11@dynamic
; File C:\Program Files (x86)\Microsoft Visual Studio\2019\Community\VC\Tools\MSVC\14.24.28314\atlmfc\include\atlsimpcoll.h

; 238  : 		if(nIndex < 0 || nIndex >= m_nSize)

	mov	ecx, DWORD PTR __imp__free
	pop	ebx
$LN10@dynamic:

; 216  : 		if(m_aT != NULL)

	mov	eax, DWORD PTR ?_AtlWinModule@ATL@@3VCAtlWinModule@1@A+32
	pop	esi
	test	eax, eax
	je	SHORT $LN25@dynamic

; 217  : 		{
; 218  : 			for(int i = 0; i < m_nSize; i++)
; 219  : 				m_aT[i].~T();
; 220  : 			free(m_aT);

	push	eax
	call	ecx
	add	esp, 4

; 221  : 			m_aT = NULL;

	mov	DWORD PTR ?_AtlWinModule@ATL@@3VCAtlWinModule@1@A+32, 0
$LN25@dynamic:
; File C:\Program Files (x86)\Microsoft Visual Studio\2019\Community\VC\Tools\MSVC\14.24.28314\atlmfc\include\atlcore.h

; 155  : 		DeleteCriticalSection(&m_sec);

	push	OFFSET ?_AtlWinModule@ATL@@3VCAtlWinModule@1@A+4
; File C:\Program Files (x86)\Microsoft Visual Studio\2019\Community\VC\Tools\MSVC\14.24.28314\atlmfc\include\atlsimpcoll.h

; 223  : 		m_nSize = 0;

	mov	DWORD PTR ?_AtlWinModule@ATL@@3VCAtlWinModule@1@A+36, 0

; 224  : 		m_nAllocSize = 0;

	mov	DWORD PTR ?_AtlWinModule@ATL@@3VCAtlWinModule@1@A+40, 0
; File C:\Program Files (x86)\Microsoft Visual Studio\2019\Community\VC\Tools\MSVC\14.24.28314\atlmfc\include\atlcore.h

; 155  : 		DeleteCriticalSection(&m_sec);

	call	DWORD PTR __imp__DeleteCriticalSection@4
; File C:\Program Files (x86)\Microsoft Visual Studio\2019\Community\VC\Tools\MSVC\14.24.28314\atlmfc\include\atlbase.h

; 7664 : 	pWinModule->cbSize = 0;

	mov	ecx, DWORD PTR __imp__free
	mov	DWORD PTR ?_AtlWinModule@ATL@@3VCAtlWinModule@1@A, 0
$LN8@dynamic:
; File C:\Program Files (x86)\Microsoft Visual Studio\2019\Community\VC\Tools\MSVC\14.24.28314\atlmfc\include\atlsimpcoll.h

; 216  : 		if(m_aT != NULL)

	mov	eax, DWORD PTR ?_AtlWinModule@ATL@@3VCAtlWinModule@1@A+32
	pop	edi
	test	eax, eax
	je	SHORT $LN40@dynamic

; 217  : 		{
; 218  : 			for(int i = 0; i < m_nSize; i++)
; 219  : 				m_aT[i].~T();
; 220  : 			free(m_aT);

	push	eax
	call	ecx
	add	esp, 4

; 221  : 			m_aT = NULL;

	mov	DWORD PTR ?_AtlWinModule@ATL@@3VCAtlWinModule@1@A+32, 0
$LN40@dynamic:

; 223  : 		m_nSize = 0;

	mov	DWORD PTR ?_AtlWinModule@ATL@@3VCAtlWinModule@1@A+36, 0

; 224  : 		m_nAllocSize = 0;

	mov	DWORD PTR ?_AtlWinModule@ATL@@3VCAtlWinModule@1@A+40, 0
	ret	0
$LN46@dynamic:

; 240  : 			_AtlRaiseException((DWORD)EXCEPTION_ARRAY_BOUNDS_EXCEEDED);

	push	1
	push	-1073741684				; c000008cH
	call	?_AtlRaiseException@ATL@@YAXKK@Z	; ATL::_AtlRaiseException
$LN56@dynamic:
	int	3
??__F_AtlWinModule@ATL@@YAXXZ ENDP			; ATL::`dynamic atexit destructor for '_AtlWinModule''
text$yd	ENDS
; Function compile flags: /Ogtp
; File C:\Program Files (x86)\Microsoft Visual Studio\2019\Community\VC\Tools\MSVC\14.24.28314\atlmfc\include\atlbase.h
; File C:\Program Files (x86)\Microsoft Visual Studio\2019\Community\VC\Tools\MSVC\14.24.28314\atlmfc\include\atlsimpcoll.h
; File C:\Program Files (x86)\Microsoft Visual Studio\2019\Community\VC\Tools\MSVC\14.24.28314\atlmfc\include\atlbase.h
; File C:\Program Files (x86)\Microsoft Visual Studio\2019\Community\VC\Tools\MSVC\14.24.28314\atlmfc\include\atlsimpcoll.h
; File C:\Program Files (x86)\Microsoft Visual Studio\2019\Community\VC\Tools\MSVC\14.24.28314\atlmfc\include\atlcore.h
; File C:\Program Files (x86)\Microsoft Visual Studio\2019\Community\VC\Tools\MSVC\14.24.28314\atlmfc\include\atlsimpcoll.h
; File C:\Program Files (x86)\Microsoft Visual Studio\2019\Community\VC\Tools\MSVC\14.24.28314\atlmfc\include\atlcore.h
; File C:\Program Files (x86)\Microsoft Visual Studio\2019\Community\VC\Tools\MSVC\14.24.28314\atlmfc\include\atlsimpcoll.h
; File C:\Program Files (x86)\Microsoft Visual Studio\2019\Community\VC\Tools\MSVC\14.24.28314\atlmfc\include\atlcore.h
; File C:\Program Files (x86)\Microsoft Visual Studio\2019\Community\VC\Tools\MSVC\14.24.28314\atlmfc\include\atlbase.h
; File C:\Program Files (x86)\Microsoft Visual Studio\2019\Community\VC\Tools\MSVC\14.24.28314\atlmfc\include\atlsimpcoll.h
; File C:\Program Files (x86)\Microsoft Visual Studio\2019\Community\VC\Tools\MSVC\14.24.28314\atlmfc\include\atlbase.h
;	COMDAT ?AtlWinModuleTerm@ATL@@YGJPAU_ATL_WIN_MODULE70@1@PAUHINSTANCE__@@@Z
_TEXT	SEGMENT
_pWinModule$ = 8					; size = 4
_hInst$ = 12						; size = 4
?AtlWinModuleTerm@ATL@@YGJPAU_ATL_WIN_MODULE70@1@PAUHINSTANCE__@@@Z PROC ; ATL::AtlWinModuleTerm, COMDAT

; 7652 : {

	push	ebp
	mov	ebp, esp
	push	esi

; 7653 : 	if (pWinModule == NULL)

	mov	esi, DWORD PTR _pWinModule$[ebp]
	test	esi, esi
	je	SHORT $LN31@AtlWinModu

; 7654 : 		return E_INVALIDARG;
; 7655 : 	if (pWinModule->cbSize == 0)

	mov	eax, DWORD PTR [esi]
	test	eax, eax
	je	SHORT $LN35@AtlWinModu

; 7656 : 		return S_OK;
; 7657 : 	if (pWinModule->cbSize != sizeof(_ATL_WIN_MODULE))

	cmp	eax, 44					; 0000002cH
	jne	SHORT $LN31@AtlWinModu

; 7659 : 
; 7660 : 	for (int i = 0; i < pWinModule->m_rgWindowClassAtoms.GetSize(); i++)

	push	edi
	xor	edi, edi
	cmp	DWORD PTR [esi+36], edi
	jle	SHORT $LN3@AtlWinModu

; 7661 : 		UnregisterClass((LPCTSTR)pWinModule->m_rgWindowClassAtoms[i], hInst);

	push	ebx
	mov	ebx, DWORD PTR _hInst$[ebp]
; File C:\Program Files (x86)\Microsoft Visual Studio\2019\Community\VC\Tools\MSVC\14.24.28314\atlmfc\include\atlsimpcoll.h

; 238  : 		if(nIndex < 0 || nIndex >= m_nSize)

	cmp	edi, DWORD PTR [esi+36]
	jge	SHORT $LN24@AtlWinModu
$LN34@AtlWinModu:
; File C:\Program Files (x86)\Microsoft Visual Studio\2019\Community\VC\Tools\MSVC\14.24.28314\atlmfc\include\atlbase.h

; 7661 : 		UnregisterClass((LPCTSTR)pWinModule->m_rgWindowClassAtoms[i], hInst);

	mov	eax, DWORD PTR [esi+32]
	push	ebx
	movzx	eax, WORD PTR [eax+edi*2]
	push	eax
	call	DWORD PTR __imp__UnregisterClassA@8
	inc	edi
	cmp	edi, DWORD PTR [esi+36]
	jl	SHORT $LN34@AtlWinModu
; File C:\Program Files (x86)\Microsoft Visual Studio\2019\Community\VC\Tools\MSVC\14.24.28314\atlmfc\include\atlsimpcoll.h

; 238  : 		if(nIndex < 0 || nIndex >= m_nSize)

	pop	ebx
$LN3@AtlWinModu:

; 216  : 		if(m_aT != NULL)

	mov	eax, DWORD PTR [esi+32]
	pop	edi
	test	eax, eax
	je	SHORT $LN18@AtlWinModu

; 217  : 		{
; 218  : 			for(int i = 0; i < m_nSize; i++)
; 219  : 				m_aT[i].~T();
; 220  : 			free(m_aT);

	push	eax
	call	DWORD PTR __imp__free
	add	esp, 4

; 221  : 			m_aT = NULL;

	mov	DWORD PTR [esi+32], 0
$LN18@AtlWinModu:
; File C:\Program Files (x86)\Microsoft Visual Studio\2019\Community\VC\Tools\MSVC\14.24.28314\atlmfc\include\atlcore.h

; 155  : 		DeleteCriticalSection(&m_sec);

	lea	eax, DWORD PTR [esi+4]
; File C:\Program Files (x86)\Microsoft Visual Studio\2019\Community\VC\Tools\MSVC\14.24.28314\atlmfc\include\atlsimpcoll.h

; 223  : 		m_nSize = 0;

	mov	DWORD PTR [esi+36], 0
; File C:\Program Files (x86)\Microsoft Visual Studio\2019\Community\VC\Tools\MSVC\14.24.28314\atlmfc\include\atlcore.h

; 155  : 		DeleteCriticalSection(&m_sec);

	push	eax
; File C:\Program Files (x86)\Microsoft Visual Studio\2019\Community\VC\Tools\MSVC\14.24.28314\atlmfc\include\atlsimpcoll.h

; 224  : 		m_nAllocSize = 0;

	mov	DWORD PTR [esi+40], 0
; File C:\Program Files (x86)\Microsoft Visual Studio\2019\Community\VC\Tools\MSVC\14.24.28314\atlmfc\include\atlcore.h

; 155  : 		DeleteCriticalSection(&m_sec);

	call	DWORD PTR __imp__DeleteCriticalSection@4
; File C:\Program Files (x86)\Microsoft Visual Studio\2019\Community\VC\Tools\MSVC\14.24.28314\atlmfc\include\atlbase.h

; 7664 : 	pWinModule->cbSize = 0;

	mov	DWORD PTR [esi], 0
$LN35@AtlWinModu:

; 7666 : }

	xor	eax, eax
	pop	esi
	pop	ebp
	ret	8
$LN31@AtlWinModu:

; 7658 : 		return E_INVALIDARG;

	mov	eax, -2147024809			; 80070057H
	pop	esi

; 7666 : }

	pop	ebp
	ret	8
$LN24@AtlWinModu:
; File C:\Program Files (x86)\Microsoft Visual Studio\2019\Community\VC\Tools\MSVC\14.24.28314\atlmfc\include\atlsimpcoll.h

; 240  : 			_AtlRaiseException((DWORD)EXCEPTION_ARRAY_BOUNDS_EXCEEDED);

	push	1
	push	-1073741684				; c000008cH
	call	?_AtlRaiseException@ATL@@YAXKK@Z	; ATL::_AtlRaiseException
$LN32@AtlWinModu:
	int	3
?AtlWinModuleTerm@ATL@@YGJPAU_ATL_WIN_MODULE70@1@PAUHINSTANCE__@@@Z ENDP ; ATL::AtlWinModuleTerm
_TEXT	ENDS
; Function compile flags: /Ogtp
; File C:\Program Files (x86)\Microsoft Visual Studio\2019\Community\VC\Tools\MSVC\14.24.28314\atlmfc\include\atlbase.h
; File C:\Program Files (x86)\Microsoft Visual Studio\2019\Community\VC\Tools\MSVC\14.24.28314\atlmfc\include\atlcore.h
; File C:\Program Files (x86)\Microsoft Visual Studio\2019\Community\VC\Tools\MSVC\14.24.28314\atlmfc\include\atlbase.h
; File C:\Program Files (x86)\Microsoft Visual Studio\2019\Community\VC\Tools\MSVC\14.24.28314\atlmfc\include\atlwinverapi.h
; File C:\Program Files (x86)\Microsoft Visual Studio\2019\Community\VC\Tools\MSVC\14.24.28314\atlmfc\include\atlcore.h
; File C:\Program Files (x86)\Microsoft Visual Studio\2019\Community\VC\Tools\MSVC\14.24.28314\atlmfc\include\atlwinverapi.h
; File C:\Program Files (x86)\Microsoft Visual Studio\2019\Community\VC\Tools\MSVC\14.24.28314\atlmfc\include\atlcore.h
; File C:\Program Files (x86)\Windows Kits\10\Include\10.0.18362.0\shared\winerror.h
; File C:\Program Files (x86)\Microsoft Visual Studio\2019\Community\VC\Tools\MSVC\14.24.28314\atlmfc\include\atlbase.h
;	COMDAT ?AtlWinModuleInit@ATL@@YGJPAU_ATL_WIN_MODULE70@1@@Z
_TEXT	SEGMENT
_pWinModule$ = 8					; size = 4
?AtlWinModuleInit@ATL@@YGJPAU_ATL_WIN_MODULE70@1@@Z PROC ; ATL::AtlWinModuleInit, COMDAT

; 8396 : {

	push	ebp
	mov	ebp, esp

; 8397 : 	if (pWinModule == NULL)

	mov	eax, DWORD PTR _pWinModule$[ebp]
	test	eax, eax
	je	SHORT $LN15@AtlWinModu

; 8398 : 		return E_INVALIDARG;
; 8399 : 
; 8400 : 	// check only in the DLL
; 8401 : 	if (pWinModule->cbSize != sizeof(_ATL_WIN_MODULE))

	cmp	DWORD PTR [eax], 44			; 0000002cH
	jne	SHORT $LN15@AtlWinModu

; 8404 : 	pWinModule->m_pCreateWndList = NULL;

	push	esi
; File C:\Program Files (x86)\Microsoft Visual Studio\2019\Community\VC\Tools\MSVC\14.24.28314\atlmfc\include\atlcore.h

; 144  : 		HRESULT hRes = S_OK;

	xor	esi, esi
; File C:\Program Files (x86)\Microsoft Visual Studio\2019\Community\VC\Tools\MSVC\14.24.28314\atlmfc\include\atlbase.h

; 8404 : 	pWinModule->m_pCreateWndList = NULL;

	mov	DWORD PTR [eax+28], 0
; File C:\Program Files (x86)\Microsoft Visual Studio\2019\Community\VC\Tools\MSVC\14.24.28314\atlmfc\include\atlwinverapi.h

; 730  : 	return ::InitializeCriticalSectionEx(lpCriticalSection, dwSpinCount, Flags);

	push	esi
	push	esi
; File C:\Program Files (x86)\Microsoft Visual Studio\2019\Community\VC\Tools\MSVC\14.24.28314\atlmfc\include\atlcore.h

; 145  : 		if (!_AtlInitializeCriticalSectionEx(&m_sec, 0, 0))

	add	eax, 4
; File C:\Program Files (x86)\Microsoft Visual Studio\2019\Community\VC\Tools\MSVC\14.24.28314\atlmfc\include\atlwinverapi.h

; 730  : 	return ::InitializeCriticalSectionEx(lpCriticalSection, dwSpinCount, Flags);

	push	eax
	call	DWORD PTR __imp__InitializeCriticalSectionEx@12
; File C:\Program Files (x86)\Microsoft Visual Studio\2019\Community\VC\Tools\MSVC\14.24.28314\atlmfc\include\atlcore.h

; 145  : 		if (!_AtlInitializeCriticalSectionEx(&m_sec, 0, 0))

	test	eax, eax
	jne	SHORT $LN14@AtlWinModu

; 146  : 		{
; 147  : 			hRes = HRESULT_FROM_WIN32(GetLastError());

	call	DWORD PTR __imp__GetLastError@0
	mov	esi, eax
; File C:\Program Files (x86)\Windows Kits\10\Include\10.0.18362.0\shared\winerror.h

; 28857: FORCEINLINE _Translates_Win32_to_HRESULT_(x) HRESULT HRESULT_FROM_WIN32(unsigned long x) { return (HRESULT)(x) <= 0 ? (HRESULT)(x) : (HRESULT) (((x) & 0x0000FFFF) | (FACILITY_WIN32 << 16) | 0x80000000);}

	test	esi, esi
	jle	SHORT $LN14@AtlWinModu
	movzx	esi, si
	or	esi, -2147024896			; 80070000H
$LN14@AtlWinModu:
; File C:\Program Files (x86)\Microsoft Visual Studio\2019\Community\VC\Tools\MSVC\14.24.28314\atlmfc\include\atlbase.h

; 8412 : 	return hr;

	mov	eax, esi
	pop	esi

; 8413 : }

	pop	ebp
	ret	4
$LN15@AtlWinModu:

; 8402 : 		return E_INVALIDARG;

	mov	eax, -2147024809			; 80070057H

; 8413 : }

	pop	ebp
	ret	4
?AtlWinModuleInit@ATL@@YGJPAU_ATL_WIN_MODULE70@1@@Z ENDP ; ATL::AtlWinModuleInit
_TEXT	ENDS
; Function compile flags: /Ogtp
; File C:\Program Files (x86)\Microsoft Visual Studio\2019\Community\VC\Tools\MSVC\14.24.28314\atlmfc\include\atlstr.h
; File C:\Program Files (x86)\Microsoft Visual Studio\2019\Community\VC\Tools\MSVC\14.24.28314\atlmfc\include\atlsimpstr.h
; File C:\Program Files (x86)\Microsoft Visual Studio\2019\Community\VC\Tools\MSVC\14.24.28314\atlmfc\include\atlstr.h
; File C:\Program Files (x86)\Microsoft Visual Studio\2019\Community\VC\Tools\MSVC\14.24.28314\atlmfc\include\atlsimpstr.h
; File C:\Program Files (x86)\Microsoft Visual Studio\2019\Community\VC\Tools\MSVC\14.24.28314\atlmfc\include\atlstr.h
;	COMDAT ??0CAtlStringMgr@ATL@@QAE@PAUIAtlMemMgr@1@@Z
_TEXT	SEGMENT
_pMemMgr$ = 8						; size = 4
??0CAtlStringMgr@ATL@@QAE@PAUIAtlMemMgr@1@@Z PROC	; ATL::CAtlStringMgr::CAtlStringMgr, COMDAT
; _this$ = ecx

; 40   : 	{

	push	ebp
	mov	ebp, esp

; 39   : 		m_pMemMgr( pMemMgr )

	mov	eax, DWORD PTR _pMemMgr$[ebp]

; 40   : 	{

	mov	DWORD PTR [ecx], OFFSET ??_7CAtlStringMgr@ATL@@6B@
	mov	DWORD PTR [ecx+4], eax
; File C:\Program Files (x86)\Microsoft Visual Studio\2019\Community\VC\Tools\MSVC\14.24.28314\atlmfc\include\atlsimpstr.h

; 118  : 		achNil[0] = 0;

	xor	eax, eax
	mov	DWORD PTR [ecx+24], eax
; File C:\Program Files (x86)\Microsoft Visual Studio\2019\Community\VC\Tools\MSVC\14.24.28314\atlmfc\include\atlstr.h

; 42   : 	}

	mov	eax, ecx
; File C:\Program Files (x86)\Microsoft Visual Studio\2019\Community\VC\Tools\MSVC\14.24.28314\atlmfc\include\atlsimpstr.h

; 115  : 		nRefs = 2;  // Never gets freed by IAtlStringMgr

	mov	DWORD PTR [ecx+20], 2

; 116  : 		nDataLength = 0;

	mov	DWORD PTR [ecx+12], 0

; 117  : 		nAllocLength = 0;

	mov	DWORD PTR [ecx+16], 0
; File C:\Program Files (x86)\Microsoft Visual Studio\2019\Community\VC\Tools\MSVC\14.24.28314\atlmfc\include\atlstr.h

; 41   : 		m_nil.SetManager( this );

	mov	DWORD PTR [ecx+8], ecx

; 42   : 	}

	pop	ebp
	ret	4
??0CAtlStringMgr@ATL@@QAE@PAUIAtlMemMgr@1@@Z ENDP	; ATL::CAtlStringMgr::CAtlStringMgr
_TEXT	ENDS
; Function compile flags: /Ogtp
; File C:\Program Files (x86)\Microsoft Visual Studio\2019\Community\VC\Tools\MSVC\14.24.28314\atlmfc\include\atlstr.h
; File C:\Program Files (x86)\Microsoft Visual Studio\2019\Community\VC\Tools\MSVC\14.24.28314\atlmfc\include\atlmem.h
; File C:\Program Files (x86)\Microsoft Visual Studio\2019\Community\VC\Tools\MSVC\14.24.28314\atlmfc\include\atlstr.h
; File C:\Program Files (x86)\Microsoft Visual Studio\2019\Community\VC\Tools\MSVC\14.24.28314\atlmfc\include\atlsimpstr.h
; File C:\Program Files (x86)\Microsoft Visual Studio\2019\Community\VC\Tools\MSVC\14.24.28314\atlmfc\include\atlstr.h
; File C:\Program Files (x86)\Microsoft Visual Studio\2019\Community\VC\Tools\MSVC\14.24.28314\atlmfc\include\atlsimpstr.h
; File C:\Program Files (x86)\Microsoft Visual Studio\2019\Community\VC\Tools\MSVC\14.24.28314\atlmfc\include\atlstr.h
;	COMDAT ?GetInstance@CAtlStringMgr@ATL@@SAPAUIAtlStringMgr@2@XZ
_TEXT	SEGMENT
?GetInstance@CAtlStringMgr@ATL@@SAPAUIAtlStringMgr@2@XZ PROC ; ATL::CAtlStringMgr::GetInstance, COMDAT

; 54   : 		static CWin32Heap strHeap( ::GetProcessHeap() );

	mov	eax, DWORD PTR fs:__tls_array
	push	esi
	mov	esi, DWORD PTR [eax]
	mov	eax, DWORD PTR ?$TSS0@?1??GetInstance@CAtlStringMgr@ATL@@SAPAUIAtlStringMgr@3@XZ@4HA ; TSS0<`template-parameter-2',ATL::CAtlStringMgr::tInstance,ATL::IAtlStringMgr * * const volatile,void,int, ?? &>
	cmp	eax, DWORD PTR __Init_thread_epoch[esi]
	jle	SHORT $LN2@GetInstanc
	push	OFFSET ?$TSS0@?1??GetInstance@CAtlStringMgr@ATL@@SAPAUIAtlStringMgr@3@XZ@4HA ; TSS0<`template-parameter-2',ATL::CAtlStringMgr::tInstance,ATL::IAtlStringMgr * * const volatile,void,int, ?? &>
	call	__Init_thread_header
	add	esp, 4
	cmp	DWORD PTR ?$TSS0@?1??GetInstance@CAtlStringMgr@ATL@@SAPAUIAtlStringMgr@3@XZ@4HA, -1 ; TSS0<`template-parameter-2',ATL::CAtlStringMgr::tInstance,ATL::IAtlStringMgr * * const volatile,void,int, ?? &>
	jne	SHORT $LN2@GetInstanc
	call	DWORD PTR __imp__GetProcessHeap@0
	push	OFFSET ??__FstrHeap@?1??GetInstance@CAtlStringMgr@ATL@@SAPAUIAtlStringMgr@2@XZ@YAXXZ ; `ATL::CAtlStringMgr::GetInstance'::`2'::`dynamic atexit destructor for 'strHeap''
; File C:\Program Files (x86)\Microsoft Visual Studio\2019\Community\VC\Tools\MSVC\14.24.28314\atlmfc\include\atlmem.h

; 89   : 	{

	mov	DWORD PTR ?strHeap@?1??GetInstance@CAtlStringMgr@ATL@@SAPAUIAtlStringMgr@3@XZ@4VCWin32Heap@3@A, OFFSET ??_7CWin32Heap@ATL@@6B@
	mov	DWORD PTR ?strHeap@?1??GetInstance@CAtlStringMgr@ATL@@SAPAUIAtlStringMgr@3@XZ@4VCWin32Heap@3@A+4, eax
	mov	BYTE PTR ?strHeap@?1??GetInstance@CAtlStringMgr@ATL@@SAPAUIAtlStringMgr@3@XZ@4VCWin32Heap@3@A+8, 0
; File C:\Program Files (x86)\Microsoft Visual Studio\2019\Community\VC\Tools\MSVC\14.24.28314\atlmfc\include\atlstr.h

; 54   : 		static CWin32Heap strHeap( ::GetProcessHeap() );

	call	_atexit
	push	OFFSET ?$TSS0@?1??GetInstance@CAtlStringMgr@ATL@@SAPAUIAtlStringMgr@3@XZ@4HA ; TSS0<`template-parameter-2',ATL::CAtlStringMgr::tInstance,ATL::IAtlStringMgr * * const volatile,void,int, ?? &>
	call	__Init_thread_footer
	add	esp, 8
$LN2@GetInstanc:

; 55   : 		static CAtlStringMgr strMgr(&strHeap);

	mov	eax, DWORD PTR ?$TSS1@?1??GetInstance@CAtlStringMgr@ATL@@SAPAUIAtlStringMgr@3@XZ@4HA ; TSS1<`template-parameter-2',ATL::CAtlStringMgr::tInstance,ATL::IAtlStringMgr * * const volatile,void,int, ?? &>
	cmp	eax, DWORD PTR __Init_thread_epoch[esi]
	pop	esi
	jle	SHORT $LN11@GetInstanc
	push	OFFSET ?$TSS1@?1??GetInstance@CAtlStringMgr@ATL@@SAPAUIAtlStringMgr@3@XZ@4HA ; TSS1<`template-parameter-2',ATL::CAtlStringMgr::tInstance,ATL::IAtlStringMgr * * const volatile,void,int, ?? &>
	call	__Init_thread_header
	add	esp, 4
	cmp	DWORD PTR ?$TSS1@?1??GetInstance@CAtlStringMgr@ATL@@SAPAUIAtlStringMgr@3@XZ@4HA, -1 ; TSS1<`template-parameter-2',ATL::CAtlStringMgr::tInstance,ATL::IAtlStringMgr * * const volatile,void,int, ?? &>
	jne	SHORT $LN11@GetInstanc
; File C:\Program Files (x86)\Microsoft Visual Studio\2019\Community\VC\Tools\MSVC\14.24.28314\atlmfc\include\atlsimpstr.h

; 118  : 		achNil[0] = 0;

	xor	eax, eax
; File C:\Program Files (x86)\Microsoft Visual Studio\2019\Community\VC\Tools\MSVC\14.24.28314\atlmfc\include\atlstr.h

; 40   : 	{

	mov	DWORD PTR ?strMgr@?1??GetInstance@CAtlStringMgr@ATL@@SAPAUIAtlStringMgr@3@XZ@4V23@A, OFFSET ??_7CAtlStringMgr@ATL@@6B@

; 55   : 		static CAtlStringMgr strMgr(&strHeap);

	push	OFFSET ??__FstrMgr@?1??GetInstance@CAtlStringMgr@ATL@@SAPAUIAtlStringMgr@2@XZ@YAXXZ ; `ATL::CAtlStringMgr::GetInstance'::`2'::`dynamic atexit destructor for 'strMgr''

; 39   : 		m_pMemMgr( pMemMgr )

	mov	DWORD PTR ?strMgr@?1??GetInstance@CAtlStringMgr@ATL@@SAPAUIAtlStringMgr@3@XZ@4V23@A+4, OFFSET ?strHeap@?1??GetInstance@CAtlStringMgr@ATL@@SAPAUIAtlStringMgr@3@XZ@4VCWin32Heap@3@A ; `ATL::CAtlStringMgr::GetInstance'::`2'::strHeap
; File C:\Program Files (x86)\Microsoft Visual Studio\2019\Community\VC\Tools\MSVC\14.24.28314\atlmfc\include\atlsimpstr.h

; 115  : 		nRefs = 2;  // Never gets freed by IAtlStringMgr

	mov	DWORD PTR ?strMgr@?1??GetInstance@CAtlStringMgr@ATL@@SAPAUIAtlStringMgr@3@XZ@4V23@A+20, 2

; 116  : 		nDataLength = 0;

	mov	DWORD PTR ?strMgr@?1??GetInstance@CAtlStringMgr@ATL@@SAPAUIAtlStringMgr@3@XZ@4V23@A+12, 0

; 117  : 		nAllocLength = 0;

	mov	DWORD PTR ?strMgr@?1??GetInstance@CAtlStringMgr@ATL@@SAPAUIAtlStringMgr@3@XZ@4V23@A+16, 0

; 118  : 		achNil[0] = 0;

	mov	DWORD PTR ?strMgr@?1??GetInstance@CAtlStringMgr@ATL@@SAPAUIAtlStringMgr@3@XZ@4V23@A+24, eax
; File C:\Program Files (x86)\Microsoft Visual Studio\2019\Community\VC\Tools\MSVC\14.24.28314\atlmfc\include\atlstr.h

; 41   : 		m_nil.SetManager( this );

	mov	DWORD PTR ?strMgr@?1??GetInstance@CAtlStringMgr@ATL@@SAPAUIAtlStringMgr@3@XZ@4V23@A+8, OFFSET ?strMgr@?1??GetInstance@CAtlStringMgr@ATL@@SAPAUIAtlStringMgr@3@XZ@4V23@A ; `ATL::CAtlStringMgr::GetInstance'::`2'::strMgr

; 55   : 		static CAtlStringMgr strMgr(&strHeap);

	call	_atexit
	push	OFFSET ?$TSS1@?1??GetInstance@CAtlStringMgr@ATL@@SAPAUIAtlStringMgr@3@XZ@4HA ; TSS1<`template-parameter-2',ATL::CAtlStringMgr::tInstance,ATL::IAtlStringMgr * * const volatile,void,int, ?? &>
	call	__Init_thread_footer
	add	esp, 8
$LN11@GetInstanc:

; 56   : #pragma warning(pop)
; 57   : 
; 58   : 		return &strMgr;
; 59   : 	}

	mov	eax, OFFSET ?strMgr@?1??GetInstance@CAtlStringMgr@ATL@@SAPAUIAtlStringMgr@3@XZ@4V23@A ; `ATL::CAtlStringMgr::GetInstance'::`2'::strMgr
	ret	0
?GetInstance@CAtlStringMgr@ATL@@SAPAUIAtlStringMgr@2@XZ ENDP ; ATL::CAtlStringMgr::GetInstance
_TEXT	ENDS
; Function compile flags: /Ogtp
; File C:\Program Files (x86)\Microsoft Visual Studio\2019\Community\VC\Tools\MSVC\14.24.28314\atlmfc\include\atlstr.h
; File C:\Program Files (x86)\Microsoft Visual Studio\2019\Community\VC\Tools\MSVC\14.24.28314\atlmfc\include\atlalloc.h
; File C:\Program Files (x86)\Microsoft Visual Studio\2019\Community\VC\Tools\MSVC\14.24.28314\atlmfc\include\atlmem.h
; File C:\Program Files (x86)\Microsoft Visual Studio\2019\Community\VC\Tools\MSVC\14.24.28314\atlmfc\include\atlstr.h
; File C:\Program Files (x86)\Microsoft Visual Studio\2019\Community\VC\Tools\MSVC\14.24.28314\atlmfc\include\atlalloc.h
; File C:\Program Files (x86)\Microsoft Visual Studio\2019\Community\VC\Tools\MSVC\14.24.28314\atlmfc\include\atlstr.h
; File C:\Program Files (x86)\Microsoft Visual Studio\2019\Community\VC\Tools\MSVC\14.24.28314\atlmfc\include\atlalloc.h
; File C:\Program Files (x86)\Microsoft Visual Studio\2019\Community\VC\Tools\MSVC\14.24.28314\atlmfc\include\atlstr.h
;	COMDAT ?Allocate@CAtlStringMgr@ATL@@UAEPAUCStringData@2@HH@Z
_TEXT	SEGMENT
_nChars$ = 8						; size = 4
_nCharSize$ = 12					; size = 4
?Allocate@CAtlStringMgr@ATL@@UAEPAUCStringData@2@HH@Z PROC ; ATL::CAtlStringMgr::Allocate, COMDAT
; _this$ = ecx

; 65   : 	{

	push	ebp
	mov	ebp, esp

; 66   : 		ATLENSURE_RETURN_VAL( nChars>=0, NULL );

	mov	edx, DWORD PTR _nChars$[ebp]
	push	esi
	push	edi
	mov	edi, ecx
	test	edx, edx
	js	SHORT $LN12@Allocate
; File C:\Program Files (x86)\Microsoft Visual Studio\2019\Community\VC\Tools\MSVC\14.24.28314\atlmfc\include\atlalloc.h

; 85   : 	if(::ATL::AtlLimits<T>::_Max-tLeft < tRight)

	mov	eax, 2147483647				; 7fffffffH
	sub	eax, edx
	cmp	eax, 1
	jl	SHORT $LN12@Allocate

; 89   : 	*ptResult= tLeft + tRight;

	inc	edx
; File C:\Program Files (x86)\Microsoft Visual Studio\2019\Community\VC\Tools\MSVC\14.24.28314\atlmfc\include\atlmem.h

; 29   : 	return( N( (n+(nAlign-1))&~(N( nAlign )-1) ) );

	lea	esi, DWORD PTR [edx+7]
	and	esi, -8					; fffffff8H
; File C:\Program Files (x86)\Microsoft Visual Studio\2019\Community\VC\Tools\MSVC\14.24.28314\atlmfc\include\atlstr.h

; 78   : 		ATLENSURE_RETURN_VAL( nChars<=nAlignedChars, NULL );

	cmp	edx, esi
	jg	SHORT $LN12@Allocate
; File C:\Program Files (x86)\Microsoft Visual Studio\2019\Community\VC\Tools\MSVC\14.24.28314\atlmfc\include\atlalloc.h

; 136  : 	unsigned __int64 i64Result=static_cast<unsigned __int64>(iLeft) * static_cast<unsigned __int64>(iRight);

	mov	eax, esi
	mul	DWORD PTR _nCharSize$[ebp]

; 137  : 	if(i64Result>UINT_MAX)

	test	edx, edx
	ja	SHORT $LN12@Allocate
	jb	SHORT $LN41@Allocate
	cmp	eax, -1
	ja	SHORT $LN12@Allocate
$LN41@Allocate:

; 85   : 	if(::ATL::AtlLimits<T>::_Max-tLeft < tRight)

	cmp	eax, -17				; ffffffefH
	ja	SHORT $LN12@Allocate
; File C:\Program Files (x86)\Microsoft Visual Studio\2019\Community\VC\Tools\MSVC\14.24.28314\atlmfc\include\atlstr.h

; 85   : 		pData = static_cast< CStringData* >( m_pMemMgr->Allocate( nTotalSize ) );

	mov	ecx, DWORD PTR [edi+4]
; File C:\Program Files (x86)\Microsoft Visual Studio\2019\Community\VC\Tools\MSVC\14.24.28314\atlmfc\include\atlalloc.h

; 89   : 	*ptResult= tLeft + tRight;

	lea	edx, DWORD PTR [eax+16]
; File C:\Program Files (x86)\Microsoft Visual Studio\2019\Community\VC\Tools\MSVC\14.24.28314\atlmfc\include\atlstr.h

; 85   : 		pData = static_cast< CStringData* >( m_pMemMgr->Allocate( nTotalSize ) );

	push	edx
	mov	eax, DWORD PTR [ecx]
	call	DWORD PTR [eax]

; 86   : 		if( pData == NULL )

	test	eax, eax
	je	SHORT $LN12@Allocate

; 87   : 		{
; 88   : 			return( NULL );
; 89   : 		}
; 90   : 		pData->pStringMgr = this;

	mov	DWORD PTR [eax], edi

; 91   : 		pData->nRefs = 1;
; 92   : 		pData->nAllocLength = nAlignedChars - 1;

	lea	ecx, DWORD PTR [esi-1]
	pop	edi
	mov	DWORD PTR [eax+12], 1
	mov	DWORD PTR [eax+8], ecx

; 93   : 		pData->nDataLength = 0;

	mov	DWORD PTR [eax+4], 0

; 94   : 
; 95   : 		return( pData );
; 96   : 	}

	pop	esi
	pop	ebp
	ret	8
$LN12@Allocate:
	pop	edi

; 79   : 
; 80   : 		if(	FAILED(::ATL::AtlMultiply(&nDataBytes, static_cast<size_t>(nAlignedChars), static_cast<size_t>(nCharSize))) ||
; 81   : 			FAILED(::ATL::AtlAdd(&nTotalSize, static_cast<size_t>(sizeof( CStringData )), nDataBytes)))
; 82   : 		{
; 83   : 			return NULL;

	xor	eax, eax

; 94   : 
; 95   : 		return( pData );
; 96   : 	}

	pop	esi
	pop	ebp
	ret	8
?Allocate@CAtlStringMgr@ATL@@UAEPAUCStringData@2@HH@Z ENDP ; ATL::CAtlStringMgr::Allocate
_TEXT	ENDS
; Function compile flags: /Ogtp
; File C:\Program Files (x86)\Microsoft Visual Studio\2019\Community\VC\Tools\MSVC\14.24.28314\atlmfc\include\atlstr.h
;	COMDAT ?Free@CAtlStringMgr@ATL@@UAEXPAUCStringData@2@@Z
_TEXT	SEGMENT
_pData$ = 8						; size = 4
?Free@CAtlStringMgr@ATL@@UAEXPAUCStringData@2@@Z PROC	; ATL::CAtlStringMgr::Free, COMDAT
; _this$ = ecx

; 98   : 	{

	push	ebp
	mov	ebp, esp

; 99   : 		ATLASSUME(pData != NULL);
; 100  : 		ATLASSERT(pData->pStringMgr == this);
; 101  : 
; 102  : 		m_pMemMgr->Free( pData );

	mov	ecx, DWORD PTR [ecx+4]
	mov	eax, DWORD PTR [ecx]

; 103  : 	}

	pop	ebp

; 99   : 		ATLASSUME(pData != NULL);
; 100  : 		ATLASSERT(pData->pStringMgr == this);
; 101  : 
; 102  : 		m_pMemMgr->Free( pData );

	jmp	DWORD PTR [eax+4]
?Free@CAtlStringMgr@ATL@@UAEXPAUCStringData@2@@Z ENDP	; ATL::CAtlStringMgr::Free
_TEXT	ENDS
; Function compile flags: /Ogtp
; File C:\Program Files (x86)\Microsoft Visual Studio\2019\Community\VC\Tools\MSVC\14.24.28314\atlmfc\include\atlstr.h
; File C:\Program Files (x86)\Microsoft Visual Studio\2019\Community\VC\Tools\MSVC\14.24.28314\atlmfc\include\atlalloc.h
; File C:\Program Files (x86)\Microsoft Visual Studio\2019\Community\VC\Tools\MSVC\14.24.28314\atlmfc\include\atlmem.h
; File C:\Program Files (x86)\Microsoft Visual Studio\2019\Community\VC\Tools\MSVC\14.24.28314\atlmfc\include\atlstr.h
; File C:\Program Files (x86)\Microsoft Visual Studio\2019\Community\VC\Tools\MSVC\14.24.28314\atlmfc\include\atlalloc.h
; File C:\Program Files (x86)\Microsoft Visual Studio\2019\Community\VC\Tools\MSVC\14.24.28314\atlmfc\include\atlstr.h
; File C:\Program Files (x86)\Microsoft Visual Studio\2019\Community\VC\Tools\MSVC\14.24.28314\atlmfc\include\atlalloc.h
; File C:\Program Files (x86)\Microsoft Visual Studio\2019\Community\VC\Tools\MSVC\14.24.28314\atlmfc\include\atlstr.h
;	COMDAT ?Reallocate@CAtlStringMgr@ATL@@UAEPAUCStringData@2@PAU32@HH@Z
_TEXT	SEGMENT
_pData$ = 8						; size = 4
_nChars$ = 12						; size = 4
_nCharSize$ = 16					; size = 4
?Reallocate@CAtlStringMgr@ATL@@UAEPAUCStringData@2@PAU32@HH@Z PROC ; ATL::CAtlStringMgr::Reallocate, COMDAT
; _this$ = ecx

; 108  : 	{

	push	ebp
	mov	ebp, esp

; 109  : 		ATLENSURE_RETURN_VAL( nChars>=0, NULL );

	mov	edx, DWORD PTR _nChars$[ebp]
	push	esi
	test	edx, edx
	js	SHORT $LN12@Reallocate
; File C:\Program Files (x86)\Microsoft Visual Studio\2019\Community\VC\Tools\MSVC\14.24.28314\atlmfc\include\atlalloc.h

; 85   : 	if(::ATL::AtlLimits<T>::_Max-tLeft < tRight)

	mov	eax, 2147483647				; 7fffffffH
	sub	eax, edx
	cmp	eax, 1
	jl	SHORT $LN12@Reallocate

; 89   : 	*ptResult= tLeft + tRight;

	inc	edx
; File C:\Program Files (x86)\Microsoft Visual Studio\2019\Community\VC\Tools\MSVC\14.24.28314\atlmfc\include\atlmem.h

; 29   : 	return( N( (n+(nAlign-1))&~(N( nAlign )-1) ) );

	lea	esi, DWORD PTR [edx+7]
	and	esi, -8					; fffffff8H
; File C:\Program Files (x86)\Microsoft Visual Studio\2019\Community\VC\Tools\MSVC\14.24.28314\atlmfc\include\atlstr.h

; 122  : 		ATLENSURE_RETURN_VAL( nChars<=nAlignedChars, NULL );

	cmp	edx, esi
	jg	SHORT $LN12@Reallocate
; File C:\Program Files (x86)\Microsoft Visual Studio\2019\Community\VC\Tools\MSVC\14.24.28314\atlmfc\include\atlalloc.h

; 166  : 	unsigned __int64 i64Result=static_cast<unsigned __int64>(iLeft) * static_cast<unsigned __int64>(iRight);

	mov	eax, esi
	mul	DWORD PTR _nCharSize$[ebp]

; 167  : 	if(i64Result>ULONG_MAX)

	test	edx, edx
	ja	SHORT $LN12@Reallocate
	jb	SHORT $LN41@Reallocate
	cmp	eax, -1
	ja	SHORT $LN12@Reallocate
$LN41@Reallocate:

; 85   : 	if(::ATL::AtlLimits<T>::_Max-tLeft < tRight)

	cmp	eax, -17				; ffffffefH
	ja	SHORT $LN12@Reallocate
; File C:\Program Files (x86)\Microsoft Visual Studio\2019\Community\VC\Tools\MSVC\14.24.28314\atlmfc\include\atlstr.h

; 129  : 		pNewData = static_cast< CStringData* >( m_pMemMgr->Reallocate( pData, nTotalSize ) );

	mov	ecx, DWORD PTR [ecx+4]
; File C:\Program Files (x86)\Microsoft Visual Studio\2019\Community\VC\Tools\MSVC\14.24.28314\atlmfc\include\atlalloc.h

; 89   : 	*ptResult= tLeft + tRight;

	add	eax, 16					; 00000010H
; File C:\Program Files (x86)\Microsoft Visual Studio\2019\Community\VC\Tools\MSVC\14.24.28314\atlmfc\include\atlstr.h

; 129  : 		pNewData = static_cast< CStringData* >( m_pMemMgr->Reallocate( pData, nTotalSize ) );

	push	eax
	push	DWORD PTR _pData$[ebp]
	mov	edx, DWORD PTR [ecx]
	call	DWORD PTR [edx+8]

; 130  : 		if( pNewData == NULL )

	test	eax, eax
	je	SHORT $LN12@Reallocate

; 131  : 		{
; 132  : 			return NULL;
; 133  : 		}
; 134  : 		pNewData->nAllocLength = nAlignedChars - 1;

	lea	ecx, DWORD PTR [esi-1]
	mov	DWORD PTR [eax+8], ecx
	pop	esi

; 135  : 
; 136  : 		return pNewData;
; 137  : 	}

	pop	ebp
	ret	12					; 0000000cH
$LN12@Reallocate:

; 123  : 
; 124  : 		if(	FAILED(::ATL::AtlMultiply(&nDataBytes, static_cast<ULONG>(nAlignedChars), static_cast<ULONG>(nCharSize))) ||
; 125  : 			FAILED(::ATL::AtlAdd(&nTotalSize, static_cast<ULONG>(sizeof( CStringData )), nDataBytes)))
; 126  : 		{
; 127  : 			return NULL;

	xor	eax, eax
	pop	esi

; 135  : 
; 136  : 		return pNewData;
; 137  : 	}

	pop	ebp
	ret	12					; 0000000cH
?Reallocate@CAtlStringMgr@ATL@@UAEPAUCStringData@2@PAU32@HH@Z ENDP ; ATL::CAtlStringMgr::Reallocate
_TEXT	ENDS
; Function compile flags: /Ogtp
; File C:\Program Files (x86)\Microsoft Visual Studio\2019\Community\VC\Tools\MSVC\14.24.28314\atlmfc\include\atlstr.h
; File C:\Program Files (x86)\Microsoft Visual Studio\2019\Community\VC\Tools\MSVC\14.24.28314\atlmfc\include\atlsimpstr.h
; File C:\Program Files (x86)\Microsoft Visual Studio\2019\Community\VC\Tools\MSVC\14.24.28314\atlmfc\include\atlstr.h
;	COMDAT ?GetNilString@CAtlStringMgr@ATL@@UAEPAUCStringData@2@XZ
_TEXT	SEGMENT
?GetNilString@CAtlStringMgr@ATL@@UAEPAUCStringData@2@XZ PROC ; ATL::CAtlStringMgr::GetNilString, COMDAT
; _this$ = ecx
; File C:\Program Files (x86)\Microsoft Visual Studio\2019\Community\VC\Tools\MSVC\14.24.28314\atlmfc\include\atlsimpstr.h

; 65   : 		_InterlockedIncrement(&nRefs);

	lock	 inc	 DWORD PTR [ecx+20]
; File C:\Program Files (x86)\Microsoft Visual Studio\2019\Community\VC\Tools\MSVC\14.24.28314\atlmfc\include\atlstr.h

; 141  : 		return &m_nil;

	lea	eax, DWORD PTR [ecx+8]

; 142  : 	}

	ret	0
?GetNilString@CAtlStringMgr@ATL@@UAEPAUCStringData@2@XZ ENDP ; ATL::CAtlStringMgr::GetNilString
_TEXT	ENDS
; Function compile flags: /Ogtp
; File C:\Program Files (x86)\Microsoft Visual Studio\2019\Community\VC\Tools\MSVC\14.24.28314\atlmfc\include\atlstr.h
;	COMDAT ?Clone@CAtlStringMgr@ATL@@UAEPAUIAtlStringMgr@2@XZ
_TEXT	SEGMENT
?Clone@CAtlStringMgr@ATL@@UAEPAUIAtlStringMgr@2@XZ PROC	; ATL::CAtlStringMgr::Clone, COMDAT
; _this$ = ecx

; 145  : 		return this;

	mov	eax, ecx

; 146  : 	}

	ret	0
?Clone@CAtlStringMgr@ATL@@UAEPAUIAtlStringMgr@2@XZ ENDP	; ATL::CAtlStringMgr::Clone
_TEXT	ENDS
; Function compile flags: /Ogtp
;	COMDAT ??__FstrMgr@?1??GetInstance@CAtlStringMgr@ATL@@SAPAUIAtlStringMgr@2@XZ@YAXXZ
text$yd	SEGMENT
??__FstrMgr@?1??GetInstance@CAtlStringMgr@ATL@@SAPAUIAtlStringMgr@2@XZ@YAXXZ PROC ; `ATL::CAtlStringMgr::GetInstance'::`2'::`dynamic atexit destructor for 'strMgr'', COMDAT
	ret	0
??__FstrMgr@?1??GetInstance@CAtlStringMgr@ATL@@SAPAUIAtlStringMgr@2@XZ@YAXXZ ENDP ; `ATL::CAtlStringMgr::GetInstance'::`2'::`dynamic atexit destructor for 'strMgr''
text$yd	ENDS
; Function compile flags: /Ogtp
; File C:\Program Files (x86)\Microsoft Visual Studio\2019\Community\VC\Tools\MSVC\14.24.28314\atlmfc\include\atlmem.h
;	COMDAT ??__FstrHeap@?1??GetInstance@CAtlStringMgr@ATL@@SAPAUIAtlStringMgr@2@XZ@YAXXZ
text$yd	SEGMENT
??__FstrHeap@?1??GetInstance@CAtlStringMgr@ATL@@SAPAUIAtlStringMgr@2@XZ@YAXXZ PROC ; `ATL::CAtlStringMgr::GetInstance'::`2'::`dynamic atexit destructor for 'strHeap'', COMDAT

; 111  : 		if( m_bOwnHeap && (m_hHeap != NULL) )

	cmp	BYTE PTR ?strHeap@?1??GetInstance@CAtlStringMgr@ATL@@SAPAUIAtlStringMgr@3@XZ@4VCWin32Heap@3@A+8, 0
	mov	DWORD PTR ?strHeap@?1??GetInstance@CAtlStringMgr@ATL@@SAPAUIAtlStringMgr@3@XZ@4VCWin32Heap@3@A, OFFSET ??_7CWin32Heap@ATL@@6B@
	je	SHORT $LN4@dynamic
	mov	eax, DWORD PTR ?strHeap@?1??GetInstance@CAtlStringMgr@ATL@@SAPAUIAtlStringMgr@3@XZ@4VCWin32Heap@3@A+4
	test	eax, eax
	je	SHORT $LN4@dynamic

; 112  : 		{
; 113  : 			BOOL bSuccess;
; 114  : 
; 115  : 			bSuccess = ::HeapDestroy( m_hHeap );

	push	eax
	call	DWORD PTR __imp__HeapDestroy@4
$LN4@dynamic:
	ret	0
??__FstrHeap@?1??GetInstance@CAtlStringMgr@ATL@@SAPAUIAtlStringMgr@2@XZ@YAXXZ ENDP ; `ATL::CAtlStringMgr::GetInstance'::`2'::`dynamic atexit destructor for 'strHeap''
text$yd	ENDS
; Function compile flags: /Ogtp
;	COMDAT ??_GCAtlStringMgr@ATL@@UAEPAXI@Z
_TEXT	SEGMENT
___flags$ = 8						; size = 4
??_GCAtlStringMgr@ATL@@UAEPAXI@Z PROC			; ATL::CAtlStringMgr::`scalar deleting destructor', COMDAT
; _this$ = ecx
	push	ebp
	mov	ebp, esp
	test	BYTE PTR ___flags$[ebp], 1
	push	esi
	mov	esi, ecx
	je	SHORT $LN4@scalar
	push	28					; 0000001cH
	push	esi
	call	??3@YAXPAXI@Z				; operator delete
	add	esp, 8
$LN4@scalar:
	mov	eax, esi
	pop	esi
	pop	ebp
	ret	4
??_GCAtlStringMgr@ATL@@UAEPAXI@Z ENDP			; ATL::CAtlStringMgr::`scalar deleting destructor'
_TEXT	ENDS
; Function compile flags: /Ogtp
; File C:\Program Files (x86)\Microsoft Visual Studio\2019\Community\VC\Tools\MSVC\14.24.28314\atlmfc\include\atlstr.h
;	COMDAT ??1CAtlStringMgr@ATL@@UAE@XZ
_TEXT	SEGMENT
??1CAtlStringMgr@ATL@@UAE@XZ PROC			; ATL::CAtlStringMgr::~CAtlStringMgr, COMDAT
; _this$ = ecx

; 151  : };

	ret	0
??1CAtlStringMgr@ATL@@UAE@XZ ENDP			; ATL::CAtlStringMgr::~CAtlStringMgr
_TEXT	ENDS
; Function compile flags: /Ogtp
; File C:\Program Files (x86)\Microsoft Visual Studio\2019\Community\VC\Tools\MSVC\14.24.28314\atlmfc\include\atlstr.h
; File C:\Program Files (x86)\Microsoft Visual Studio\2019\Community\VC\Tools\MSVC\14.24.28314\atlmfc\include\atlmem.h
; File C:\Program Files (x86)\Microsoft Visual Studio\2019\Community\VC\Tools\MSVC\14.24.28314\atlmfc\include\atlstr.h
; File C:\Program Files (x86)\Microsoft Visual Studio\2019\Community\VC\Tools\MSVC\14.24.28314\atlmfc\include\atlsimpstr.h
; File C:\Program Files (x86)\Microsoft Visual Studio\2019\Community\VC\Tools\MSVC\14.24.28314\atlmfc\include\atlstr.h
; File C:\Program Files (x86)\Microsoft Visual Studio\2019\Community\VC\Tools\MSVC\14.24.28314\atlmfc\include\atlsimpstr.h
; File C:\Program Files (x86)\Microsoft Visual Studio\2019\Community\VC\Tools\MSVC\14.24.28314\atlmfc\include\atlstr.h
;	COMDAT ??0CAtlStringMgrStaticInitializer@ATLImplementationDetails@ATL@@QAE@XZ
_TEXT	SEGMENT
??0CAtlStringMgrStaticInitializer@ATLImplementationDetails@ATL@@QAE@XZ PROC ; ATL::ATLImplementationDetails::CAtlStringMgrStaticInitializer::CAtlStringMgrStaticInitializer, COMDAT
; _this$ = ecx

; 54   : 		static CWin32Heap strHeap( ::GetProcessHeap() );

	mov	eax, DWORD PTR fs:__tls_array

; 157  : 	CAtlStringMgrStaticInitializer() { (void)CAtlStringMgr::GetInstance(); }

	push	esi
	push	edi
	mov	esi, ecx

; 54   : 		static CWin32Heap strHeap( ::GetProcessHeap() );

	mov	edi, DWORD PTR [eax]
	mov	eax, DWORD PTR ?$TSS0@?1??GetInstance@CAtlStringMgr@ATL@@SAPAUIAtlStringMgr@3@XZ@4HA ; TSS0<`template-parameter-2',ATL::CAtlStringMgr::tInstance,ATL::IAtlStringMgr * * const volatile,void,int, ?? &>
	cmp	eax, DWORD PTR __Init_thread_epoch[edi]
	jle	SHORT $LN4@CAtlString
	push	OFFSET ?$TSS0@?1??GetInstance@CAtlStringMgr@ATL@@SAPAUIAtlStringMgr@3@XZ@4HA ; TSS0<`template-parameter-2',ATL::CAtlStringMgr::tInstance,ATL::IAtlStringMgr * * const volatile,void,int, ?? &>
	call	__Init_thread_header
	add	esp, 4
	cmp	DWORD PTR ?$TSS0@?1??GetInstance@CAtlStringMgr@ATL@@SAPAUIAtlStringMgr@3@XZ@4HA, -1 ; TSS0<`template-parameter-2',ATL::CAtlStringMgr::tInstance,ATL::IAtlStringMgr * * const volatile,void,int, ?? &>
	jne	SHORT $LN4@CAtlString
	call	DWORD PTR __imp__GetProcessHeap@0
	push	OFFSET ??__FstrHeap@?1??GetInstance@CAtlStringMgr@ATL@@SAPAUIAtlStringMgr@2@XZ@YAXXZ ; `ATL::CAtlStringMgr::GetInstance'::`2'::`dynamic atexit destructor for 'strHeap''
; File C:\Program Files (x86)\Microsoft Visual Studio\2019\Community\VC\Tools\MSVC\14.24.28314\atlmfc\include\atlmem.h

; 89   : 	{

	mov	DWORD PTR ?strHeap@?1??GetInstance@CAtlStringMgr@ATL@@SAPAUIAtlStringMgr@3@XZ@4VCWin32Heap@3@A, OFFSET ??_7CWin32Heap@ATL@@6B@
	mov	DWORD PTR ?strHeap@?1??GetInstance@CAtlStringMgr@ATL@@SAPAUIAtlStringMgr@3@XZ@4VCWin32Heap@3@A+4, eax
	mov	BYTE PTR ?strHeap@?1??GetInstance@CAtlStringMgr@ATL@@SAPAUIAtlStringMgr@3@XZ@4VCWin32Heap@3@A+8, 0
; File C:\Program Files (x86)\Microsoft Visual Studio\2019\Community\VC\Tools\MSVC\14.24.28314\atlmfc\include\atlstr.h

; 54   : 		static CWin32Heap strHeap( ::GetProcessHeap() );

	call	_atexit
	push	OFFSET ?$TSS0@?1??GetInstance@CAtlStringMgr@ATL@@SAPAUIAtlStringMgr@3@XZ@4HA ; TSS0<`template-parameter-2',ATL::CAtlStringMgr::tInstance,ATL::IAtlStringMgr * * const volatile,void,int, ?? &>
	call	__Init_thread_footer
	add	esp, 8
$LN4@CAtlString:

; 55   : 		static CAtlStringMgr strMgr(&strHeap);

	mov	eax, DWORD PTR ?$TSS1@?1??GetInstance@CAtlStringMgr@ATL@@SAPAUIAtlStringMgr@3@XZ@4HA ; TSS1<`template-parameter-2',ATL::CAtlStringMgr::tInstance,ATL::IAtlStringMgr * * const volatile,void,int, ?? &>
	cmp	eax, DWORD PTR __Init_thread_epoch[edi]
	jle	SHORT $LN13@CAtlString
	push	OFFSET ?$TSS1@?1??GetInstance@CAtlStringMgr@ATL@@SAPAUIAtlStringMgr@3@XZ@4HA ; TSS1<`template-parameter-2',ATL::CAtlStringMgr::tInstance,ATL::IAtlStringMgr * * const volatile,void,int, ?? &>
	call	__Init_thread_header
	add	esp, 4
	cmp	DWORD PTR ?$TSS1@?1??GetInstance@CAtlStringMgr@ATL@@SAPAUIAtlStringMgr@3@XZ@4HA, -1 ; TSS1<`template-parameter-2',ATL::CAtlStringMgr::tInstance,ATL::IAtlStringMgr * * const volatile,void,int, ?? &>
	jne	SHORT $LN13@CAtlString
; File C:\Program Files (x86)\Microsoft Visual Studio\2019\Community\VC\Tools\MSVC\14.24.28314\atlmfc\include\atlsimpstr.h

; 118  : 		achNil[0] = 0;

	xor	eax, eax
; File C:\Program Files (x86)\Microsoft Visual Studio\2019\Community\VC\Tools\MSVC\14.24.28314\atlmfc\include\atlstr.h

; 40   : 	{

	mov	DWORD PTR ?strMgr@?1??GetInstance@CAtlStringMgr@ATL@@SAPAUIAtlStringMgr@3@XZ@4V23@A, OFFSET ??_7CAtlStringMgr@ATL@@6B@

; 55   : 		static CAtlStringMgr strMgr(&strHeap);

	push	OFFSET ??__FstrMgr@?1??GetInstance@CAtlStringMgr@ATL@@SAPAUIAtlStringMgr@2@XZ@YAXXZ ; `ATL::CAtlStringMgr::GetInstance'::`2'::`dynamic atexit destructor for 'strMgr''

; 39   : 		m_pMemMgr( pMemMgr )

	mov	DWORD PTR ?strMgr@?1??GetInstance@CAtlStringMgr@ATL@@SAPAUIAtlStringMgr@3@XZ@4V23@A+4, OFFSET ?strHeap@?1??GetInstance@CAtlStringMgr@ATL@@SAPAUIAtlStringMgr@3@XZ@4VCWin32Heap@3@A ; `ATL::CAtlStringMgr::GetInstance'::`2'::strHeap
; File C:\Program Files (x86)\Microsoft Visual Studio\2019\Community\VC\Tools\MSVC\14.24.28314\atlmfc\include\atlsimpstr.h

; 115  : 		nRefs = 2;  // Never gets freed by IAtlStringMgr

	mov	DWORD PTR ?strMgr@?1??GetInstance@CAtlStringMgr@ATL@@SAPAUIAtlStringMgr@3@XZ@4V23@A+20, 2

; 116  : 		nDataLength = 0;

	mov	DWORD PTR ?strMgr@?1??GetInstance@CAtlStringMgr@ATL@@SAPAUIAtlStringMgr@3@XZ@4V23@A+12, 0

; 117  : 		nAllocLength = 0;

	mov	DWORD PTR ?strMgr@?1??GetInstance@CAtlStringMgr@ATL@@SAPAUIAtlStringMgr@3@XZ@4V23@A+16, 0

; 118  : 		achNil[0] = 0;

	mov	DWORD PTR ?strMgr@?1??GetInstance@CAtlStringMgr@ATL@@SAPAUIAtlStringMgr@3@XZ@4V23@A+24, eax
; File C:\Program Files (x86)\Microsoft Visual Studio\2019\Community\VC\Tools\MSVC\14.24.28314\atlmfc\include\atlstr.h

; 41   : 		m_nil.SetManager( this );

	mov	DWORD PTR ?strMgr@?1??GetInstance@CAtlStringMgr@ATL@@SAPAUIAtlStringMgr@3@XZ@4V23@A+8, OFFSET ?strMgr@?1??GetInstance@CAtlStringMgr@ATL@@SAPAUIAtlStringMgr@3@XZ@4V23@A ; `ATL::CAtlStringMgr::GetInstance'::`2'::strMgr

; 55   : 		static CAtlStringMgr strMgr(&strHeap);

	call	_atexit
	push	OFFSET ?$TSS1@?1??GetInstance@CAtlStringMgr@ATL@@SAPAUIAtlStringMgr@3@XZ@4HA ; TSS1<`template-parameter-2',ATL::CAtlStringMgr::tInstance,ATL::IAtlStringMgr * * const volatile,void,int, ?? &>
	call	__Init_thread_footer
	add	esp, 8
$LN13@CAtlString:
	pop	edi

; 157  : 	CAtlStringMgrStaticInitializer() { (void)CAtlStringMgr::GetInstance(); }

	mov	eax, esi
	pop	esi
	ret	0
??0CAtlStringMgrStaticInitializer@ATLImplementationDetails@ATL@@QAE@XZ ENDP ; ATL::ATLImplementationDetails::CAtlStringMgrStaticInitializer::CAtlStringMgrStaticInitializer
_TEXT	ENDS
; Function compile flags: /Ogtp
; File C:\Program Files (x86)\Microsoft Visual Studio\2019\Community\VC\Tools\MSVC\14.24.28314\atlmfc\include\atlstr.h
; File C:\Program Files (x86)\Microsoft Visual Studio\2019\Community\VC\Tools\MSVC\14.24.28314\atlmfc\include\atlmem.h
; File C:\Program Files (x86)\Microsoft Visual Studio\2019\Community\VC\Tools\MSVC\14.24.28314\atlmfc\include\atlstr.h
; File C:\Program Files (x86)\Microsoft Visual Studio\2019\Community\VC\Tools\MSVC\14.24.28314\atlmfc\include\atlsimpstr.h
; File C:\Program Files (x86)\Microsoft Visual Studio\2019\Community\VC\Tools\MSVC\14.24.28314\atlmfc\include\atlstr.h
; File C:\Program Files (x86)\Microsoft Visual Studio\2019\Community\VC\Tools\MSVC\14.24.28314\atlmfc\include\atlsimpstr.h
; File C:\Program Files (x86)\Microsoft Visual Studio\2019\Community\VC\Tools\MSVC\14.24.28314\atlmfc\include\atlstr.h
;	COMDAT ??__EInitializeCAtlStringMgr@ATLImplementationDetails@ATL@@YAXXZ
text$di	SEGMENT
??__EInitializeCAtlStringMgr@ATLImplementationDetails@ATL@@YAXXZ PROC ; ATL::ATLImplementationDetails::`dynamic initializer for 'InitializeCAtlStringMgr'', COMDAT

; 54   : 		static CWin32Heap strHeap( ::GetProcessHeap() );

	mov	eax, DWORD PTR fs:__tls_array

; 160  : __declspec(selectany) CAtlStringMgrStaticInitializer InitializeCAtlStringMgr;

	push	esi

; 54   : 		static CWin32Heap strHeap( ::GetProcessHeap() );

	mov	esi, DWORD PTR [eax]
	mov	eax, DWORD PTR ?$TSS0@?1??GetInstance@CAtlStringMgr@ATL@@SAPAUIAtlStringMgr@3@XZ@4HA ; TSS0<`template-parameter-2',ATL::CAtlStringMgr::tInstance,ATL::IAtlStringMgr * * const volatile,void,int, ?? &>
	cmp	eax, DWORD PTR __Init_thread_epoch[esi]
	jle	SHORT $LN6@dynamic
	push	OFFSET ?$TSS0@?1??GetInstance@CAtlStringMgr@ATL@@SAPAUIAtlStringMgr@3@XZ@4HA ; TSS0<`template-parameter-2',ATL::CAtlStringMgr::tInstance,ATL::IAtlStringMgr * * const volatile,void,int, ?? &>
	call	__Init_thread_header
	add	esp, 4
	cmp	DWORD PTR ?$TSS0@?1??GetInstance@CAtlStringMgr@ATL@@SAPAUIAtlStringMgr@3@XZ@4HA, -1 ; TSS0<`template-parameter-2',ATL::CAtlStringMgr::tInstance,ATL::IAtlStringMgr * * const volatile,void,int, ?? &>
	jne	SHORT $LN6@dynamic
	call	DWORD PTR __imp__GetProcessHeap@0
	push	OFFSET ??__FstrHeap@?1??GetInstance@CAtlStringMgr@ATL@@SAPAUIAtlStringMgr@2@XZ@YAXXZ ; `ATL::CAtlStringMgr::GetInstance'::`2'::`dynamic atexit destructor for 'strHeap''
; File C:\Program Files (x86)\Microsoft Visual Studio\2019\Community\VC\Tools\MSVC\14.24.28314\atlmfc\include\atlmem.h

; 89   : 	{

	mov	DWORD PTR ?strHeap@?1??GetInstance@CAtlStringMgr@ATL@@SAPAUIAtlStringMgr@3@XZ@4VCWin32Heap@3@A, OFFSET ??_7CWin32Heap@ATL@@6B@
	mov	DWORD PTR ?strHeap@?1??GetInstance@CAtlStringMgr@ATL@@SAPAUIAtlStringMgr@3@XZ@4VCWin32Heap@3@A+4, eax
	mov	BYTE PTR ?strHeap@?1??GetInstance@CAtlStringMgr@ATL@@SAPAUIAtlStringMgr@3@XZ@4VCWin32Heap@3@A+8, 0
; File C:\Program Files (x86)\Microsoft Visual Studio\2019\Community\VC\Tools\MSVC\14.24.28314\atlmfc\include\atlstr.h

; 54   : 		static CWin32Heap strHeap( ::GetProcessHeap() );

	call	_atexit
	push	OFFSET ?$TSS0@?1??GetInstance@CAtlStringMgr@ATL@@SAPAUIAtlStringMgr@3@XZ@4HA ; TSS0<`template-parameter-2',ATL::CAtlStringMgr::tInstance,ATL::IAtlStringMgr * * const volatile,void,int, ?? &>
	call	__Init_thread_footer
	add	esp, 8
$LN6@dynamic:

; 55   : 		static CAtlStringMgr strMgr(&strHeap);

	mov	eax, DWORD PTR ?$TSS1@?1??GetInstance@CAtlStringMgr@ATL@@SAPAUIAtlStringMgr@3@XZ@4HA ; TSS1<`template-parameter-2',ATL::CAtlStringMgr::tInstance,ATL::IAtlStringMgr * * const volatile,void,int, ?? &>
	cmp	eax, DWORD PTR __Init_thread_epoch[esi]
	pop	esi
	jle	SHORT $LN7@dynamic
	push	OFFSET ?$TSS1@?1??GetInstance@CAtlStringMgr@ATL@@SAPAUIAtlStringMgr@3@XZ@4HA ; TSS1<`template-parameter-2',ATL::CAtlStringMgr::tInstance,ATL::IAtlStringMgr * * const volatile,void,int, ?? &>
	call	__Init_thread_header
	add	esp, 4
	cmp	DWORD PTR ?$TSS1@?1??GetInstance@CAtlStringMgr@ATL@@SAPAUIAtlStringMgr@3@XZ@4HA, -1 ; TSS1<`template-parameter-2',ATL::CAtlStringMgr::tInstance,ATL::IAtlStringMgr * * const volatile,void,int, ?? &>
	jne	SHORT $LN7@dynamic
; File C:\Program Files (x86)\Microsoft Visual Studio\2019\Community\VC\Tools\MSVC\14.24.28314\atlmfc\include\atlsimpstr.h

; 118  : 		achNil[0] = 0;

	xor	eax, eax
; File C:\Program Files (x86)\Microsoft Visual Studio\2019\Community\VC\Tools\MSVC\14.24.28314\atlmfc\include\atlstr.h

; 40   : 	{

	mov	DWORD PTR ?strMgr@?1??GetInstance@CAtlStringMgr@ATL@@SAPAUIAtlStringMgr@3@XZ@4V23@A, OFFSET ??_7CAtlStringMgr@ATL@@6B@

; 55   : 		static CAtlStringMgr strMgr(&strHeap);

	push	OFFSET ??__FstrMgr@?1??GetInstance@CAtlStringMgr@ATL@@SAPAUIAtlStringMgr@2@XZ@YAXXZ ; `ATL::CAtlStringMgr::GetInstance'::`2'::`dynamic atexit destructor for 'strMgr''

; 39   : 		m_pMemMgr( pMemMgr )

	mov	DWORD PTR ?strMgr@?1??GetInstance@CAtlStringMgr@ATL@@SAPAUIAtlStringMgr@3@XZ@4V23@A+4, OFFSET ?strHeap@?1??GetInstance@CAtlStringMgr@ATL@@SAPAUIAtlStringMgr@3@XZ@4VCWin32Heap@3@A ; `ATL::CAtlStringMgr::GetInstance'::`2'::strHeap
; File C:\Program Files (x86)\Microsoft Visual Studio\2019\Community\VC\Tools\MSVC\14.24.28314\atlmfc\include\atlsimpstr.h

; 115  : 		nRefs = 2;  // Never gets freed by IAtlStringMgr

	mov	DWORD PTR ?strMgr@?1??GetInstance@CAtlStringMgr@ATL@@SAPAUIAtlStringMgr@3@XZ@4V23@A+20, 2

; 116  : 		nDataLength = 0;

	mov	DWORD PTR ?strMgr@?1??GetInstance@CAtlStringMgr@ATL@@SAPAUIAtlStringMgr@3@XZ@4V23@A+12, 0

; 117  : 		nAllocLength = 0;

	mov	DWORD PTR ?strMgr@?1??GetInstance@CAtlStringMgr@ATL@@SAPAUIAtlStringMgr@3@XZ@4V23@A+16, 0

; 118  : 		achNil[0] = 0;

	mov	DWORD PTR ?strMgr@?1??GetInstance@CAtlStringMgr@ATL@@SAPAUIAtlStringMgr@3@XZ@4V23@A+24, eax
; File C:\Program Files (x86)\Microsoft Visual Studio\2019\Community\VC\Tools\MSVC\14.24.28314\atlmfc\include\atlstr.h

; 41   : 		m_nil.SetManager( this );

	mov	DWORD PTR ?strMgr@?1??GetInstance@CAtlStringMgr@ATL@@SAPAUIAtlStringMgr@3@XZ@4V23@A+8, OFFSET ?strMgr@?1??GetInstance@CAtlStringMgr@ATL@@SAPAUIAtlStringMgr@3@XZ@4V23@A ; `ATL::CAtlStringMgr::GetInstance'::`2'::strMgr

; 55   : 		static CAtlStringMgr strMgr(&strHeap);

	call	_atexit
	push	OFFSET ?$TSS1@?1??GetInstance@CAtlStringMgr@ATL@@SAPAUIAtlStringMgr@3@XZ@4HA ; TSS1<`template-parameter-2',ATL::CAtlStringMgr::tInstance,ATL::IAtlStringMgr * * const volatile,void,int, ?? &>
	call	__Init_thread_footer
	add	esp, 8
$LN7@dynamic:

; 160  : __declspec(selectany) CAtlStringMgrStaticInitializer InitializeCAtlStringMgr;

	ret	0
??__EInitializeCAtlStringMgr@ATLImplementationDetails@ATL@@YAXXZ ENDP ; ATL::ATLImplementationDetails::`dynamic initializer for 'InitializeCAtlStringMgr''
text$di	ENDS
; Function compile flags: /Ogtp
;	COMDAT ??_H@YGXPAXIIP6EPAX0@Z@Z
_TEXT	SEGMENT
___t$ = 8						; size = 4
___s$ = 12						; size = 4
___n$ = 16						; size = 4
___f$ = 20						; size = 4
??_H@YGXPAXIIP6EPAX0@Z@Z PROC				; `vector constructor iterator', COMDAT
	push	ebp
	mov	ebp, esp
	push	esi
	mov	esi, DWORD PTR ___n$[ebp]
	test	esi, esi
	je	SHORT $LN6@vector
	push	ebx
	mov	ebx, DWORD PTR ___f$[ebp]
	push	edi
	mov	edi, DWORD PTR ___t$[ebp]
$LL2@vector:
	mov	ecx, edi
	call	ebx
	add	edi, DWORD PTR ___s$[ebp]
	sub	esi, 1
	jne	SHORT $LL2@vector
	pop	edi
	pop	ebx
$LN6@vector:
	pop	esi
	pop	ebp
	ret	16					; 00000010H
??_H@YGXPAXIIP6EPAX0@Z@Z ENDP				; `vector constructor iterator'
_TEXT	ENDS
; Function compile flags: /Ogtp
; File C:\Program Files (x86)\Microsoft Visual Studio\2019\Community\VC\Tools\MSVC\14.24.28314\atlmfc\include\atlimage.h
; File C:\Program Files (x86)\Microsoft Visual Studio\2019\Community\VC\Tools\MSVC\14.24.28314\atlmfc\include\atlwinverapi.h
; File C:\Program Files (x86)\Microsoft Visual Studio\2019\Community\VC\Tools\MSVC\14.24.28314\atlmfc\include\atlimage.h
; File C:\Program Files (x86)\Microsoft Visual Studio\2019\Community\VC\Tools\MSVC\14.24.28314\atlmfc\include\atlwinverapi.h
; File C:\Program Files (x86)\Microsoft Visual Studio\2019\Community\VC\Tools\MSVC\14.24.28314\atlmfc\include\atlimage.h
; File C:\Program Files (x86)\Windows Kits\10\Include\10.0.18362.0\shared\winerror.h
; File C:\Program Files (x86)\Microsoft Visual Studio\2019\Community\VC\Tools\MSVC\14.24.28314\atlmfc\include\atlimage.h
;	COMDAT ?GetInitGDIPlusInstance@CImage@ATL@@CAPAVCInitGDIPlus@12@XZ
_TEXT	SEGMENT
?GetInitGDIPlusInstance@CImage@ATL@@CAPAVCInitGDIPlus@12@XZ PROC ; ATL::CImage::GetInitGDIPlusInstance, COMDAT

; 449  : 		static CInitGDIPlus gdiPlus;

	mov	eax, DWORD PTR fs:__tls_array
	mov	ecx, DWORD PTR [eax]
	mov	eax, DWORD PTR ?$TSS0@?1??GetInitGDIPlusInstance@CImage@ATL@@CAPAVCInitGDIPlus@23@XZ@4HA ; TSS0<`template-parameter-2',ATL::CImage::tInitGDIPlusInstance,signed char,ATL::CImage::CInitGDIPlus const volatile __based() &,void,int, ?? &>
	cmp	eax, DWORD PTR __Init_thread_epoch[ecx]
	jle	SHORT $LN13@GetInitGDI
	push	OFFSET ?$TSS0@?1??GetInitGDIPlusInstance@CImage@ATL@@CAPAVCInitGDIPlus@23@XZ@4HA ; TSS0<`template-parameter-2',ATL::CImage::tInitGDIPlusInstance,signed char,ATL::CImage::CInitGDIPlus const volatile __based() &,void,int, ?? &>
	call	__Init_thread_header
	add	esp, 4
	cmp	DWORD PTR ?$TSS0@?1??GetInitGDIPlusInstance@CImage@ATL@@CAPAVCInitGDIPlus@23@XZ@4HA, -1 ; TSS0<`template-parameter-2',ATL::CImage::tInitGDIPlusInstance,signed char,ATL::CImage::CInitGDIPlus const volatile __based() &,void,int, ?? &>
	jne	SHORT $LN13@GetInitGDI
; File C:\Program Files (x86)\Microsoft Visual Studio\2019\Community\VC\Tools\MSVC\14.24.28314\atlmfc\include\atlwinverapi.h

; 730  : 	return ::InitializeCriticalSectionEx(lpCriticalSection, dwSpinCount, Flags);

	push	0
	push	0
	push	OFFSET ?gdiPlus@?1??GetInitGDIPlusInstance@CImage@ATL@@CAPAVCInitGDIPlus@23@XZ@4V423@A+4
; File C:\Program Files (x86)\Microsoft Visual Studio\2019\Community\VC\Tools\MSVC\14.24.28314\atlmfc\include\atlimage.h

; 545  : 	m_dwToken( 0 ), m_nCImageObjects( 0 ), m_dwLastError(S_OK)

	mov	DWORD PTR ?gdiPlus@?1??GetInitGDIPlusInstance@CImage@ATL@@CAPAVCInitGDIPlus@23@XZ@4V423@A, 0
	mov	DWORD PTR ?gdiPlus@?1??GetInitGDIPlusInstance@CImage@ATL@@CAPAVCInitGDIPlus@23@XZ@4V423@A+28, 0
	mov	DWORD PTR ?gdiPlus@?1??GetInitGDIPlusInstance@CImage@ATL@@CAPAVCInitGDIPlus@23@XZ@4V423@A+32, 0
; File C:\Program Files (x86)\Microsoft Visual Studio\2019\Community\VC\Tools\MSVC\14.24.28314\atlmfc\include\atlwinverapi.h

; 730  : 	return ::InitializeCriticalSectionEx(lpCriticalSection, dwSpinCount, Flags);

	call	DWORD PTR __imp__InitializeCriticalSectionEx@12
; File C:\Program Files (x86)\Microsoft Visual Studio\2019\Community\VC\Tools\MSVC\14.24.28314\atlmfc\include\atlimage.h

; 547  : 	if (!_AtlInitializeCriticalSectionEx(&m_sect, 0, 0))

	test	eax, eax
	jne	SHORT $LN12@GetInitGDI

; 548  : 	{
; 549  : 		m_dwLastError = HRESULT_FROM_WIN32(GetLastError());

	call	DWORD PTR __imp__GetLastError@0
; File C:\Program Files (x86)\Windows Kits\10\Include\10.0.18362.0\shared\winerror.h

; 28857: FORCEINLINE _Translates_Win32_to_HRESULT_(x) HRESULT HRESULT_FROM_WIN32(unsigned long x) { return (HRESULT)(x) <= 0 ? (HRESULT)(x) : (HRESULT) (((x) & 0x0000FFFF) | (FACILITY_WIN32 << 16) | 0x80000000);}

	test	eax, eax
	jle	SHORT $LN15@GetInitGDI
	movzx	eax, ax
	or	eax, -2147024896			; 80070000H
$LN15@GetInitGDI:
; File C:\Program Files (x86)\Microsoft Visual Studio\2019\Community\VC\Tools\MSVC\14.24.28314\atlmfc\include\atlimage.h

; 449  : 		static CInitGDIPlus gdiPlus;

	mov	DWORD PTR ?gdiPlus@?1??GetInitGDIPlusInstance@CImage@ATL@@CAPAVCInitGDIPlus@23@XZ@4V423@A+32, eax
$LN12@GetInitGDI:
	push	OFFSET ??__FgdiPlus@?1??GetInitGDIPlusInstance@CImage@ATL@@CAPAVCInitGDIPlus@12@XZ@YAXXZ ; `ATL::CImage::GetInitGDIPlusInstance'::`2'::`dynamic atexit destructor for 'gdiPlus''
	call	_atexit
	push	OFFSET ?$TSS0@?1??GetInitGDIPlusInstance@CImage@ATL@@CAPAVCInitGDIPlus@23@XZ@4HA ; TSS0<`template-parameter-2',ATL::CImage::tInitGDIPlusInstance,signed char,ATL::CImage::CInitGDIPlus const volatile __based() &,void,int, ?? &>
	call	__Init_thread_footer
	add	esp, 8
$LN13@GetInitGDI:

; 450  : 		return &gdiPlus;
; 451  : 	}

	mov	eax, OFFSET ?gdiPlus@?1??GetInitGDIPlusInstance@CImage@ATL@@CAPAVCInitGDIPlus@23@XZ@4V423@A ; `ATL::CImage::GetInitGDIPlusInstance'::`2'::gdiPlus
	ret	0
?GetInitGDIPlusInstance@CImage@ATL@@CAPAVCInitGDIPlus@12@XZ ENDP ; ATL::CImage::GetInitGDIPlusInstance
_TEXT	ENDS
; Function compile flags: /Ogtp
; File C:\Program Files (x86)\Microsoft Visual Studio\2019\Community\VC\Tools\MSVC\14.24.28314\atlmfc\include\atlimage.h
;	COMDAT ?GetCDCCacheInstance@CImage@ATL@@CAPAVCDCCache@12@XZ
_TEXT	SEGMENT
?GetCDCCacheInstance@CImage@ATL@@CAPAVCDCCache@12@XZ PROC ; ATL::CImage::GetCDCCacheInstance, COMDAT

; 502  : #pragma warning(suppress: 4640) // will always be initialized on entry thread by CImageStaticInitializer
; 503  : 		static CDCCache cache;

	mov	eax, DWORD PTR fs:__tls_array
	mov	ecx, DWORD PTR [eax]
	mov	eax, DWORD PTR ?$TSS0@?1??GetCDCCacheInstance@CImage@ATL@@CAPAVCDCCache@23@XZ@4HA ; TSS0<`template-parameter-2',ATL::CImage::tCDCCacheInstance,signed char,ATL::CImage::CDCCache const volatile __based() &,void,int, ?? &>
	cmp	eax, DWORD PTR __Init_thread_epoch[ecx]
	jle	SHORT $LN19@GetCDCCach
	push	OFFSET ?$TSS0@?1??GetCDCCacheInstance@CImage@ATL@@CAPAVCDCCache@23@XZ@4HA ; TSS0<`template-parameter-2',ATL::CImage::tCDCCacheInstance,signed char,ATL::CImage::CDCCache const volatile __based() &,void,int, ?? &>
	call	__Init_thread_header
	add	esp, 4
	cmp	DWORD PTR ?$TSS0@?1??GetCDCCacheInstance@CImage@ATL@@CAPAVCDCCache@23@XZ@4HA, -1 ; TSS0<`template-parameter-2',ATL::CImage::tCDCCacheInstance,signed char,ATL::CImage::CDCCache const volatile __based() &,void,int, ?? &>
	jne	SHORT $LN19@GetCDCCach
	xorps	xmm0, xmm0
	push	OFFSET ??__Fcache@?1??GetCDCCacheInstance@CImage@ATL@@CAPAVCDCCache@12@XZ@YAXXZ ; `ATL::CImage::GetCDCCacheInstance'::`2'::`dynamic atexit destructor for 'cache''

; 613  : 		m_ahDCs[iDC] = NULL;

	movups	XMMWORD PTR ?cache@?1??GetCDCCacheInstance@CImage@ATL@@CAPAVCDCCache@23@XZ@4V423@A, xmm0

; 502  : #pragma warning(suppress: 4640) // will always be initialized on entry thread by CImageStaticInitializer
; 503  : 		static CDCCache cache;

	call	_atexit
	push	OFFSET ?$TSS0@?1??GetCDCCacheInstance@CImage@ATL@@CAPAVCDCCache@23@XZ@4HA ; TSS0<`template-parameter-2',ATL::CImage::tCDCCacheInstance,signed char,ATL::CImage::CDCCache const volatile __based() &,void,int, ?? &>
	call	__Init_thread_footer
	add	esp, 8
$LN19@GetCDCCach:

; 504  : 		return &cache;
; 505  : 	}

	mov	eax, OFFSET ?cache@?1??GetCDCCacheInstance@CImage@ATL@@CAPAVCDCCache@23@XZ@4V423@A ; `ATL::CImage::GetCDCCacheInstance'::`2'::cache
	ret	0
?GetCDCCacheInstance@CImage@ATL@@CAPAVCDCCache@12@XZ ENDP ; ATL::CImage::GetCDCCacheInstance
_TEXT	ENDS
; Function compile flags: /Ogtp
; File C:\Program Files (x86)\Microsoft Visual Studio\2019\Community\VC\Tools\MSVC\14.24.28314\atlmfc\include\atlimage.h
;	COMDAT ??__Fcache@?1??GetCDCCacheInstance@CImage@ATL@@CAPAVCDCCache@12@XZ@YAXXZ
text$yd	SEGMENT
??__Fcache@?1??GetCDCCacheInstance@CImage@ATL@@CAPAVCDCCache@12@XZ@YAXXZ PROC ; `ATL::CImage::GetCDCCacheInstance'::`2'::`dynamic atexit destructor for 'cache'', COMDAT

; 621  : 	for( iDC = 0; iDC < CIMAGE_DC_CACHE_SIZE; iDC++ )

	push	esi
	push	edi
	mov	edi, DWORD PTR __imp__DeleteDC@4
	mov	esi, OFFSET ?cache@?1??GetCDCCacheInstance@CImage@ATL@@CAPAVCDCCache@23@XZ@4V423@A ; `ATL::CImage::GetCDCCacheInstance'::`2'::cache
	npad	3
$LL6@dynamic:

; 622  : 	{
; 623  : 		if( m_ahDCs[iDC] != NULL )

	mov	eax, DWORD PTR [esi]
	test	eax, eax
	je	SHORT $LN4@dynamic

; 624  : 		{
; 625  : 			::DeleteDC( m_ahDCs[iDC] );

	push	eax
	call	edi
$LN4@dynamic:

; 621  : 	for( iDC = 0; iDC < CIMAGE_DC_CACHE_SIZE; iDC++ )

	add	esi, 4
	cmp	esi, OFFSET ?cache@?1??GetCDCCacheInstance@CImage@ATL@@CAPAVCDCCache@23@XZ@4V423@A+16
	jl	SHORT $LL6@dynamic
	pop	edi
	pop	esi
	ret	0
??__Fcache@?1??GetCDCCacheInstance@CImage@ATL@@CAPAVCDCCache@12@XZ@YAXXZ ENDP ; `ATL::CImage::GetCDCCacheInstance'::`2'::`dynamic atexit destructor for 'cache''
text$yd	ENDS
; Function compile flags: /Ogtp
; File C:\Program Files (x86)\Microsoft Visual Studio\2019\Community\VC\Tools\MSVC\14.24.28314\atlmfc\include\atlimage.h
;	COMDAT ??__FgdiPlus@?1??GetInitGDIPlusInstance@CImage@ATL@@CAPAVCInitGDIPlus@12@XZ@YAXXZ
text$yd	SEGMENT
??__FgdiPlus@?1??GetInitGDIPlusInstance@CImage@ATL@@CAPAVCInitGDIPlus@12@XZ@YAXXZ PROC ; `ATL::CImage::GetInitGDIPlusInstance'::`2'::`dynamic atexit destructor for 'gdiPlus'', COMDAT

; 583  : 	EnterCriticalSection(&m_sect);

	push	OFFSET ?gdiPlus@?1??GetInitGDIPlusInstance@CImage@ATL@@CAPAVCInitGDIPlus@23@XZ@4V423@A+4
	call	DWORD PTR __imp__EnterCriticalSection@4

; 584  : 	if( m_dwToken != 0 )

	mov	eax, DWORD PTR ?gdiPlus@?1??GetInitGDIPlusInstance@CImage@ATL@@CAPAVCInitGDIPlus@23@XZ@4V423@A
	test	eax, eax
	je	SHORT $LN6@dynamic

; 585  : 	{
; 586  : 		Gdiplus::GdiplusShutdown( m_dwToken );

	push	eax
	call	DWORD PTR __imp__GdiplusShutdown@4
$LN6@dynamic:

; 587  : 	}
; 588  : 	m_dwToken = 0;
; 589  : 	LeaveCriticalSection(&m_sect);

	push	OFFSET ?gdiPlus@?1??GetInitGDIPlusInstance@CImage@ATL@@CAPAVCInitGDIPlus@23@XZ@4V423@A+4
	mov	DWORD PTR ?gdiPlus@?1??GetInitGDIPlusInstance@CImage@ATL@@CAPAVCInitGDIPlus@23@XZ@4V423@A, 0
	call	DWORD PTR __imp__LeaveCriticalSection@4
	ret	0
??__FgdiPlus@?1??GetInitGDIPlusInstance@CImage@ATL@@CAPAVCInitGDIPlus@12@XZ@YAXXZ ENDP ; `ATL::CImage::GetInitGDIPlusInstance'::`2'::`dynamic atexit destructor for 'gdiPlus''
text$yd	ENDS
; Function compile flags: /Ogtp
; File C:\Program Files (x86)\Microsoft Visual Studio\2019\Community\VC\Tools\MSVC\14.24.28314\atlmfc\include\atlimage.h
; File C:\Program Files (x86)\Microsoft Visual Studio\2019\Community\VC\Tools\MSVC\14.24.28314\atlmfc\include\atlwinverapi.h
; File C:\Program Files (x86)\Microsoft Visual Studio\2019\Community\VC\Tools\MSVC\14.24.28314\atlmfc\include\atlimage.h
; File C:\Program Files (x86)\Microsoft Visual Studio\2019\Community\VC\Tools\MSVC\14.24.28314\atlmfc\include\atlwinverapi.h
; File C:\Program Files (x86)\Microsoft Visual Studio\2019\Community\VC\Tools\MSVC\14.24.28314\atlmfc\include\atlimage.h
; File C:\Program Files (x86)\Windows Kits\10\Include\10.0.18362.0\shared\winerror.h
; File C:\Program Files (x86)\Microsoft Visual Studio\2019\Community\VC\Tools\MSVC\14.24.28314\atlmfc\include\atlimage.h
;	COMDAT ??0CImageStaticInitializer@ATLImplementationDetails@ATL@@QAE@XZ
_TEXT	SEGMENT
??0CImageStaticInitializer@ATLImplementationDetails@ATL@@QAE@XZ PROC ; ATL::ATLImplementationDetails::CImageStaticInitializer::CImageStaticInitializer, COMDAT
; _this$dead$ = ecx

; 449  : 		static CInitGDIPlus gdiPlus;

	mov	eax, DWORD PTR fs:__tls_array

; 514  : 		CImageStaticInitializer()

	push	esi

; 449  : 		static CInitGDIPlus gdiPlus;

	mov	esi, DWORD PTR [eax]
	mov	eax, DWORD PTR ?$TSS0@?1??GetInitGDIPlusInstance@CImage@ATL@@CAPAVCInitGDIPlus@23@XZ@4HA ; TSS0<`template-parameter-2',ATL::CImage::tInitGDIPlusInstance,signed char,ATL::CImage::CInitGDIPlus const volatile __based() &,void,int, ?? &>
	cmp	eax, DWORD PTR __Init_thread_epoch[esi]
	jle	SHORT $LN4@CImageStat
	push	OFFSET ?$TSS0@?1??GetInitGDIPlusInstance@CImage@ATL@@CAPAVCInitGDIPlus@23@XZ@4HA ; TSS0<`template-parameter-2',ATL::CImage::tInitGDIPlusInstance,signed char,ATL::CImage::CInitGDIPlus const volatile __based() &,void,int, ?? &>
	call	__Init_thread_header
	add	esp, 4
	cmp	DWORD PTR ?$TSS0@?1??GetInitGDIPlusInstance@CImage@ATL@@CAPAVCInitGDIPlus@23@XZ@4HA, -1 ; TSS0<`template-parameter-2',ATL::CImage::tInitGDIPlusInstance,signed char,ATL::CImage::CInitGDIPlus const volatile __based() &,void,int, ?? &>
	jne	SHORT $LN4@CImageStat
; File C:\Program Files (x86)\Microsoft Visual Studio\2019\Community\VC\Tools\MSVC\14.24.28314\atlmfc\include\atlwinverapi.h

; 730  : 	return ::InitializeCriticalSectionEx(lpCriticalSection, dwSpinCount, Flags);

	push	0
	push	0
	push	OFFSET ?gdiPlus@?1??GetInitGDIPlusInstance@CImage@ATL@@CAPAVCInitGDIPlus@23@XZ@4V423@A+4
; File C:\Program Files (x86)\Microsoft Visual Studio\2019\Community\VC\Tools\MSVC\14.24.28314\atlmfc\include\atlimage.h

; 545  : 	m_dwToken( 0 ), m_nCImageObjects( 0 ), m_dwLastError(S_OK)

	mov	DWORD PTR ?gdiPlus@?1??GetInitGDIPlusInstance@CImage@ATL@@CAPAVCInitGDIPlus@23@XZ@4V423@A, 0
	mov	DWORD PTR ?gdiPlus@?1??GetInitGDIPlusInstance@CImage@ATL@@CAPAVCInitGDIPlus@23@XZ@4V423@A+28, 0
	mov	DWORD PTR ?gdiPlus@?1??GetInitGDIPlusInstance@CImage@ATL@@CAPAVCInitGDIPlus@23@XZ@4V423@A+32, 0
; File C:\Program Files (x86)\Microsoft Visual Studio\2019\Community\VC\Tools\MSVC\14.24.28314\atlmfc\include\atlwinverapi.h

; 730  : 	return ::InitializeCriticalSectionEx(lpCriticalSection, dwSpinCount, Flags);

	call	DWORD PTR __imp__InitializeCriticalSectionEx@12
; File C:\Program Files (x86)\Microsoft Visual Studio\2019\Community\VC\Tools\MSVC\14.24.28314\atlmfc\include\atlimage.h

; 547  : 	if (!_AtlInitializeCriticalSectionEx(&m_sect, 0, 0))

	test	eax, eax
	jne	SHORT $LN14@CImageStat

; 548  : 	{
; 549  : 		m_dwLastError = HRESULT_FROM_WIN32(GetLastError());

	call	DWORD PTR __imp__GetLastError@0
; File C:\Program Files (x86)\Windows Kits\10\Include\10.0.18362.0\shared\winerror.h

; 28857: FORCEINLINE _Translates_Win32_to_HRESULT_(x) HRESULT HRESULT_FROM_WIN32(unsigned long x) { return (HRESULT)(x) <= 0 ? (HRESULT)(x) : (HRESULT) (((x) & 0x0000FFFF) | (FACILITY_WIN32 << 16) | 0x80000000);}

	test	eax, eax
	jle	SHORT $LN35@CImageStat
	movzx	eax, ax
	or	eax, -2147024896			; 80070000H
$LN35@CImageStat:
; File C:\Program Files (x86)\Microsoft Visual Studio\2019\Community\VC\Tools\MSVC\14.24.28314\atlmfc\include\atlimage.h

; 449  : 		static CInitGDIPlus gdiPlus;

	mov	DWORD PTR ?gdiPlus@?1??GetInitGDIPlusInstance@CImage@ATL@@CAPAVCInitGDIPlus@23@XZ@4V423@A+32, eax
$LN14@CImageStat:
	push	OFFSET ??__FgdiPlus@?1??GetInitGDIPlusInstance@CImage@ATL@@CAPAVCInitGDIPlus@12@XZ@YAXXZ ; `ATL::CImage::GetInitGDIPlusInstance'::`2'::`dynamic atexit destructor for 'gdiPlus''
	call	_atexit
	push	OFFSET ?$TSS0@?1??GetInitGDIPlusInstance@CImage@ATL@@CAPAVCInitGDIPlus@23@XZ@4HA ; TSS0<`template-parameter-2',ATL::CImage::tInitGDIPlusInstance,signed char,ATL::CImage::CInitGDIPlus const volatile __based() &,void,int, ?? &>
	call	__Init_thread_footer
	add	esp, 8
$LN4@CImageStat:

; 503  : 		static CDCCache cache;

	mov	eax, DWORD PTR ?$TSS0@?1??GetCDCCacheInstance@CImage@ATL@@CAPAVCDCCache@23@XZ@4HA ; TSS0<`template-parameter-2',ATL::CImage::tCDCCacheInstance,signed char,ATL::CImage::CDCCache const volatile __based() &,void,int, ?? &>
	cmp	eax, DWORD PTR __Init_thread_epoch[esi]
	pop	esi
	jle	SHORT $LN33@CImageStat
	push	OFFSET ?$TSS0@?1??GetCDCCacheInstance@CImage@ATL@@CAPAVCDCCache@23@XZ@4HA ; TSS0<`template-parameter-2',ATL::CImage::tCDCCacheInstance,signed char,ATL::CImage::CDCCache const volatile __based() &,void,int, ?? &>
	call	__Init_thread_header
	add	esp, 4
	cmp	DWORD PTR ?$TSS0@?1??GetCDCCacheInstance@CImage@ATL@@CAPAVCDCCache@23@XZ@4HA, -1 ; TSS0<`template-parameter-2',ATL::CImage::tCDCCacheInstance,signed char,ATL::CImage::CDCCache const volatile __based() &,void,int, ?? &>
	jne	SHORT $LN33@CImageStat
	xorps	xmm0, xmm0
	push	OFFSET ??__Fcache@?1??GetCDCCacheInstance@CImage@ATL@@CAPAVCDCCache@12@XZ@YAXXZ ; `ATL::CImage::GetCDCCacheInstance'::`2'::`dynamic atexit destructor for 'cache''

; 613  : 		m_ahDCs[iDC] = NULL;

	movups	XMMWORD PTR ?cache@?1??GetCDCCacheInstance@CImage@ATL@@CAPAVCDCCache@23@XZ@4V423@A, xmm0

; 503  : 		static CDCCache cache;

	call	_atexit
	push	OFFSET ?$TSS0@?1??GetCDCCacheInstance@CImage@ATL@@CAPAVCDCCache@23@XZ@4HA ; TSS0<`template-parameter-2',ATL::CImage::tCDCCacheInstance,signed char,ATL::CImage::CDCCache const volatile __based() &,void,int, ?? &>
	call	__Init_thread_footer
	add	esp, 8
$LN33@CImageStat:

; 515  : 		{
; 516  : 			CImage::GetInitGDIPlusInstance();
; 517  : 			CImage::GetCDCCacheInstance();
; 518  : 		}

	mov	eax, OFFSET ?InitializeCImage@ATLImplementationDetails@ATL@@3UCImageStaticInitializer@12@A ; ATL::ATLImplementationDetails::InitializeCImage
	ret	0
??0CImageStaticInitializer@ATLImplementationDetails@ATL@@QAE@XZ ENDP ; ATL::ATLImplementationDetails::CImageStaticInitializer::CImageStaticInitializer
_TEXT	ENDS
; Function compile flags: /Ogtp
; File C:\Program Files (x86)\Microsoft Visual Studio\2019\Community\VC\Tools\MSVC\14.24.28314\atlmfc\include\atlimage.h
; File C:\Program Files (x86)\Microsoft Visual Studio\2019\Community\VC\Tools\MSVC\14.24.28314\atlmfc\include\atlwinverapi.h
; File C:\Program Files (x86)\Microsoft Visual Studio\2019\Community\VC\Tools\MSVC\14.24.28314\atlmfc\include\atlimage.h
; File C:\Program Files (x86)\Microsoft Visual Studio\2019\Community\VC\Tools\MSVC\14.24.28314\atlmfc\include\atlwinverapi.h
; File C:\Program Files (x86)\Microsoft Visual Studio\2019\Community\VC\Tools\MSVC\14.24.28314\atlmfc\include\atlimage.h
; File C:\Program Files (x86)\Windows Kits\10\Include\10.0.18362.0\shared\winerror.h
; File C:\Program Files (x86)\Microsoft Visual Studio\2019\Community\VC\Tools\MSVC\14.24.28314\atlmfc\include\atlimage.h
;	COMDAT ??__EInitializeCImage@ATLImplementationDetails@ATL@@YAXXZ
text$di	SEGMENT
??__EInitializeCImage@ATLImplementationDetails@ATL@@YAXXZ PROC ; ATL::ATLImplementationDetails::`dynamic initializer for 'InitializeCImage'', COMDAT

; 449  : 		static CInitGDIPlus gdiPlus;

	mov	eax, DWORD PTR fs:__tls_array

; 521  : __declspec(selectany) CImageStaticInitializer InitializeCImage;

	push	esi

; 449  : 		static CInitGDIPlus gdiPlus;

	mov	esi, DWORD PTR [eax]
	mov	eax, DWORD PTR ?$TSS0@?1??GetInitGDIPlusInstance@CImage@ATL@@CAPAVCInitGDIPlus@23@XZ@4HA ; TSS0<`template-parameter-2',ATL::CImage::tInitGDIPlusInstance,signed char,ATL::CImage::CInitGDIPlus const volatile __based() &,void,int, ?? &>
	cmp	eax, DWORD PTR __Init_thread_epoch[esi]
	jle	SHORT $LN6@dynamic
	push	OFFSET ?$TSS0@?1??GetInitGDIPlusInstance@CImage@ATL@@CAPAVCInitGDIPlus@23@XZ@4HA ; TSS0<`template-parameter-2',ATL::CImage::tInitGDIPlusInstance,signed char,ATL::CImage::CInitGDIPlus const volatile __based() &,void,int, ?? &>
	call	__Init_thread_header
	add	esp, 4
	cmp	DWORD PTR ?$TSS0@?1??GetInitGDIPlusInstance@CImage@ATL@@CAPAVCInitGDIPlus@23@XZ@4HA, -1 ; TSS0<`template-parameter-2',ATL::CImage::tInitGDIPlusInstance,signed char,ATL::CImage::CInitGDIPlus const volatile __based() &,void,int, ?? &>
	jne	SHORT $LN6@dynamic
; File C:\Program Files (x86)\Microsoft Visual Studio\2019\Community\VC\Tools\MSVC\14.24.28314\atlmfc\include\atlwinverapi.h

; 730  : 	return ::InitializeCriticalSectionEx(lpCriticalSection, dwSpinCount, Flags);

	push	0
	push	0
	push	OFFSET ?gdiPlus@?1??GetInitGDIPlusInstance@CImage@ATL@@CAPAVCInitGDIPlus@23@XZ@4V423@A+4
; File C:\Program Files (x86)\Microsoft Visual Studio\2019\Community\VC\Tools\MSVC\14.24.28314\atlmfc\include\atlimage.h

; 545  : 	m_dwToken( 0 ), m_nCImageObjects( 0 ), m_dwLastError(S_OK)

	mov	DWORD PTR ?gdiPlus@?1??GetInitGDIPlusInstance@CImage@ATL@@CAPAVCInitGDIPlus@23@XZ@4V423@A, 0
	mov	DWORD PTR ?gdiPlus@?1??GetInitGDIPlusInstance@CImage@ATL@@CAPAVCInitGDIPlus@23@XZ@4V423@A+28, 0
	mov	DWORD PTR ?gdiPlus@?1??GetInitGDIPlusInstance@CImage@ATL@@CAPAVCInitGDIPlus@23@XZ@4V423@A+32, 0
; File C:\Program Files (x86)\Microsoft Visual Studio\2019\Community\VC\Tools\MSVC\14.24.28314\atlmfc\include\atlwinverapi.h

; 730  : 	return ::InitializeCriticalSectionEx(lpCriticalSection, dwSpinCount, Flags);

	call	DWORD PTR __imp__InitializeCriticalSectionEx@12
; File C:\Program Files (x86)\Microsoft Visual Studio\2019\Community\VC\Tools\MSVC\14.24.28314\atlmfc\include\atlimage.h

; 547  : 	if (!_AtlInitializeCriticalSectionEx(&m_sect, 0, 0))

	test	eax, eax
	jne	SHORT $LN16@dynamic

; 548  : 	{
; 549  : 		m_dwLastError = HRESULT_FROM_WIN32(GetLastError());

	call	DWORD PTR __imp__GetLastError@0
; File C:\Program Files (x86)\Windows Kits\10\Include\10.0.18362.0\shared\winerror.h

; 28857: FORCEINLINE _Translates_Win32_to_HRESULT_(x) HRESULT HRESULT_FROM_WIN32(unsigned long x) { return (HRESULT)(x) <= 0 ? (HRESULT)(x) : (HRESULT) (((x) & 0x0000FFFF) | (FACILITY_WIN32 << 16) | 0x80000000);}

	test	eax, eax
	jle	SHORT $LN35@dynamic
	movzx	eax, ax
	or	eax, -2147024896			; 80070000H
$LN35@dynamic:
; File C:\Program Files (x86)\Microsoft Visual Studio\2019\Community\VC\Tools\MSVC\14.24.28314\atlmfc\include\atlimage.h

; 449  : 		static CInitGDIPlus gdiPlus;

	mov	DWORD PTR ?gdiPlus@?1??GetInitGDIPlusInstance@CImage@ATL@@CAPAVCInitGDIPlus@23@XZ@4V423@A+32, eax
$LN16@dynamic:
	push	OFFSET ??__FgdiPlus@?1??GetInitGDIPlusInstance@CImage@ATL@@CAPAVCInitGDIPlus@12@XZ@YAXXZ ; `ATL::CImage::GetInitGDIPlusInstance'::`2'::`dynamic atexit destructor for 'gdiPlus''
	call	_atexit
	push	OFFSET ?$TSS0@?1??GetInitGDIPlusInstance@CImage@ATL@@CAPAVCInitGDIPlus@23@XZ@4HA ; TSS0<`template-parameter-2',ATL::CImage::tInitGDIPlusInstance,signed char,ATL::CImage::CInitGDIPlus const volatile __based() &,void,int, ?? &>
	call	__Init_thread_footer
	add	esp, 8
$LN6@dynamic:

; 503  : 		static CDCCache cache;

	mov	eax, DWORD PTR ?$TSS0@?1??GetCDCCacheInstance@CImage@ATL@@CAPAVCDCCache@23@XZ@4HA ; TSS0<`template-parameter-2',ATL::CImage::tCDCCacheInstance,signed char,ATL::CImage::CDCCache const volatile __based() &,void,int, ?? &>
	cmp	eax, DWORD PTR __Init_thread_epoch[esi]
	pop	esi
	jle	SHORT $LN18@dynamic
	push	OFFSET ?$TSS0@?1??GetCDCCacheInstance@CImage@ATL@@CAPAVCDCCache@23@XZ@4HA ; TSS0<`template-parameter-2',ATL::CImage::tCDCCacheInstance,signed char,ATL::CImage::CDCCache const volatile __based() &,void,int, ?? &>
	call	__Init_thread_header
	add	esp, 4
	cmp	DWORD PTR ?$TSS0@?1??GetCDCCacheInstance@CImage@ATL@@CAPAVCDCCache@23@XZ@4HA, -1 ; TSS0<`template-parameter-2',ATL::CImage::tCDCCacheInstance,signed char,ATL::CImage::CDCCache const volatile __based() &,void,int, ?? &>
	jne	SHORT $LN18@dynamic
	xorps	xmm0, xmm0
	push	OFFSET ??__Fcache@?1??GetCDCCacheInstance@CImage@ATL@@CAPAVCDCCache@12@XZ@YAXXZ ; `ATL::CImage::GetCDCCacheInstance'::`2'::`dynamic atexit destructor for 'cache''

; 613  : 		m_ahDCs[iDC] = NULL;

	movups	XMMWORD PTR ?cache@?1??GetCDCCacheInstance@CImage@ATL@@CAPAVCDCCache@23@XZ@4V423@A, xmm0

; 503  : 		static CDCCache cache;

	call	_atexit
	push	OFFSET ?$TSS0@?1??GetCDCCacheInstance@CImage@ATL@@CAPAVCDCCache@23@XZ@4HA ; TSS0<`template-parameter-2',ATL::CImage::tCDCCacheInstance,signed char,ATL::CImage::CDCCache const volatile __based() &,void,int, ?? &>
	call	__Init_thread_footer
	add	esp, 8
$LN18@dynamic:

; 521  : __declspec(selectany) CImageStaticInitializer InitializeCImage;

	ret	0
??__EInitializeCImage@ATLImplementationDetails@ATL@@YAXXZ ENDP ; ATL::ATLImplementationDetails::`dynamic initializer for 'InitializeCImage''
text$di	ENDS
; Function compile flags: /Ogtp
; File C:\Program Files (x86)\Microsoft Visual Studio\2019\Community\VC\Tools\MSVC\14.24.28314\atlmfc\include\atlimage.h
; File C:\Program Files (x86)\Microsoft Visual Studio\2019\Community\VC\Tools\MSVC\14.24.28314\atlmfc\include\atlwinverapi.h
; File C:\Program Files (x86)\Microsoft Visual Studio\2019\Community\VC\Tools\MSVC\14.24.28314\atlmfc\include\atlimage.h
; File C:\Program Files (x86)\Microsoft Visual Studio\2019\Community\VC\Tools\MSVC\14.24.28314\atlmfc\include\atlwinverapi.h
; File C:\Program Files (x86)\Microsoft Visual Studio\2019\Community\VC\Tools\MSVC\14.24.28314\atlmfc\include\atlimage.h
; File C:\Program Files (x86)\Windows Kits\10\Include\10.0.18362.0\shared\winerror.h
; File C:\Program Files (x86)\Microsoft Visual Studio\2019\Community\VC\Tools\MSVC\14.24.28314\atlmfc\include\atlimage.h
;	COMDAT ??0CInitGDIPlus@CImage@ATL@@QAE@XZ
_TEXT	SEGMENT
??0CInitGDIPlus@CImage@ATL@@QAE@XZ PROC			; ATL::CImage::CInitGDIPlus::CInitGDIPlus, COMDAT
; _this$dead$ = ecx
; File C:\Program Files (x86)\Microsoft Visual Studio\2019\Community\VC\Tools\MSVC\14.24.28314\atlmfc\include\atlwinverapi.h

; 730  : 	return ::InitializeCriticalSectionEx(lpCriticalSection, dwSpinCount, Flags);

	push	0
	push	0
	push	OFFSET ?gdiPlus@?1??GetInitGDIPlusInstance@CImage@ATL@@CAPAVCInitGDIPlus@23@XZ@4V423@A+4
; File C:\Program Files (x86)\Microsoft Visual Studio\2019\Community\VC\Tools\MSVC\14.24.28314\atlmfc\include\atlimage.h

; 545  : 	m_dwToken( 0 ), m_nCImageObjects( 0 ), m_dwLastError(S_OK)

	mov	DWORD PTR ?gdiPlus@?1??GetInitGDIPlusInstance@CImage@ATL@@CAPAVCInitGDIPlus@23@XZ@4V423@A, 0
	mov	DWORD PTR ?gdiPlus@?1??GetInitGDIPlusInstance@CImage@ATL@@CAPAVCInitGDIPlus@23@XZ@4V423@A+28, 0
	mov	DWORD PTR ?gdiPlus@?1??GetInitGDIPlusInstance@CImage@ATL@@CAPAVCInitGDIPlus@23@XZ@4V423@A+32, 0
; File C:\Program Files (x86)\Microsoft Visual Studio\2019\Community\VC\Tools\MSVC\14.24.28314\atlmfc\include\atlwinverapi.h

; 730  : 	return ::InitializeCriticalSectionEx(lpCriticalSection, dwSpinCount, Flags);

	call	DWORD PTR __imp__InitializeCriticalSectionEx@12
; File C:\Program Files (x86)\Microsoft Visual Studio\2019\Community\VC\Tools\MSVC\14.24.28314\atlmfc\include\atlimage.h

; 547  : 	if (!_AtlInitializeCriticalSectionEx(&m_sect, 0, 0))

	test	eax, eax
	jne	SHORT $LN10@CInitGDIPl

; 549  : 		m_dwLastError = HRESULT_FROM_WIN32(GetLastError());

	call	DWORD PTR __imp__GetLastError@0
; File C:\Program Files (x86)\Windows Kits\10\Include\10.0.18362.0\shared\winerror.h

; 28857: FORCEINLINE _Translates_Win32_to_HRESULT_(x) HRESULT HRESULT_FROM_WIN32(unsigned long x) { return (HRESULT)(x) <= 0 ? (HRESULT)(x) : (HRESULT) (((x) & 0x0000FFFF) | (FACILITY_WIN32 << 16) | 0x80000000);}

	test	eax, eax
	jle	SHORT $LN9@CInitGDIPl
	movzx	eax, ax
	or	eax, -2147024896			; 80070000H
$LN9@CInitGDIPl:
; File C:\Program Files (x86)\Microsoft Visual Studio\2019\Community\VC\Tools\MSVC\14.24.28314\atlmfc\include\atlimage.h

; 549  : 		m_dwLastError = HRESULT_FROM_WIN32(GetLastError());

	mov	DWORD PTR ?gdiPlus@?1??GetInitGDIPlusInstance@CImage@ATL@@CAPAVCInitGDIPlus@23@XZ@4V423@A+32, eax
$LN10@CInitGDIPl:

; 550  : 	}
; 551  : }

	mov	eax, OFFSET ?gdiPlus@?1??GetInitGDIPlusInstance@CImage@ATL@@CAPAVCInitGDIPlus@23@XZ@4V423@A ; `ATL::CImage::GetInitGDIPlusInstance'::`2'::gdiPlus
	ret	0
??0CInitGDIPlus@CImage@ATL@@QAE@XZ ENDP			; ATL::CImage::CInitGDIPlus::CInitGDIPlus
_TEXT	ENDS
; Function compile flags: /Ogtp
; File C:\Program Files (x86)\Microsoft Visual Studio\2019\Community\VC\Tools\MSVC\14.24.28314\atlmfc\include\atlimage.h
;	COMDAT ??1CInitGDIPlus@CImage@ATL@@QAE@XZ
_TEXT	SEGMENT
??1CInitGDIPlus@CImage@ATL@@QAE@XZ PROC			; ATL::CImage::CInitGDIPlus::~CInitGDIPlus, COMDAT
; _this$dead$ = ecx

; 583  : 	EnterCriticalSection(&m_sect);

	push	OFFSET ?gdiPlus@?1??GetInitGDIPlusInstance@CImage@ATL@@CAPAVCInitGDIPlus@23@XZ@4V423@A+4
	call	DWORD PTR __imp__EnterCriticalSection@4

; 584  : 	if( m_dwToken != 0 )

	mov	eax, DWORD PTR ?gdiPlus@?1??GetInitGDIPlusInstance@CImage@ATL@@CAPAVCInitGDIPlus@23@XZ@4V423@A
	test	eax, eax
	je	SHORT $LN4@CInitGDIPl

; 585  : 	{
; 586  : 		Gdiplus::GdiplusShutdown( m_dwToken );

	push	eax
	call	DWORD PTR __imp__GdiplusShutdown@4
$LN4@CInitGDIPl:

; 587  : 	}
; 588  : 	m_dwToken = 0;
; 589  : 	LeaveCriticalSection(&m_sect);

	push	OFFSET ?gdiPlus@?1??GetInitGDIPlusInstance@CImage@ATL@@CAPAVCInitGDIPlus@23@XZ@4V423@A+4
	mov	DWORD PTR ?gdiPlus@?1??GetInitGDIPlusInstance@CImage@ATL@@CAPAVCInitGDIPlus@23@XZ@4V423@A, 0
	call	DWORD PTR __imp__LeaveCriticalSection@4

; 555  : 	ReleaseGDIPlus();
; 556  : 	// intentionally leak m_sect to fix VSO#549929 while maintaining ABI compatibility, TRANSITION, VSO#549929
; 557  : }

	ret	0
??1CInitGDIPlus@CImage@ATL@@QAE@XZ ENDP			; ATL::CImage::CInitGDIPlus::~CInitGDIPlus
_TEXT	ENDS
; Function compile flags: /Ogtp
; File C:\Program Files (x86)\Microsoft Visual Studio\2019\Community\VC\Tools\MSVC\14.24.28314\atlmfc\include\atlimage.h
;	COMDAT ?ReleaseGDIPlus@CInitGDIPlus@CImage@ATL@@QAEXXZ
_TEXT	SEGMENT
?ReleaseGDIPlus@CInitGDIPlus@CImage@ATL@@QAEXXZ PROC	; ATL::CImage::CInitGDIPlus::ReleaseGDIPlus, COMDAT
; _this$dead$ = ecx

; 583  : 	EnterCriticalSection(&m_sect);

	push	OFFSET ?gdiPlus@?1??GetInitGDIPlusInstance@CImage@ATL@@CAPAVCInitGDIPlus@23@XZ@4V423@A+4
	call	DWORD PTR __imp__EnterCriticalSection@4

; 584  : 	if( m_dwToken != 0 )

	mov	eax, DWORD PTR ?gdiPlus@?1??GetInitGDIPlusInstance@CImage@ATL@@CAPAVCInitGDIPlus@23@XZ@4V423@A
	test	eax, eax
	je	SHORT $LN2@ReleaseGDI

; 585  : 	{
; 586  : 		Gdiplus::GdiplusShutdown( m_dwToken );

	push	eax
	call	DWORD PTR __imp__GdiplusShutdown@4
$LN2@ReleaseGDI:

; 587  : 	}
; 588  : 	m_dwToken = 0;
; 589  : 	LeaveCriticalSection(&m_sect);

	push	OFFSET ?gdiPlus@?1??GetInitGDIPlusInstance@CImage@ATL@@CAPAVCInitGDIPlus@23@XZ@4V423@A+4
	mov	DWORD PTR ?gdiPlus@?1??GetInitGDIPlusInstance@CImage@ATL@@CAPAVCInitGDIPlus@23@XZ@4V423@A, 0
	call	DWORD PTR __imp__LeaveCriticalSection@4

; 590  : }

	ret	0
?ReleaseGDIPlus@CInitGDIPlus@CImage@ATL@@QAEXXZ ENDP	; ATL::CImage::CInitGDIPlus::ReleaseGDIPlus
_TEXT	ENDS
; Function compile flags: /Ogtp
; File C:\Program Files (x86)\Microsoft Visual Studio\2019\Community\VC\Tools\MSVC\14.24.28314\atlmfc\include\atlimage.h
;	COMDAT ??0CDCCache@CImage@ATL@@QAE@XZ
_TEXT	SEGMENT
??0CDCCache@CImage@ATL@@QAE@XZ PROC			; ATL::CImage::CDCCache::CDCCache, COMDAT
; _this$dead$ = ecx

; 608  : {

	xorps	xmm0, xmm0

; 609  : 	int iDC;
; 610  : 
; 611  : 	for( iDC = 0; iDC < CIMAGE_DC_CACHE_SIZE; iDC++ )
; 612  : 	{
; 613  : 		m_ahDCs[iDC] = NULL;
; 614  : 	}
; 615  : }

	mov	eax, OFFSET ?cache@?1??GetCDCCacheInstance@CImage@ATL@@CAPAVCDCCache@23@XZ@4V423@A ; `ATL::CImage::GetCDCCacheInstance'::`2'::cache
	movups	XMMWORD PTR ?cache@?1??GetCDCCacheInstance@CImage@ATL@@CAPAVCDCCache@23@XZ@4V423@A, xmm0
	ret	0
??0CDCCache@CImage@ATL@@QAE@XZ ENDP			; ATL::CImage::CDCCache::CDCCache
_TEXT	ENDS
; Function compile flags: /Ogtp
; File C:\Program Files (x86)\Microsoft Visual Studio\2019\Community\VC\Tools\MSVC\14.24.28314\atlmfc\include\atlimage.h
;	COMDAT ??1CDCCache@CImage@ATL@@QAE@XZ
_TEXT	SEGMENT
??1CDCCache@CImage@ATL@@QAE@XZ PROC			; ATL::CImage::CDCCache::~CDCCache, COMDAT
; _this$dead$ = ecx

; 618  : {

	push	esi
	push	edi

; 619  : 	int iDC;
; 620  : 
; 621  : 	for( iDC = 0; iDC < CIMAGE_DC_CACHE_SIZE; iDC++ )

	mov	edi, DWORD PTR __imp__DeleteDC@4
	mov	esi, OFFSET ?cache@?1??GetCDCCacheInstance@CImage@ATL@@CAPAVCDCCache@23@XZ@4V423@A ; `ATL::CImage::GetCDCCacheInstance'::`2'::cache
	npad	3
$LL4@CDCCache:

; 622  : 	{
; 623  : 		if( m_ahDCs[iDC] != NULL )

	mov	eax, DWORD PTR [esi]
	test	eax, eax
	je	SHORT $LN2@CDCCache

; 624  : 		{
; 625  : 			::DeleteDC( m_ahDCs[iDC] );

	push	eax
	call	edi
$LN2@CDCCache:

; 619  : 	int iDC;
; 620  : 
; 621  : 	for( iDC = 0; iDC < CIMAGE_DC_CACHE_SIZE; iDC++ )

	add	esi, 4
	cmp	esi, OFFSET ?cache@?1??GetCDCCacheInstance@CImage@ATL@@CAPAVCDCCache@23@XZ@4V423@A+16
	jl	SHORT $LL4@CDCCache

; 626  : 		}
; 627  : 	}
; 628  : }

	pop	edi
	pop	esi
	ret	0
??1CDCCache@CImage@ATL@@QAE@XZ ENDP			; ATL::CImage::CDCCache::~CDCCache
_TEXT	ENDS
; Function compile flags: /Ogtp
; File C:\Program Files (x86)\Microsoft Visual Studio\2019\Community\VC\Tools\MSVC\14.24.28314\atlmfc\include\atlsimpcoll.h
;	COMDAT ??A?$CSimpleArray@GV?$CSimpleArrayEqualHelper@G@ATL@@@ATL@@QAEAAGH@Z
_TEXT	SEGMENT
_nIndex$ = 8						; size = 4
??A?$CSimpleArray@GV?$CSimpleArrayEqualHelper@G@ATL@@@ATL@@QAEAAGH@Z PROC ; ATL::CSimpleArray<unsigned short,ATL::CSimpleArrayEqualHelper<unsigned short> >::operator[], COMDAT
; _this$ = ecx

; 236  : 	{

	push	ebp
	mov	ebp, esp

; 237  : 		ATLASSERT(nIndex >= 0 && nIndex < m_nSize);
; 238  : 		if(nIndex < 0 || nIndex >= m_nSize)

	mov	edx, DWORD PTR _nIndex$[ebp]
	test	edx, edx
	js	SHORT $LN3@operator
	cmp	edx, DWORD PTR [ecx+4]
	jge	SHORT $LN3@operator

; 241  : 		}
; 242  : 		return m_aT[nIndex];

	mov	eax, DWORD PTR [ecx]
	lea	eax, DWORD PTR [eax+edx*2]

; 243  : 	}

	pop	ebp
	ret	4
$LN3@operator:

; 239  : 		{
; 240  : 			_AtlRaiseException((DWORD)EXCEPTION_ARRAY_BOUNDS_EXCEEDED);

	push	1
	push	-1073741684				; c000008cH
	call	?_AtlRaiseException@ATL@@YAXKK@Z	; ATL::_AtlRaiseException
$LN5@operator:
	int	3
??A?$CSimpleArray@GV?$CSimpleArrayEqualHelper@G@ATL@@@ATL@@QAEAAGH@Z ENDP ; ATL::CSimpleArray<unsigned short,ATL::CSimpleArrayEqualHelper<unsigned short> >::operator[]
_TEXT	ENDS
; Function compile flags: /Ogtp
; File C:\Program Files (x86)\Microsoft Visual Studio\2019\Community\VC\Tools\MSVC\14.24.28314\atlmfc\include\atlsimpcoll.h
;	COMDAT ?RemoveAll@?$CSimpleArray@GV?$CSimpleArrayEqualHelper@G@ATL@@@ATL@@QAEXXZ
_TEXT	SEGMENT
?RemoveAll@?$CSimpleArray@GV?$CSimpleArrayEqualHelper@G@ATL@@@ATL@@QAEXXZ PROC ; ATL::CSimpleArray<unsigned short,ATL::CSimpleArrayEqualHelper<unsigned short> >::RemoveAll, COMDAT
; _this$ = ecx

; 215  : 	{

	push	esi
	mov	esi, ecx

; 216  : 		if(m_aT != NULL)

	mov	eax, DWORD PTR [esi]
	test	eax, eax
	je	SHORT $LN11@RemoveAll

; 217  : 		{
; 218  : 			for(int i = 0; i < m_nSize; i++)
; 219  : 				m_aT[i].~T();
; 220  : 			free(m_aT);

	push	eax
	call	DWORD PTR __imp__free
	add	esp, 4

; 221  : 			m_aT = NULL;

	mov	DWORD PTR [esi], 0
$LN11@RemoveAll:

; 222  : 		}
; 223  : 		m_nSize = 0;
; 224  : 		m_nAllocSize = 0;
; 225  :     }

	mov	DWORD PTR [esi+8], 0
	mov	DWORD PTR [esi+4], 0
	pop	esi
	ret	0
?RemoveAll@?$CSimpleArray@GV?$CSimpleArrayEqualHelper@G@ATL@@@ATL@@QAEXXZ ENDP ; ATL::CSimpleArray<unsigned short,ATL::CSimpleArrayEqualHelper<unsigned short> >::RemoveAll
_TEXT	ENDS
; Function compile flags: /Ogtp
; File C:\Program Files (x86)\Microsoft Visual Studio\2019\Community\VC\Tools\MSVC\14.24.28314\atlmfc\include\atlsimpcoll.h
;	COMDAT ?GetSize@?$CSimpleArray@GV?$CSimpleArrayEqualHelper@G@ATL@@@ATL@@QBEHXZ
_TEXT	SEGMENT
?GetSize@?$CSimpleArray@GV?$CSimpleArrayEqualHelper@G@ATL@@@ATL@@QBEHXZ PROC ; ATL::CSimpleArray<unsigned short,ATL::CSimpleArrayEqualHelper<unsigned short> >::GetSize, COMDAT
; _this$ = ecx

; 161  : 		return m_nSize;

	mov	eax, DWORD PTR [ecx+4]

; 162  : 	}

	ret	0
?GetSize@?$CSimpleArray@GV?$CSimpleArrayEqualHelper@G@ATL@@@ATL@@QBEHXZ ENDP ; ATL::CSimpleArray<unsigned short,ATL::CSimpleArrayEqualHelper<unsigned short> >::GetSize
_TEXT	ENDS
; Function compile flags: /Ogtp
; File C:\Program Files (x86)\Microsoft Visual Studio\2019\Community\VC\Tools\MSVC\14.24.28314\atlmfc\include\atlsimpcoll.h
;	COMDAT ??0?$CSimpleArray@GV?$CSimpleArrayEqualHelper@G@ATL@@@ATL@@QAE@XZ
_TEXT	SEGMENT
??0?$CSimpleArray@GV?$CSimpleArrayEqualHelper@G@ATL@@@ATL@@QAE@XZ PROC ; ATL::CSimpleArray<unsigned short,ATL::CSimpleArrayEqualHelper<unsigned short> >::CSimpleArray<unsigned short,ATL::CSimpleArrayEqualHelper<unsigned short> >, COMDAT
; _this$ = ecx

; 119  : 		m_aT(NULL), m_nSize(0), m_nAllocSize(0)

	mov	DWORD PTR [ecx], 0

; 121  : 	}

	mov	eax, ecx
	mov	DWORD PTR [ecx+4], 0
	mov	DWORD PTR [ecx+8], 0
	ret	0
??0?$CSimpleArray@GV?$CSimpleArrayEqualHelper@G@ATL@@@ATL@@QAE@XZ ENDP ; ATL::CSimpleArray<unsigned short,ATL::CSimpleArrayEqualHelper<unsigned short> >::CSimpleArray<unsigned short,ATL::CSimpleArrayEqualHelper<unsigned short> >
_TEXT	ENDS
; Function compile flags: /Ogtp
; File C:\Program Files (x86)\Microsoft Visual Studio\2019\Community\VC\Tools\MSVC\14.24.28314\atlmfc\include\atlalloc.h
;	COMDAT ??$AtlAdd@K@ATL@@YAJPAKKK@Z
_TEXT	SEGMENT
_ptResult$ = 8						; size = 4
_tLeft$ = 12						; size = 4
_tRight$ = 16						; size = 4
??$AtlAdd@K@ATL@@YAJPAKKK@Z PROC			; ATL::AtlAdd<unsigned long>, COMDAT

; 84   : {

	push	ebp
	mov	ebp, esp

; 85   : 	if(::ATL::AtlLimits<T>::_Max-tLeft < tRight)

	mov	ecx, DWORD PTR _tLeft$[ebp]
	mov	eax, ecx
	mov	edx, DWORD PTR _tRight$[ebp]
	not	eax
	cmp	eax, edx
	jae	SHORT $LN2@AtlAdd

; 86   : 	{
; 87   : 		return HRESULT_FROM_WIN32(ERROR_ARITHMETIC_OVERFLOW);

	mov	eax, -2147024362			; 80070216H

; 91   : }

	pop	ebp
	ret	0
$LN2@AtlAdd:

; 88   : 	}
; 89   : 	*ptResult= tLeft + tRight;

	mov	eax, DWORD PTR _ptResult$[ebp]
	add	ecx, edx
	mov	DWORD PTR [eax], ecx

; 90   : 	return S_OK;

	xor	eax, eax

; 91   : }

	pop	ebp
	ret	0
??$AtlAdd@K@ATL@@YAJPAKKK@Z ENDP			; ATL::AtlAdd<unsigned long>
_TEXT	ENDS
; Function compile flags: /Ogtp
; File C:\Program Files (x86)\Microsoft Visual Studio\2019\Community\VC\Tools\MSVC\14.24.28314\atlmfc\include\atltrace.h
;	COMDAT ??0?$CTraceCategoryEx@$0IAAAA@$0A@@ATL@@QAE@PBD@Z
_TEXT	SEGMENT
_pszCategoryName$ = 8					; size = 4
??0?$CTraceCategoryEx@$0IAAAA@$0A@@ATL@@QAE@PBD@Z PROC	; ATL::CTraceCategoryEx<524288,0>::CTraceCategoryEx<524288,0>, COMDAT
; _this$ = ecx

; 496  : 	(void)pszCategoryName;
; 497  : }

	mov	eax, ecx
	ret	4
??0?$CTraceCategoryEx@$0IAAAA@$0A@@ATL@@QAE@PBD@Z ENDP	; ATL::CTraceCategoryEx<524288,0>::CTraceCategoryEx<524288,0>
_TEXT	ENDS
; Function compile flags: /Ogtp
; File C:\Program Files (x86)\Microsoft Visual Studio\2019\Community\VC\Tools\MSVC\14.24.28314\atlmfc\include\atltrace.h
;	COMDAT ??0?$CTraceCategoryEx@$00$0A@@ATL@@QAE@PBD@Z
_TEXT	SEGMENT
_pszCategoryName$ = 8					; size = 4
??0?$CTraceCategoryEx@$00$0A@@ATL@@QAE@PBD@Z PROC	; ATL::CTraceCategoryEx<1,0>::CTraceCategoryEx<1,0>, COMDAT
; _this$ = ecx

; 496  : 	(void)pszCategoryName;
; 497  : }

	mov	eax, ecx
	ret	4
??0?$CTraceCategoryEx@$00$0A@@ATL@@QAE@PBD@Z ENDP	; ATL::CTraceCategoryEx<1,0>::CTraceCategoryEx<1,0>
_TEXT	ENDS
; Function compile flags: /Ogtp
; File C:\Program Files (x86)\Microsoft Visual Studio\2019\Community\VC\Tools\MSVC\14.24.28314\atlmfc\include\atltrace.h
;	COMDAT ??0?$CTraceCategoryEx@$01$0A@@ATL@@QAE@PBD@Z
_TEXT	SEGMENT
_pszCategoryName$ = 8					; size = 4
??0?$CTraceCategoryEx@$01$0A@@ATL@@QAE@PBD@Z PROC	; ATL::CTraceCategoryEx<2,0>::CTraceCategoryEx<2,0>, COMDAT
; _this$ = ecx

; 496  : 	(void)pszCategoryName;
; 497  : }

	mov	eax, ecx
	ret	4
??0?$CTraceCategoryEx@$01$0A@@ATL@@QAE@PBD@Z ENDP	; ATL::CTraceCategoryEx<2,0>::CTraceCategoryEx<2,0>
_TEXT	ENDS
; Function compile flags: /Ogtp
; File C:\Program Files (x86)\Microsoft Visual Studio\2019\Community\VC\Tools\MSVC\14.24.28314\atlmfc\include\atltrace.h
;	COMDAT ??0?$CTraceCategoryEx@$03$0A@@ATL@@QAE@PBD@Z
_TEXT	SEGMENT
_pszCategoryName$ = 8					; size = 4
??0?$CTraceCategoryEx@$03$0A@@ATL@@QAE@PBD@Z PROC	; ATL::CTraceCategoryEx<4,0>::CTraceCategoryEx<4,0>, COMDAT
; _this$ = ecx

; 496  : 	(void)pszCategoryName;
; 497  : }

	mov	eax, ecx
	ret	4
??0?$CTraceCategoryEx@$03$0A@@ATL@@QAE@PBD@Z ENDP	; ATL::CTraceCategoryEx<4,0>::CTraceCategoryEx<4,0>
_TEXT	ENDS
; Function compile flags: /Ogtp
; File C:\Program Files (x86)\Microsoft Visual Studio\2019\Community\VC\Tools\MSVC\14.24.28314\atlmfc\include\atltrace.h
;	COMDAT ??0?$CTraceCategoryEx@$07$0A@@ATL@@QAE@PBD@Z
_TEXT	SEGMENT
_pszCategoryName$ = 8					; size = 4
??0?$CTraceCategoryEx@$07$0A@@ATL@@QAE@PBD@Z PROC	; ATL::CTraceCategoryEx<8,0>::CTraceCategoryEx<8,0>, COMDAT
; _this$ = ecx

; 496  : 	(void)pszCategoryName;
; 497  : }

	mov	eax, ecx
	ret	4
??0?$CTraceCategoryEx@$07$0A@@ATL@@QAE@PBD@Z ENDP	; ATL::CTraceCategoryEx<8,0>::CTraceCategoryEx<8,0>
_TEXT	ENDS
; Function compile flags: /Ogtp
; File C:\Program Files (x86)\Microsoft Visual Studio\2019\Community\VC\Tools\MSVC\14.24.28314\atlmfc\include\atltrace.h
;	COMDAT ??0?$CTraceCategoryEx@$0BA@$0A@@ATL@@QAE@PBD@Z
_TEXT	SEGMENT
_pszCategoryName$ = 8					; size = 4
??0?$CTraceCategoryEx@$0BA@$0A@@ATL@@QAE@PBD@Z PROC	; ATL::CTraceCategoryEx<16,0>::CTraceCategoryEx<16,0>, COMDAT
; _this$ = ecx

; 496  : 	(void)pszCategoryName;
; 497  : }

	mov	eax, ecx
	ret	4
??0?$CTraceCategoryEx@$0BA@$0A@@ATL@@QAE@PBD@Z ENDP	; ATL::CTraceCategoryEx<16,0>::CTraceCategoryEx<16,0>
_TEXT	ENDS
; Function compile flags: /Ogtp
; File C:\Program Files (x86)\Microsoft Visual Studio\2019\Community\VC\Tools\MSVC\14.24.28314\atlmfc\include\atltrace.h
;	COMDAT ??0?$CTraceCategoryEx@$0CA@$0A@@ATL@@QAE@PBD@Z
_TEXT	SEGMENT
_pszCategoryName$ = 8					; size = 4
??0?$CTraceCategoryEx@$0CA@$0A@@ATL@@QAE@PBD@Z PROC	; ATL::CTraceCategoryEx<32,0>::CTraceCategoryEx<32,0>, COMDAT
; _this$ = ecx

; 496  : 	(void)pszCategoryName;
; 497  : }

	mov	eax, ecx
	ret	4
??0?$CTraceCategoryEx@$0CA@$0A@@ATL@@QAE@PBD@Z ENDP	; ATL::CTraceCategoryEx<32,0>::CTraceCategoryEx<32,0>
_TEXT	ENDS
; Function compile flags: /Ogtp
; File C:\Program Files (x86)\Microsoft Visual Studio\2019\Community\VC\Tools\MSVC\14.24.28314\atlmfc\include\atltrace.h
;	COMDAT ??0?$CTraceCategoryEx@$0EA@$0A@@ATL@@QAE@PBD@Z
_TEXT	SEGMENT
_pszCategoryName$ = 8					; size = 4
??0?$CTraceCategoryEx@$0EA@$0A@@ATL@@QAE@PBD@Z PROC	; ATL::CTraceCategoryEx<64,0>::CTraceCategoryEx<64,0>, COMDAT
; _this$ = ecx

; 496  : 	(void)pszCategoryName;
; 497  : }

	mov	eax, ecx
	ret	4
??0?$CTraceCategoryEx@$0EA@$0A@@ATL@@QAE@PBD@Z ENDP	; ATL::CTraceCategoryEx<64,0>::CTraceCategoryEx<64,0>
_TEXT	ENDS
; Function compile flags: /Ogtp
; File C:\Program Files (x86)\Microsoft Visual Studio\2019\Community\VC\Tools\MSVC\14.24.28314\atlmfc\include\atltrace.h
;	COMDAT ??0?$CTraceCategoryEx@$0IA@$0A@@ATL@@QAE@PBD@Z
_TEXT	SEGMENT
_pszCategoryName$ = 8					; size = 4
??0?$CTraceCategoryEx@$0IA@$0A@@ATL@@QAE@PBD@Z PROC	; ATL::CTraceCategoryEx<128,0>::CTraceCategoryEx<128,0>, COMDAT
; _this$ = ecx

; 496  : 	(void)pszCategoryName;
; 497  : }

	mov	eax, ecx
	ret	4
??0?$CTraceCategoryEx@$0IA@$0A@@ATL@@QAE@PBD@Z ENDP	; ATL::CTraceCategoryEx<128,0>::CTraceCategoryEx<128,0>
_TEXT	ENDS
; Function compile flags: /Ogtp
; File C:\Program Files (x86)\Microsoft Visual Studio\2019\Community\VC\Tools\MSVC\14.24.28314\atlmfc\include\atltrace.h
;	COMDAT ??0?$CTraceCategoryEx@$0BAA@$0A@@ATL@@QAE@PBD@Z
_TEXT	SEGMENT
_pszCategoryName$ = 8					; size = 4
??0?$CTraceCategoryEx@$0BAA@$0A@@ATL@@QAE@PBD@Z PROC	; ATL::CTraceCategoryEx<256,0>::CTraceCategoryEx<256,0>, COMDAT
; _this$ = ecx

; 496  : 	(void)pszCategoryName;
; 497  : }

	mov	eax, ecx
	ret	4
??0?$CTraceCategoryEx@$0BAA@$0A@@ATL@@QAE@PBD@Z ENDP	; ATL::CTraceCategoryEx<256,0>::CTraceCategoryEx<256,0>
_TEXT	ENDS
; Function compile flags: /Ogtp
; File C:\Program Files (x86)\Microsoft Visual Studio\2019\Community\VC\Tools\MSVC\14.24.28314\atlmfc\include\atltrace.h
;	COMDAT ??0?$CTraceCategoryEx@$0CAA@$0A@@ATL@@QAE@PBD@Z
_TEXT	SEGMENT
_pszCategoryName$ = 8					; size = 4
??0?$CTraceCategoryEx@$0CAA@$0A@@ATL@@QAE@PBD@Z PROC	; ATL::CTraceCategoryEx<512,0>::CTraceCategoryEx<512,0>, COMDAT
; _this$ = ecx

; 496  : 	(void)pszCategoryName;
; 497  : }

	mov	eax, ecx
	ret	4
??0?$CTraceCategoryEx@$0CAA@$0A@@ATL@@QAE@PBD@Z ENDP	; ATL::CTraceCategoryEx<512,0>::CTraceCategoryEx<512,0>
_TEXT	ENDS
; Function compile flags: /Ogtp
; File C:\Program Files (x86)\Microsoft Visual Studio\2019\Community\VC\Tools\MSVC\14.24.28314\atlmfc\include\atltrace.h
;	COMDAT ??0?$CTraceCategoryEx@$0EAA@$0A@@ATL@@QAE@PBD@Z
_TEXT	SEGMENT
_pszCategoryName$ = 8					; size = 4
??0?$CTraceCategoryEx@$0EAA@$0A@@ATL@@QAE@PBD@Z PROC	; ATL::CTraceCategoryEx<1024,0>::CTraceCategoryEx<1024,0>, COMDAT
; _this$ = ecx

; 496  : 	(void)pszCategoryName;
; 497  : }

	mov	eax, ecx
	ret	4
??0?$CTraceCategoryEx@$0EAA@$0A@@ATL@@QAE@PBD@Z ENDP	; ATL::CTraceCategoryEx<1024,0>::CTraceCategoryEx<1024,0>
_TEXT	ENDS
; Function compile flags: /Ogtp
; File C:\Program Files (x86)\Microsoft Visual Studio\2019\Community\VC\Tools\MSVC\14.24.28314\atlmfc\include\atltrace.h
;	COMDAT ??0?$CTraceCategoryEx@$0IAA@$0A@@ATL@@QAE@PBD@Z
_TEXT	SEGMENT
_pszCategoryName$ = 8					; size = 4
??0?$CTraceCategoryEx@$0IAA@$0A@@ATL@@QAE@PBD@Z PROC	; ATL::CTraceCategoryEx<2048,0>::CTraceCategoryEx<2048,0>, COMDAT
; _this$ = ecx

; 496  : 	(void)pszCategoryName;
; 497  : }

	mov	eax, ecx
	ret	4
??0?$CTraceCategoryEx@$0IAA@$0A@@ATL@@QAE@PBD@Z ENDP	; ATL::CTraceCategoryEx<2048,0>::CTraceCategoryEx<2048,0>
_TEXT	ENDS
; Function compile flags: /Ogtp
; File C:\Program Files (x86)\Microsoft Visual Studio\2019\Community\VC\Tools\MSVC\14.24.28314\atlmfc\include\atltrace.h
;	COMDAT ??0?$CTraceCategoryEx@$0BAAA@$0A@@ATL@@QAE@PBD@Z
_TEXT	SEGMENT
_pszCategoryName$ = 8					; size = 4
??0?$CTraceCategoryEx@$0BAAA@$0A@@ATL@@QAE@PBD@Z PROC	; ATL::CTraceCategoryEx<4096,0>::CTraceCategoryEx<4096,0>, COMDAT
; _this$ = ecx

; 496  : 	(void)pszCategoryName;
; 497  : }

	mov	eax, ecx
	ret	4
??0?$CTraceCategoryEx@$0BAAA@$0A@@ATL@@QAE@PBD@Z ENDP	; ATL::CTraceCategoryEx<4096,0>::CTraceCategoryEx<4096,0>
_TEXT	ENDS
; Function compile flags: /Ogtp
; File C:\Program Files (x86)\Microsoft Visual Studio\2019\Community\VC\Tools\MSVC\14.24.28314\atlmfc\include\atltrace.h
;	COMDAT ??0?$CTraceCategoryEx@$0CAAA@$0A@@ATL@@QAE@PBD@Z
_TEXT	SEGMENT
_pszCategoryName$ = 8					; size = 4
??0?$CTraceCategoryEx@$0CAAA@$0A@@ATL@@QAE@PBD@Z PROC	; ATL::CTraceCategoryEx<8192,0>::CTraceCategoryEx<8192,0>, COMDAT
; _this$ = ecx

; 496  : 	(void)pszCategoryName;
; 497  : }

	mov	eax, ecx
	ret	4
??0?$CTraceCategoryEx@$0CAAA@$0A@@ATL@@QAE@PBD@Z ENDP	; ATL::CTraceCategoryEx<8192,0>::CTraceCategoryEx<8192,0>
_TEXT	ENDS
; Function compile flags: /Ogtp
; File C:\Program Files (x86)\Microsoft Visual Studio\2019\Community\VC\Tools\MSVC\14.24.28314\atlmfc\include\atltrace.h
;	COMDAT ??0?$CTraceCategoryEx@$0EAAA@$0A@@ATL@@QAE@PBD@Z
_TEXT	SEGMENT
_pszCategoryName$ = 8					; size = 4
??0?$CTraceCategoryEx@$0EAAA@$0A@@ATL@@QAE@PBD@Z PROC	; ATL::CTraceCategoryEx<16384,0>::CTraceCategoryEx<16384,0>, COMDAT
; _this$ = ecx

; 496  : 	(void)pszCategoryName;
; 497  : }

	mov	eax, ecx
	ret	4
??0?$CTraceCategoryEx@$0EAAA@$0A@@ATL@@QAE@PBD@Z ENDP	; ATL::CTraceCategoryEx<16384,0>::CTraceCategoryEx<16384,0>
_TEXT	ENDS
; Function compile flags: /Ogtp
; File C:\Program Files (x86)\Microsoft Visual Studio\2019\Community\VC\Tools\MSVC\14.24.28314\atlmfc\include\atltrace.h
;	COMDAT ??0?$CTraceCategoryEx@$0IAAA@$0A@@ATL@@QAE@PBD@Z
_TEXT	SEGMENT
_pszCategoryName$ = 8					; size = 4
??0?$CTraceCategoryEx@$0IAAA@$0A@@ATL@@QAE@PBD@Z PROC	; ATL::CTraceCategoryEx<32768,0>::CTraceCategoryEx<32768,0>, COMDAT
; _this$ = ecx

; 496  : 	(void)pszCategoryName;
; 497  : }

	mov	eax, ecx
	ret	4
??0?$CTraceCategoryEx@$0IAAA@$0A@@ATL@@QAE@PBD@Z ENDP	; ATL::CTraceCategoryEx<32768,0>::CTraceCategoryEx<32768,0>
_TEXT	ENDS
; Function compile flags: /Ogtp
; File C:\Program Files (x86)\Microsoft Visual Studio\2019\Community\VC\Tools\MSVC\14.24.28314\atlmfc\include\atltrace.h
;	COMDAT ??0?$CTraceCategoryEx@$0BAAAA@$0A@@ATL@@QAE@PBD@Z
_TEXT	SEGMENT
_pszCategoryName$ = 8					; size = 4
??0?$CTraceCategoryEx@$0BAAAA@$0A@@ATL@@QAE@PBD@Z PROC	; ATL::CTraceCategoryEx<65536,0>::CTraceCategoryEx<65536,0>, COMDAT
; _this$ = ecx

; 496  : 	(void)pszCategoryName;
; 497  : }

	mov	eax, ecx
	ret	4
??0?$CTraceCategoryEx@$0BAAAA@$0A@@ATL@@QAE@PBD@Z ENDP	; ATL::CTraceCategoryEx<65536,0>::CTraceCategoryEx<65536,0>
_TEXT	ENDS
; Function compile flags: /Ogtp
; File C:\Program Files (x86)\Microsoft Visual Studio\2019\Community\VC\Tools\MSVC\14.24.28314\atlmfc\include\atltrace.h
;	COMDAT ??0?$CTraceCategoryEx@$0CAAAA@$0A@@ATL@@QAE@PBD@Z
_TEXT	SEGMENT
_pszCategoryName$ = 8					; size = 4
??0?$CTraceCategoryEx@$0CAAAA@$0A@@ATL@@QAE@PBD@Z PROC	; ATL::CTraceCategoryEx<131072,0>::CTraceCategoryEx<131072,0>, COMDAT
; _this$ = ecx

; 496  : 	(void)pszCategoryName;
; 497  : }

	mov	eax, ecx
	ret	4
??0?$CTraceCategoryEx@$0CAAAA@$0A@@ATL@@QAE@PBD@Z ENDP	; ATL::CTraceCategoryEx<131072,0>::CTraceCategoryEx<131072,0>
_TEXT	ENDS
; Function compile flags: /Ogtp
; File C:\Program Files (x86)\Microsoft Visual Studio\2019\Community\VC\Tools\MSVC\14.24.28314\atlmfc\include\atltrace.h
;	COMDAT ??0?$CTraceCategoryEx@$0EAAAA@$0A@@ATL@@QAE@PBD@Z
_TEXT	SEGMENT
_pszCategoryName$ = 8					; size = 4
??0?$CTraceCategoryEx@$0EAAAA@$0A@@ATL@@QAE@PBD@Z PROC	; ATL::CTraceCategoryEx<262144,0>::CTraceCategoryEx<262144,0>, COMDAT
; _this$ = ecx

; 496  : 	(void)pszCategoryName;
; 497  : }

	mov	eax, ecx
	ret	4
??0?$CTraceCategoryEx@$0EAAAA@$0A@@ATL@@QAE@PBD@Z ENDP	; ATL::CTraceCategoryEx<262144,0>::CTraceCategoryEx<262144,0>
_TEXT	ENDS
; Function compile flags: /Ogtp
; File C:\Program Files (x86)\Microsoft Visual Studio\2019\Community\VC\Tools\MSVC\14.24.28314\atlmfc\include\atltrace.h
;	COMDAT ??0?$CTraceCategoryEx@$0BAAAAA@$0A@@ATL@@QAE@PBD@Z
_TEXT	SEGMENT
_pszCategoryName$ = 8					; size = 4
??0?$CTraceCategoryEx@$0BAAAAA@$0A@@ATL@@QAE@PBD@Z PROC	; ATL::CTraceCategoryEx<1048576,0>::CTraceCategoryEx<1048576,0>, COMDAT
; _this$ = ecx

; 496  : 	(void)pszCategoryName;
; 497  : }

	mov	eax, ecx
	ret	4
??0?$CTraceCategoryEx@$0BAAAAA@$0A@@ATL@@QAE@PBD@Z ENDP	; ATL::CTraceCategoryEx<1048576,0>::CTraceCategoryEx<1048576,0>
_TEXT	ENDS
; Function compile flags: /Ogtp
; File C:\Program Files (x86)\Microsoft Visual Studio\2019\Community\VC\Tools\MSVC\14.24.28314\atlmfc\include\atltrace.h
;	COMDAT ??0?$CTraceCategoryEx@$0CAAAAA@$0A@@ATL@@QAE@PBD@Z
_TEXT	SEGMENT
_pszCategoryName$ = 8					; size = 4
??0?$CTraceCategoryEx@$0CAAAAA@$0A@@ATL@@QAE@PBD@Z PROC	; ATL::CTraceCategoryEx<2097152,0>::CTraceCategoryEx<2097152,0>, COMDAT
; _this$ = ecx

; 496  : 	(void)pszCategoryName;
; 497  : }

	mov	eax, ecx
	ret	4
??0?$CTraceCategoryEx@$0CAAAAA@$0A@@ATL@@QAE@PBD@Z ENDP	; ATL::CTraceCategoryEx<2097152,0>::CTraceCategoryEx<2097152,0>
_TEXT	ENDS
; Function compile flags: /Ogtp
; File C:\Program Files (x86)\Microsoft Visual Studio\2019\Community\VC\Tools\MSVC\14.24.28314\atlmfc\include\atltrace.h
;	COMDAT ??0?$CTraceCategoryEx@$0EAAAAA@$0A@@ATL@@QAE@PBD@Z
_TEXT	SEGMENT
_pszCategoryName$ = 8					; size = 4
??0?$CTraceCategoryEx@$0EAAAAA@$0A@@ATL@@QAE@PBD@Z PROC	; ATL::CTraceCategoryEx<4194304,0>::CTraceCategoryEx<4194304,0>, COMDAT
; _this$ = ecx

; 496  : 	(void)pszCategoryName;
; 497  : }

	mov	eax, ecx
	ret	4
??0?$CTraceCategoryEx@$0EAAAAA@$0A@@ATL@@QAE@PBD@Z ENDP	; ATL::CTraceCategoryEx<4194304,0>::CTraceCategoryEx<4194304,0>
_TEXT	ENDS
; Function compile flags: /Ogtp
; File C:\Program Files (x86)\Microsoft Visual Studio\2019\Community\VC\Tools\MSVC\14.24.28314\atlmfc\include\atlalloc.h
;	COMDAT ??$AtlAdd@I@ATL@@YAJPAIII@Z
_TEXT	SEGMENT
_ptResult$ = 8						; size = 4
_tLeft$ = 12						; size = 4
_tRight$ = 16						; size = 4
??$AtlAdd@I@ATL@@YAJPAIII@Z PROC			; ATL::AtlAdd<unsigned int>, COMDAT

; 84   : {

	push	ebp
	mov	ebp, esp

; 85   : 	if(::ATL::AtlLimits<T>::_Max-tLeft < tRight)

	mov	ecx, DWORD PTR _tLeft$[ebp]
	mov	eax, ecx
	mov	edx, DWORD PTR _tRight$[ebp]
	not	eax
	cmp	eax, edx
	jae	SHORT $LN2@AtlAdd

; 86   : 	{
; 87   : 		return HRESULT_FROM_WIN32(ERROR_ARITHMETIC_OVERFLOW);

	mov	eax, -2147024362			; 80070216H

; 91   : }

	pop	ebp
	ret	0
$LN2@AtlAdd:

; 88   : 	}
; 89   : 	*ptResult= tLeft + tRight;

	mov	eax, DWORD PTR _ptResult$[ebp]
	add	ecx, edx
	mov	DWORD PTR [eax], ecx

; 90   : 	return S_OK;

	xor	eax, eax

; 91   : }

	pop	ebp
	ret	0
??$AtlAdd@I@ATL@@YAJPAIII@Z ENDP			; ATL::AtlAdd<unsigned int>
_TEXT	ENDS
; Function compile flags: /Ogtp
; File C:\Program Files (x86)\Microsoft Visual Studio\2019\Community\VC\Tools\MSVC\14.24.28314\atlmfc\include\atlalloc.h
;	COMDAT ??$AtlAdd@H@ATL@@YAJPAHHH@Z
_TEXT	SEGMENT
_ptResult$ = 8						; size = 4
_tLeft$ = 12						; size = 4
_tRight$ = 16						; size = 4
??$AtlAdd@H@ATL@@YAJPAHHH@Z PROC			; ATL::AtlAdd<int>, COMDAT

; 84   : {

	push	ebp
	mov	ebp, esp

; 85   : 	if(::ATL::AtlLimits<T>::_Max-tLeft < tRight)

	mov	ecx, DWORD PTR _tLeft$[ebp]
	mov	eax, 2147483647				; 7fffffffH
	mov	edx, DWORD PTR _tRight$[ebp]
	sub	eax, ecx
	cmp	eax, edx
	jge	SHORT $LN2@AtlAdd

; 86   : 	{
; 87   : 		return HRESULT_FROM_WIN32(ERROR_ARITHMETIC_OVERFLOW);

	mov	eax, -2147024362			; 80070216H

; 91   : }

	pop	ebp
	ret	0
$LN2@AtlAdd:

; 88   : 	}
; 89   : 	*ptResult= tLeft + tRight;

	mov	eax, DWORD PTR _ptResult$[ebp]
	add	ecx, edx
	mov	DWORD PTR [eax], ecx

; 90   : 	return S_OK;

	xor	eax, eax

; 91   : }

	pop	ebp
	ret	0
??$AtlAdd@H@ATL@@YAJPAHHH@Z ENDP			; ATL::AtlAdd<int>
_TEXT	ENDS
; Function compile flags: /Ogtp
; File C:\Program Files (x86)\Microsoft Visual Studio\2019\Community\VC\Tools\MSVC\14.24.28314\atlmfc\include\atlsimpcoll.h
;	COMDAT ??1?$CSimpleArray@GV?$CSimpleArrayEqualHelper@G@ATL@@@ATL@@QAE@XZ
_TEXT	SEGMENT
??1?$CSimpleArray@GV?$CSimpleArrayEqualHelper@G@ATL@@@ATL@@QAE@XZ PROC ; ATL::CSimpleArray<unsigned short,ATL::CSimpleArrayEqualHelper<unsigned short> >::~CSimpleArray<unsigned short,ATL::CSimpleArrayEqualHelper<unsigned short> >, COMDAT
; _this$ = ecx

; 310  : {

	push	esi
	mov	esi, ecx

; 216  : 		if(m_aT != NULL)

	mov	eax, DWORD PTR [esi]
	test	eax, eax
	je	SHORT $LN13@CSimpleArr

; 217  : 		{
; 218  : 			for(int i = 0; i < m_nSize; i++)
; 219  : 				m_aT[i].~T();
; 220  : 			free(m_aT);

	push	eax
	call	DWORD PTR __imp__free
	add	esp, 4

; 221  : 			m_aT = NULL;

	mov	DWORD PTR [esi], 0
$LN13@CSimpleArr:

; 311  : 	RemoveAll();
; 312  : }

	mov	DWORD PTR [esi+8], 0
	mov	DWORD PTR [esi+4], 0
	pop	esi
	ret	0
??1?$CSimpleArray@GV?$CSimpleArrayEqualHelper@G@ATL@@@ATL@@QAE@XZ ENDP ; ATL::CSimpleArray<unsigned short,ATL::CSimpleArrayEqualHelper<unsigned short> >::~CSimpleArray<unsigned short,ATL::CSimpleArrayEqualHelper<unsigned short> >
_TEXT	ENDS
; Function compile flags: /Ogtp
; File C:\Program Files (x86)\Microsoft Visual Studio\2019\Community\VC\Tools\MSVC\14.24.28314\atlmfc\include\atlmem.h
;	COMDAT ??$AtlAlignUp@H@ATL@@YGHHK@Z
_TEXT	SEGMENT
_n$ = 8							; size = 4
_nAlign$ = 12						; size = 4
??$AtlAlignUp@H@ATL@@YGHHK@Z PROC			; ATL::AtlAlignUp<int>, COMDAT

; 28   : {

	push	ebp
	mov	ebp, esp

; 29   : 	return( N( (n+(nAlign-1))&~(N( nAlign )-1) ) );

	mov	eax, DWORD PTR _n$[ebp]
	mov	ecx, DWORD PTR _nAlign$[ebp]
	dec	eax
	add	eax, ecx
	neg	ecx
	and	eax, ecx

; 30   : }

	pop	ebp
	ret	8
??$AtlAlignUp@H@ATL@@YGHHK@Z ENDP			; ATL::AtlAlignUp<int>
_TEXT	ENDS
END
