; Listing generated by Microsoft (R) Optimizing Compiler Version 19.24.28314.0 

	TITLE	e:\visual studio application\????????????\thatboyencryptfileencoder\thatboyencrypt.cpp
	.686P
	.XMM
	include listing.inc
	.model	flat

INCLUDELIB OLDNAMES

PUBLIC	??_C@_0O@DELBPIJA@?$LM?S?C?$NM?W?$LM?$LB?$LI?V?P?4?4?4@ ; `string'
PUBLIC	??_C@_0BE@DKIOJLDL@?I?z?$LD?I?C?$NM?B?k?U?$KK?R?$KK?P?E?O?$KC?4?4?4@ ; `string'
PUBLIC	??_C@_0M@OBMPDHDB@?$LA?s?$LG?$KI?I?h?$LB?$LI?4?4?4@ ; `string'
PUBLIC	??_C@_0BC@BOOHFHDH@?$LE?$KG?$MA?m?T?$KN?J?$LM?N?D?$LM?$PO?C?$PL?4?4?4@ ; `string'
PUBLIC	??_C@_04HDOCAJNK@?$CFs?$CFs@			; `string'
PUBLIC	??_C@_0BE@JDHBDFPA@?U?$PN?T?Z?$LE?$KG?$MA?m?N?D?$LM?$PO?D?Z?H?$NN?4?4?4@ ; `string'
PUBLIC	??_C@_0BI@EODDGCKG@?R?Q?P?$LE?H?k?J?p?C?$PL?S?r?$LK?M?N?D?$LM?$PO?M?$LH?4?4?4@ ; `string'
PUBLIC	??_C@_0BO@MHNEFFKB@?U?$PN?T?Z?$LE?$KG?$MA?m?J?$PN?$LO?$NN?$LP?i?$KD?$KM?G?k?D?M?P?D?$LF?H?$LE?$PN?4?4?4@ ; `string'
PUBLIC	??_C@_0BD@EEDJJGAN@?N?D?$LM?$PO?J?$PN?$LO?$NN?$LM?S?C?$NM?M?j?$LD?I?$KB?$KD@ ; `string'
PUBLIC	??_C@_0O@HDFBCNEM@?$LN?b?C?$NM?W?$LM?$LB?$LI?V?P?4?4?4@ ; `string'
PUBLIC	??_C@_0BE@JFONAGKE@?Q?i?V?$KE?C?$NM?B?k?U?$KK?R?$KK?P?E?O?$KC?4?4?4@ ; `string'
PUBLIC	??_C@_0M@CJLCHMHN@?Q?i?V?$KE?I?h?$LB?$LI?4?4?4@	; `string'
PUBLIC	??_C@_0BC@HCLOMCPL@?$LN?b?N?v?T?$KN?J?$LM?N?D?$LM?$PO?C?$PL?4?4?4@ ; `string'
PUBLIC	??_C@_0BD@CIGKAML@?N?D?$LM?$PO?J?$PN?$LO?$NN?$LN?b?C?$NM?M?j?$LD?I?$KB?$KD@ ; `string'
PUBLIC	??_R2?$basic_ofstream@DU?$char_traits@D@std@@@std@@8 ; std::basic_ofstream<char,std::char_traits<char> >::`RTTI Base Class Array'
PUBLIC	??_R2?$basic_ostream@DU?$char_traits@D@std@@@std@@8 ; std::basic_ostream<char,std::char_traits<char> >::`RTTI Base Class Array'
PUBLIC	??_R2?$basic_ifstream@DU?$char_traits@D@std@@@std@@8 ; std::basic_ifstream<char,std::char_traits<char> >::`RTTI Base Class Array'
PUBLIC	??_R2?$basic_istream@DU?$char_traits@D@std@@@std@@8 ; std::basic_istream<char,std::char_traits<char> >::`RTTI Base Class Array'
PUBLIC	??_R2?$basic_ios@DU?$char_traits@D@std@@@std@@8	; std::basic_ios<char,std::char_traits<char> >::`RTTI Base Class Array'
PUBLIC	??_R2ios_base@std@@8				; std::ios_base::`RTTI Base Class Array'
PUBLIC	??_R2?$_Iosb@H@std@@8				; std::_Iosb<int>::`RTTI Base Class Array'
PUBLIC	??_R2?$basic_filebuf@DU?$char_traits@D@std@@@std@@8 ; std::basic_filebuf<char,std::char_traits<char> >::`RTTI Base Class Array'
PUBLIC	??_R2?$basic_streambuf@DU?$char_traits@D@std@@@std@@8 ; std::basic_streambuf<char,std::char_traits<char> >::`RTTI Base Class Array'
PUBLIC	??_R1A@?0A@EA@?$basic_ofstream@DU?$char_traits@D@std@@@std@@8 ; std::basic_ofstream<char,std::char_traits<char> >::`RTTI Base Class Descriptor at (0,-1,0,64)'
PUBLIC	??_R1A@?0A@EA@?$basic_ostream@DU?$char_traits@D@std@@@std@@8 ; std::basic_ostream<char,std::char_traits<char> >::`RTTI Base Class Descriptor at (0,-1,0,64)'
PUBLIC	??_R1A@?0A@EA@?$basic_ifstream@DU?$char_traits@D@std@@@std@@8 ; std::basic_ifstream<char,std::char_traits<char> >::`RTTI Base Class Descriptor at (0,-1,0,64)'
PUBLIC	??_R17A@3EA@?$_Iosb@H@std@@8			; std::_Iosb<int>::`RTTI Base Class Descriptor at (8,0,4,64)'
PUBLIC	??_R1A@A@3EA@ios_base@std@@8			; std::ios_base::`RTTI Base Class Descriptor at (0,0,4,64)'
PUBLIC	??_R1A@A@3FA@?$basic_ios@DU?$char_traits@D@std@@@std@@8 ; std::basic_ios<char,std::char_traits<char> >::`RTTI Base Class Descriptor at (0,0,4,80)'
PUBLIC	??_R1A@?0A@EA@?$basic_istream@DU?$char_traits@D@std@@@std@@8 ; std::basic_istream<char,std::char_traits<char> >::`RTTI Base Class Descriptor at (0,-1,0,64)'
PUBLIC	??_R1A@?0A@EA@?$basic_ios@DU?$char_traits@D@std@@@std@@8 ; std::basic_ios<char,std::char_traits<char> >::`RTTI Base Class Descriptor at (0,-1,0,64)'
PUBLIC	??_R17?0A@EA@?$_Iosb@H@std@@8			; std::_Iosb<int>::`RTTI Base Class Descriptor at (8,-1,0,64)'
PUBLIC	??_R1A@?0A@EA@ios_base@std@@8			; std::ios_base::`RTTI Base Class Descriptor at (0,-1,0,64)'
PUBLIC	??_R1A@?0A@EA@?$_Iosb@H@std@@8			; std::_Iosb<int>::`RTTI Base Class Descriptor at (0,-1,0,64)'
PUBLIC	??_R1A@?0A@EA@?$basic_filebuf@DU?$char_traits@D@std@@@std@@8 ; std::basic_filebuf<char,std::char_traits<char> >::`RTTI Base Class Descriptor at (0,-1,0,64)'
PUBLIC	??_R1A@?0A@EA@?$basic_streambuf@DU?$char_traits@D@std@@@std@@8 ; std::basic_streambuf<char,std::char_traits<char> >::`RTTI Base Class Descriptor at (0,-1,0,64)'
PUBLIC	??_R3?$basic_ostream@DU?$char_traits@D@std@@@std@@8 ; std::basic_ostream<char,std::char_traits<char> >::`RTTI Class Hierarchy Descriptor'
PUBLIC	??_R0?AV?$basic_ostream@DU?$char_traits@D@std@@@std@@@8 ; std::basic_ostream<char,std::char_traits<char> > `RTTI Type Descriptor'
PUBLIC	??_R3?$basic_ofstream@DU?$char_traits@D@std@@@std@@8 ; std::basic_ofstream<char,std::char_traits<char> >::`RTTI Class Hierarchy Descriptor'
PUBLIC	??_R0?AV?$basic_ofstream@DU?$char_traits@D@std@@@std@@@8 ; std::basic_ofstream<char,std::char_traits<char> > `RTTI Type Descriptor'
PUBLIC	??_R3?$basic_istream@DU?$char_traits@D@std@@@std@@8 ; std::basic_istream<char,std::char_traits<char> >::`RTTI Class Hierarchy Descriptor'
PUBLIC	??_R0?AV?$basic_istream@DU?$char_traits@D@std@@@std@@@8 ; std::basic_istream<char,std::char_traits<char> > `RTTI Type Descriptor'
PUBLIC	??_R3ios_base@std@@8				; std::ios_base::`RTTI Class Hierarchy Descriptor'
PUBLIC	??_R0?AVios_base@std@@@8			; std::ios_base `RTTI Type Descriptor'
PUBLIC	??_R3?$_Iosb@H@std@@8				; std::_Iosb<int>::`RTTI Class Hierarchy Descriptor'
PUBLIC	??_R0?AV?$_Iosb@H@std@@@8			; std::_Iosb<int> `RTTI Type Descriptor'
PUBLIC	??_R3?$basic_ios@DU?$char_traits@D@std@@@std@@8	; std::basic_ios<char,std::char_traits<char> >::`RTTI Class Hierarchy Descriptor'
PUBLIC	??_R0?AV?$basic_ios@DU?$char_traits@D@std@@@std@@@8 ; std::basic_ios<char,std::char_traits<char> > `RTTI Type Descriptor'
PUBLIC	??_R3?$basic_ifstream@DU?$char_traits@D@std@@@std@@8 ; std::basic_ifstream<char,std::char_traits<char> >::`RTTI Class Hierarchy Descriptor'
PUBLIC	??_R0?AV?$basic_ifstream@DU?$char_traits@D@std@@@std@@@8 ; std::basic_ifstream<char,std::char_traits<char> > `RTTI Type Descriptor'
PUBLIC	??_R3?$basic_streambuf@DU?$char_traits@D@std@@@std@@8 ; std::basic_streambuf<char,std::char_traits<char> >::`RTTI Class Hierarchy Descriptor'
PUBLIC	??_R0?AV?$basic_streambuf@DU?$char_traits@D@std@@@std@@@8 ; std::basic_streambuf<char,std::char_traits<char> > `RTTI Type Descriptor'
PUBLIC	??_R3?$basic_filebuf@DU?$char_traits@D@std@@@std@@8 ; std::basic_filebuf<char,std::char_traits<char> >::`RTTI Class Hierarchy Descriptor'
PUBLIC	??_R0?AV?$basic_filebuf@DU?$char_traits@D@std@@@std@@@8 ; std::basic_filebuf<char,std::char_traits<char> > `RTTI Type Descriptor'
PUBLIC	??_R4?$basic_ofstream@DU?$char_traits@D@std@@@std@@6B@ ; std::basic_ofstream<char,std::char_traits<char> >::`RTTI Complete Object Locator'
PUBLIC	??_R4?$basic_ifstream@DU?$char_traits@D@std@@@std@@6B@ ; std::basic_ifstream<char,std::char_traits<char> >::`RTTI Complete Object Locator'
PUBLIC	??_R4?$basic_filebuf@DU?$char_traits@D@std@@@std@@6B@ ; std::basic_filebuf<char,std::char_traits<char> >::`RTTI Complete Object Locator'
PUBLIC	?_Psave@?$_Facetptr@V?$codecvt@DDU_Mbstatet@@@std@@@std@@2PBVfacet@locale@2@B ; std::_Facetptr<std::codecvt<char,char,_Mbstatet> >::_Psave
PUBLIC	??_C@_08EPJLHIJG@bad?5cast@			; `string'
PUBLIC	??_R0?AVbad_cast@std@@@8			; std::bad_cast `RTTI Type Descriptor'
PUBLIC	??_R1A@?0A@EA@bad_cast@std@@8			; std::bad_cast::`RTTI Base Class Descriptor at (0,-1,0,64)'
PUBLIC	??_R2bad_cast@std@@8				; std::bad_cast::`RTTI Base Class Array'
PUBLIC	??_R3bad_cast@std@@8				; std::bad_cast::`RTTI Class Hierarchy Descriptor'
PUBLIC	??_R4bad_cast@std@@6B@				; std::bad_cast::`RTTI Complete Object Locator'
PUBLIC	??_7bad_cast@std@@6B@				; std::bad_cast::`vftable'
PUBLIC	__CT??_R0?AVbad_cast@std@@@8??0bad_cast@std@@QAE@ABV01@@Z12
PUBLIC	__CTA2?AVbad_cast@std@@
PUBLIC	__TI2?AVbad_cast@std@@
PUBLIC	??_C@_0BI@CFPLBAOH@invalid?5string?5position@	; `string'
PUBLIC	??_8?$basic_ifstream@DU?$char_traits@D@std@@@std@@7B@ ; std::basic_ifstream<char,std::char_traits<char> >::`vbtable'
PUBLIC	??_8?$basic_ofstream@DU?$char_traits@D@std@@@std@@7B@ ; std::basic_ofstream<char,std::char_traits<char> >::`vbtable'
PUBLIC	??_7?$basic_ifstream@DU?$char_traits@D@std@@@std@@6B@ ; std::basic_ifstream<char,std::char_traits<char> >::`vftable'
PUBLIC	??_7?$basic_filebuf@DU?$char_traits@D@std@@@std@@6B@ ; std::basic_filebuf<char,std::char_traits<char> >::`vftable'
PUBLIC	??_7?$basic_ofstream@DU?$char_traits@D@std@@@std@@6B@ ; std::basic_ofstream<char,std::char_traits<char> >::`vftable'
EXTRN	__imp_?tellg@?$basic_istream@DU?$char_traits@D@std@@@std@@QAE?AV?$fpos@U_Mbstatet@@@2@XZ:PROC
EXTRN	__imp_?seekg@?$basic_istream@DU?$char_traits@D@std@@@std@@QAEAAV12@_JH@Z:PROC
EXTRN	__imp_?seekg@?$basic_istream@DU?$char_traits@D@std@@@std@@QAEAAV12@V?$fpos@U_Mbstatet@@@2@@Z:PROC
EXTRN	__imp_?gcount@?$basic_istream@DU?$char_traits@D@std@@@std@@QBE_JXZ:PROC
EXTRN	__imp_?_Gndec@?$basic_streambuf@DU?$char_traits@D@std@@@std@@IAEPADXZ:PROC
EXTRN	__imp_?epptr@?$basic_streambuf@DU?$char_traits@D@std@@@std@@IBEPADXZ:PROC
EXTRN	__imp_?egptr@?$basic_streambuf@DU?$char_traits@D@std@@@std@@IBEPADXZ:PROC
EXTRN	__imp_?eback@?$basic_streambuf@DU?$char_traits@D@std@@@std@@IBEPADXZ:PROC
EXTRN	__imp_?out@?$codecvt@DDU_Mbstatet@@@std@@QBEHAAU_Mbstatet@@PBD1AAPBDPAD3AAPAD@Z:PROC
EXTRN	__imp_?in@?$codecvt@DDU_Mbstatet@@@std@@QBEHAAU_Mbstatet@@PBD1AAPBDPAD3AAPAD@Z:PROC
EXTRN	__imp_??0?$basic_istream@DU?$char_traits@D@std@@@std@@QAE@PAV?$basic_streambuf@DU?$char_traits@D@std@@@1@_N@Z:PROC
EXTRN	__imp_??0?$basic_ostream@DU?$char_traits@D@std@@@std@@QAE@PAV?$basic_streambuf@DU?$char_traits@D@std@@@1@_N@Z:PROC
EXTRN	__imp_??0?$basic_ios@DU?$char_traits@D@std@@@std@@IAE@XZ:PROC
EXTRN	__imp_?_Init@?$basic_streambuf@DU?$char_traits@D@std@@@std@@IAEXPAPAD0PAH001@Z:PROC
EXTRN	__imp_?_Init@?$basic_streambuf@DU?$char_traits@D@std@@@std@@IAEXXZ:PROC
EXTRN	__imp_?setg@?$basic_streambuf@DU?$char_traits@D@std@@@std@@IAEXPAD00@Z:PROC
EXTRN	__imp_?unshift@?$codecvt@DDU_Mbstatet@@@std@@QBEHAAU_Mbstatet@@PAD1AAPAD@Z:PROC
EXTRN	__imp_?setp@?$basic_streambuf@DU?$char_traits@D@std@@@std@@IAEXPAD0@Z:PROC
EXTRN	__imp_?getloc@?$basic_streambuf@DU?$char_traits@D@std@@@std@@QBE?AVlocale@2@XZ:PROC
EXTRN	__imp_??0?$basic_streambuf@DU?$char_traits@D@std@@@std@@IAE@XZ:PROC
EXTRN	__imp_?_Getcat@?$codecvt@DDU_Mbstatet@@@std@@SAIPAPBVfacet@locale@2@PBV42@@Z:PROC
EXTRN	?showmanyc@?$basic_streambuf@DU?$char_traits@D@std@@@std@@MAE_JXZ:PROC ; std::basic_streambuf<char,std::char_traits<char> >::showmanyc
EXTRN	__imp_?showmanyc@?$basic_streambuf@DU?$char_traits@D@std@@@std@@MAE_JXZ:PROC
EXTRN	__imp_?id@?$codecvt@DDU_Mbstatet@@@std@@2V0locale@2@A:DWORD
EXTRN	__imp_??Bid@locale@std@@QAEIXZ:PROC
EXTRN	__imp_?_Getgloballocale@locale@std@@CAPAV_Locimp@12@XZ:PROC
EXTRN	__imp_??0_Lockit@std@@QAE@H@Z:PROC
EXTRN	__imp_??1_Lockit@std@@QAE@XZ:PROC
EXTRN	?_Facet_Register@std@@YAXPAV_Facet_base@1@@Z:PROC ; std::_Facet_Register
EXTRN	__imp_?_Fiopen@std@@YAPAU_iobuf@@PBDHH@Z:PROC
EXTRN	__imp_?_Xout_of_range@std@@YAXPBD@Z:PROC
EXTRN	__imp__fclose:PROC
EXTRN	__imp___get_stream_buffer_pointers:PROC
EXTRN	__imp_?always_noconv@codecvt_base@std@@QBE_NXZ:PROC
EXTRN	__imp_?_Xbad_function_call@std@@YAXXZ:PROC
EXTRN	__imp_??1?$basic_istream@DU?$char_traits@D@std@@@std@@UAE@XZ:PROC
EXTRN	__imp_??1?$basic_streambuf@DU?$char_traits@D@std@@@std@@UAE@XZ:PROC
EXTRN	__imp___lock_file:PROC
EXTRN	__imp___unlock_file:PROC
EXTRN	__imp__fputc:PROC
EXTRN	__imp_?_Pninc@?$basic_streambuf@DU?$char_traits@D@std@@@std@@IAEPADXZ:PROC
EXTRN	__imp__ungetc:PROC
EXTRN	__imp__fgetc:PROC
EXTRN	__imp__fread:PROC
EXTRN	__imp_?_Gnavail@?$basic_streambuf@DU?$char_traits@D@std@@@std@@IBE_JXZ:PROC
EXTRN	__imp_?gbump@?$basic_streambuf@DU?$char_traits@D@std@@@std@@IAEXH@Z:PROC
EXTRN	__imp_?_Gninc@?$basic_streambuf@DU?$char_traits@D@std@@@std@@IAEPADXZ:PROC
EXTRN	__imp_?xsgetn@?$basic_streambuf@DU?$char_traits@D@std@@@std@@MAE_JPAD_J@Z:PROC
EXTRN	__imp__fwrite:PROC
EXTRN	__imp_?_Pnavail@?$basic_streambuf@DU?$char_traits@D@std@@@std@@IBE_JXZ:PROC
EXTRN	__imp_?pptr@?$basic_streambuf@DU?$char_traits@D@std@@@std@@IBEPADXZ:PROC
EXTRN	__imp_?pbump@?$basic_streambuf@DU?$char_traits@D@std@@@std@@IAEXH@Z:PROC
EXTRN	__imp_?xsputn@?$basic_streambuf@DU?$char_traits@D@std@@@std@@MAE_JPBD_J@Z:PROC
EXTRN	__imp__fgetpos:PROC
EXTRN	__imp___fseeki64:PROC
EXTRN	__imp_?gptr@?$basic_streambuf@DU?$char_traits@D@std@@@std@@IBEPADXZ:PROC
EXTRN	__imp__fsetpos:PROC
EXTRN	__imp__setvbuf:PROC
EXTRN	__imp__fflush:PROC
EXTRN	__imp_??1?$basic_ostream@DU?$char_traits@D@std@@@std@@UAE@XZ:PROC
EXTRN	__imp_??1?$basic_ios@DU?$char_traits@D@std@@@std@@UAE@XZ:PROC
EXTRN	__imp___splitpath_s:PROC
EXTRN	__imp___memccpy:PROC
EXTRN	__imp__rand:PROC
;	COMDAT ?_Psave@?$_Facetptr@V?$codecvt@DDU_Mbstatet@@@std@@@std@@2PBVfacet@locale@2@B
_BSS	SEGMENT
?_Psave@?$_Facetptr@V?$codecvt@DDU_Mbstatet@@@std@@@std@@2PBVfacet@locale@2@B DD 01H DUP (?) ; std::_Facetptr<std::codecvt<char,char,_Mbstatet> >::_Psave
_BSS	ENDS
;	COMDAT ??_7?$basic_ofstream@DU?$char_traits@D@std@@@std@@6B@
CONST	SEGMENT
??_7?$basic_ofstream@DU?$char_traits@D@std@@@std@@6B@ DD FLAT:??_R4?$basic_ofstream@DU?$char_traits@D@std@@@std@@6B@ ; std::basic_ofstream<char,std::char_traits<char> >::`vftable'
	DD	FLAT:??_E?$basic_ofstream@DU?$char_traits@D@std@@@std@@$4PPPPPPPM@A@AEPAXI@Z
CONST	ENDS
;	COMDAT ??_7?$basic_filebuf@DU?$char_traits@D@std@@@std@@6B@
CONST	SEGMENT
??_7?$basic_filebuf@DU?$char_traits@D@std@@@std@@6B@ DD FLAT:??_R4?$basic_filebuf@DU?$char_traits@D@std@@@std@@6B@ ; std::basic_filebuf<char,std::char_traits<char> >::`vftable'
	DD	FLAT:??_E?$basic_filebuf@DU?$char_traits@D@std@@@std@@UAEPAXI@Z
	DD	FLAT:?_Lock@?$basic_filebuf@DU?$char_traits@D@std@@@std@@UAEXXZ
	DD	FLAT:?_Unlock@?$basic_filebuf@DU?$char_traits@D@std@@@std@@UAEXXZ
	DD	FLAT:?overflow@?$basic_filebuf@DU?$char_traits@D@std@@@std@@MAEHH@Z
	DD	FLAT:?pbackfail@?$basic_filebuf@DU?$char_traits@D@std@@@std@@MAEHH@Z
	DD	FLAT:?showmanyc@?$basic_streambuf@DU?$char_traits@D@std@@@std@@MAE_JXZ
	DD	FLAT:?underflow@?$basic_filebuf@DU?$char_traits@D@std@@@std@@MAEHXZ
	DD	FLAT:?uflow@?$basic_filebuf@DU?$char_traits@D@std@@@std@@MAEHXZ
	DD	FLAT:?xsgetn@?$basic_filebuf@DU?$char_traits@D@std@@@std@@MAE_JPAD_J@Z
	DD	FLAT:?xsputn@?$basic_filebuf@DU?$char_traits@D@std@@@std@@MAE_JPBD_J@Z
	DD	FLAT:?seekoff@?$basic_filebuf@DU?$char_traits@D@std@@@std@@MAE?AV?$fpos@U_Mbstatet@@@2@_JHH@Z
	DD	FLAT:?seekpos@?$basic_filebuf@DU?$char_traits@D@std@@@std@@MAE?AV?$fpos@U_Mbstatet@@@2@V32@H@Z
	DD	FLAT:?setbuf@?$basic_filebuf@DU?$char_traits@D@std@@@std@@MAEPAV?$basic_streambuf@DU?$char_traits@D@std@@@2@PAD_J@Z
	DD	FLAT:?sync@?$basic_filebuf@DU?$char_traits@D@std@@@std@@MAEHXZ
	DD	FLAT:?imbue@?$basic_filebuf@DU?$char_traits@D@std@@@std@@MAEXABVlocale@2@@Z
CONST	ENDS
;	COMDAT ??_7?$basic_ifstream@DU?$char_traits@D@std@@@std@@6B@
CONST	SEGMENT
??_7?$basic_ifstream@DU?$char_traits@D@std@@@std@@6B@ DD FLAT:??_R4?$basic_ifstream@DU?$char_traits@D@std@@@std@@6B@ ; std::basic_ifstream<char,std::char_traits<char> >::`vftable'
	DD	FLAT:??_E?$basic_ifstream@DU?$char_traits@D@std@@@std@@$4PPPPPPPM@A@AEPAXI@Z
CONST	ENDS
;	COMDAT ??_8?$basic_ofstream@DU?$char_traits@D@std@@@std@@7B@
CONST	SEGMENT
??_8?$basic_ofstream@DU?$char_traits@D@std@@@std@@7B@ DD 00H ; std::basic_ofstream<char,std::char_traits<char> >::`vbtable'
	DD	068H
CONST	ENDS
;	COMDAT ??_8?$basic_ifstream@DU?$char_traits@D@std@@@std@@7B@
CONST	SEGMENT
??_8?$basic_ifstream@DU?$char_traits@D@std@@@std@@7B@ DD 00H ; std::basic_ifstream<char,std::char_traits<char> >::`vbtable'
	DD	070H
CONST	ENDS
;	COMDAT ??_C@_0BI@CFPLBAOH@invalid?5string?5position@
CONST	SEGMENT
??_C@_0BI@CFPLBAOH@invalid?5string?5position@ DB 'invalid string position'
	DB	00H						; `string'
CONST	ENDS
;	COMDAT __TI2?AVbad_cast@std@@
xdata$x	SEGMENT
__TI2?AVbad_cast@std@@ DD 00H
	DD	FLAT:??1bad_cast@std@@UAE@XZ
	DD	00H
	DD	FLAT:__CTA2?AVbad_cast@std@@
xdata$x	ENDS
;	COMDAT __CTA2?AVbad_cast@std@@
xdata$x	SEGMENT
__CTA2?AVbad_cast@std@@ DD 02H
	DD	FLAT:__CT??_R0?AVbad_cast@std@@@8??0bad_cast@std@@QAE@ABV01@@Z12
	DD	FLAT:__CT??_R0?AVexception@std@@@8??0exception@std@@QAE@ABV01@@Z12
xdata$x	ENDS
;	COMDAT __CT??_R0?AVbad_cast@std@@@8??0bad_cast@std@@QAE@ABV01@@Z12
xdata$x	SEGMENT
__CT??_R0?AVbad_cast@std@@@8??0bad_cast@std@@QAE@ABV01@@Z12 DD 00H
	DD	FLAT:??_R0?AVbad_cast@std@@@8
	DD	00H
	DD	0ffffffffH
	ORG $+4
	DD	0cH
	DD	FLAT:??0bad_cast@std@@QAE@ABV01@@Z
xdata$x	ENDS
;	COMDAT ??_7bad_cast@std@@6B@
CONST	SEGMENT
??_7bad_cast@std@@6B@ DD FLAT:??_R4bad_cast@std@@6B@	; std::bad_cast::`vftable'
	DD	FLAT:??_Ebad_cast@std@@UAEPAXI@Z
	DD	FLAT:?what@exception@std@@UBEPBDXZ
CONST	ENDS
;	COMDAT ??_R4bad_cast@std@@6B@
rdata$r	SEGMENT
??_R4bad_cast@std@@6B@ DD 00H				; std::bad_cast::`RTTI Complete Object Locator'
	DD	00H
	DD	00H
	DD	FLAT:??_R0?AVbad_cast@std@@@8
	DD	FLAT:??_R3bad_cast@std@@8
rdata$r	ENDS
;	COMDAT ??_R3bad_cast@std@@8
rdata$r	SEGMENT
??_R3bad_cast@std@@8 DD 00H				; std::bad_cast::`RTTI Class Hierarchy Descriptor'
	DD	00H
	DD	02H
	DD	FLAT:??_R2bad_cast@std@@8
rdata$r	ENDS
;	COMDAT ??_R2bad_cast@std@@8
rdata$r	SEGMENT
??_R2bad_cast@std@@8 DD FLAT:??_R1A@?0A@EA@bad_cast@std@@8 ; std::bad_cast::`RTTI Base Class Array'
	DD	FLAT:??_R1A@?0A@EA@exception@std@@8
rdata$r	ENDS
;	COMDAT ??_R1A@?0A@EA@bad_cast@std@@8
rdata$r	SEGMENT
??_R1A@?0A@EA@bad_cast@std@@8 DD FLAT:??_R0?AVbad_cast@std@@@8 ; std::bad_cast::`RTTI Base Class Descriptor at (0,-1,0,64)'
	DD	01H
	DD	00H
	DD	0ffffffffH
	DD	00H
	DD	040H
	DD	FLAT:??_R3bad_cast@std@@8
rdata$r	ENDS
;	COMDAT ??_R0?AVbad_cast@std@@@8
data$r	SEGMENT
??_R0?AVbad_cast@std@@@8 DD FLAT:??_7type_info@@6B@	; std::bad_cast `RTTI Type Descriptor'
	DD	00H
	DB	'.?AVbad_cast@std@@', 00H
data$r	ENDS
;	COMDAT ??_C@_08EPJLHIJG@bad?5cast@
CONST	SEGMENT
??_C@_08EPJLHIJG@bad?5cast@ DB 'bad cast', 00H		; `string'
CONST	ENDS
;	COMDAT ??_R4?$basic_filebuf@DU?$char_traits@D@std@@@std@@6B@
rdata$r	SEGMENT
??_R4?$basic_filebuf@DU?$char_traits@D@std@@@std@@6B@ DD 00H ; std::basic_filebuf<char,std::char_traits<char> >::`RTTI Complete Object Locator'
	DD	00H
	DD	00H
	DD	FLAT:??_R0?AV?$basic_filebuf@DU?$char_traits@D@std@@@std@@@8
	DD	FLAT:??_R3?$basic_filebuf@DU?$char_traits@D@std@@@std@@8
rdata$r	ENDS
;	COMDAT ??_R4?$basic_ifstream@DU?$char_traits@D@std@@@std@@6B@
rdata$r	SEGMENT
??_R4?$basic_ifstream@DU?$char_traits@D@std@@@std@@6B@ DD 00H ; std::basic_ifstream<char,std::char_traits<char> >::`RTTI Complete Object Locator'
	DD	070H
	DD	04H
	DD	FLAT:??_R0?AV?$basic_ifstream@DU?$char_traits@D@std@@@std@@@8
	DD	FLAT:??_R3?$basic_ifstream@DU?$char_traits@D@std@@@std@@8
rdata$r	ENDS
;	COMDAT ??_R4?$basic_ofstream@DU?$char_traits@D@std@@@std@@6B@
rdata$r	SEGMENT
??_R4?$basic_ofstream@DU?$char_traits@D@std@@@std@@6B@ DD 00H ; std::basic_ofstream<char,std::char_traits<char> >::`RTTI Complete Object Locator'
	DD	068H
	DD	04H
	DD	FLAT:??_R0?AV?$basic_ofstream@DU?$char_traits@D@std@@@std@@@8
	DD	FLAT:??_R3?$basic_ofstream@DU?$char_traits@D@std@@@std@@8
rdata$r	ENDS
;	COMDAT ??_R0?AV?$basic_filebuf@DU?$char_traits@D@std@@@std@@@8
data$r	SEGMENT
??_R0?AV?$basic_filebuf@DU?$char_traits@D@std@@@std@@@8 DD FLAT:??_7type_info@@6B@ ; std::basic_filebuf<char,std::char_traits<char> > `RTTI Type Descriptor'
	DD	00H
	DB	'.?AV?$basic_filebuf@DU?$char_traits@D@std@@@std@@', 00H
data$r	ENDS
;	COMDAT ??_R3?$basic_filebuf@DU?$char_traits@D@std@@@std@@8
rdata$r	SEGMENT
??_R3?$basic_filebuf@DU?$char_traits@D@std@@@std@@8 DD 00H ; std::basic_filebuf<char,std::char_traits<char> >::`RTTI Class Hierarchy Descriptor'
	DD	00H
	DD	02H
	DD	FLAT:??_R2?$basic_filebuf@DU?$char_traits@D@std@@@std@@8
rdata$r	ENDS
;	COMDAT ??_R0?AV?$basic_streambuf@DU?$char_traits@D@std@@@std@@@8
data$r	SEGMENT
??_R0?AV?$basic_streambuf@DU?$char_traits@D@std@@@std@@@8 DD FLAT:??_7type_info@@6B@ ; std::basic_streambuf<char,std::char_traits<char> > `RTTI Type Descriptor'
	DD	00H
	DB	'.?AV?$basic_streambuf@DU?$char_traits@D@std@@@std@@', 00H
data$r	ENDS
;	COMDAT ??_R3?$basic_streambuf@DU?$char_traits@D@std@@@std@@8
rdata$r	SEGMENT
??_R3?$basic_streambuf@DU?$char_traits@D@std@@@std@@8 DD 00H ; std::basic_streambuf<char,std::char_traits<char> >::`RTTI Class Hierarchy Descriptor'
	DD	00H
	DD	01H
	DD	FLAT:??_R2?$basic_streambuf@DU?$char_traits@D@std@@@std@@8
rdata$r	ENDS
;	COMDAT ??_R0?AV?$basic_ifstream@DU?$char_traits@D@std@@@std@@@8
data$r	SEGMENT
??_R0?AV?$basic_ifstream@DU?$char_traits@D@std@@@std@@@8 DD FLAT:??_7type_info@@6B@ ; std::basic_ifstream<char,std::char_traits<char> > `RTTI Type Descriptor'
	DD	00H
	DB	'.?AV?$basic_ifstream@DU?$char_traits@D@std@@@std@@', 00H
data$r	ENDS
;	COMDAT ??_R3?$basic_ifstream@DU?$char_traits@D@std@@@std@@8
rdata$r	SEGMENT
??_R3?$basic_ifstream@DU?$char_traits@D@std@@@std@@8 DD 00H ; std::basic_ifstream<char,std::char_traits<char> >::`RTTI Class Hierarchy Descriptor'
	DD	00H
	DD	05H
	DD	FLAT:??_R2?$basic_ifstream@DU?$char_traits@D@std@@@std@@8
rdata$r	ENDS
;	COMDAT ??_R0?AV?$basic_ios@DU?$char_traits@D@std@@@std@@@8
data$r	SEGMENT
??_R0?AV?$basic_ios@DU?$char_traits@D@std@@@std@@@8 DD FLAT:??_7type_info@@6B@ ; std::basic_ios<char,std::char_traits<char> > `RTTI Type Descriptor'
	DD	00H
	DB	'.?AV?$basic_ios@DU?$char_traits@D@std@@@std@@', 00H
data$r	ENDS
;	COMDAT ??_R3?$basic_ios@DU?$char_traits@D@std@@@std@@8
rdata$r	SEGMENT
??_R3?$basic_ios@DU?$char_traits@D@std@@@std@@8 DD 00H	; std::basic_ios<char,std::char_traits<char> >::`RTTI Class Hierarchy Descriptor'
	DD	00H
	DD	03H
	DD	FLAT:??_R2?$basic_ios@DU?$char_traits@D@std@@@std@@8
rdata$r	ENDS
;	COMDAT ??_R0?AV?$_Iosb@H@std@@@8
data$r	SEGMENT
??_R0?AV?$_Iosb@H@std@@@8 DD FLAT:??_7type_info@@6B@	; std::_Iosb<int> `RTTI Type Descriptor'
	DD	00H
	DB	'.?AV?$_Iosb@H@std@@', 00H
data$r	ENDS
;	COMDAT ??_R3?$_Iosb@H@std@@8
rdata$r	SEGMENT
??_R3?$_Iosb@H@std@@8 DD 00H				; std::_Iosb<int>::`RTTI Class Hierarchy Descriptor'
	DD	00H
	DD	01H
	DD	FLAT:??_R2?$_Iosb@H@std@@8
rdata$r	ENDS
;	COMDAT ??_R0?AVios_base@std@@@8
data$r	SEGMENT
??_R0?AVios_base@std@@@8 DD FLAT:??_7type_info@@6B@	; std::ios_base `RTTI Type Descriptor'
	DD	00H
	DB	'.?AVios_base@std@@', 00H
data$r	ENDS
;	COMDAT ??_R3ios_base@std@@8
rdata$r	SEGMENT
??_R3ios_base@std@@8 DD 00H				; std::ios_base::`RTTI Class Hierarchy Descriptor'
	DD	00H
	DD	02H
	DD	FLAT:??_R2ios_base@std@@8
rdata$r	ENDS
;	COMDAT ??_R0?AV?$basic_istream@DU?$char_traits@D@std@@@std@@@8
data$r	SEGMENT
??_R0?AV?$basic_istream@DU?$char_traits@D@std@@@std@@@8 DD FLAT:??_7type_info@@6B@ ; std::basic_istream<char,std::char_traits<char> > `RTTI Type Descriptor'
	DD	00H
	DB	'.?AV?$basic_istream@DU?$char_traits@D@std@@@std@@', 00H
data$r	ENDS
;	COMDAT ??_R3?$basic_istream@DU?$char_traits@D@std@@@std@@8
rdata$r	SEGMENT
??_R3?$basic_istream@DU?$char_traits@D@std@@@std@@8 DD 00H ; std::basic_istream<char,std::char_traits<char> >::`RTTI Class Hierarchy Descriptor'
	DD	00H
	DD	04H
	DD	FLAT:??_R2?$basic_istream@DU?$char_traits@D@std@@@std@@8
rdata$r	ENDS
;	COMDAT ??_R0?AV?$basic_ofstream@DU?$char_traits@D@std@@@std@@@8
data$r	SEGMENT
??_R0?AV?$basic_ofstream@DU?$char_traits@D@std@@@std@@@8 DD FLAT:??_7type_info@@6B@ ; std::basic_ofstream<char,std::char_traits<char> > `RTTI Type Descriptor'
	DD	00H
	DB	'.?AV?$basic_ofstream@DU?$char_traits@D@std@@@std@@', 00H
data$r	ENDS
;	COMDAT ??_R3?$basic_ofstream@DU?$char_traits@D@std@@@std@@8
rdata$r	SEGMENT
??_R3?$basic_ofstream@DU?$char_traits@D@std@@@std@@8 DD 00H ; std::basic_ofstream<char,std::char_traits<char> >::`RTTI Class Hierarchy Descriptor'
	DD	00H
	DD	05H
	DD	FLAT:??_R2?$basic_ofstream@DU?$char_traits@D@std@@@std@@8
rdata$r	ENDS
;	COMDAT ??_R0?AV?$basic_ostream@DU?$char_traits@D@std@@@std@@@8
data$r	SEGMENT
??_R0?AV?$basic_ostream@DU?$char_traits@D@std@@@std@@@8 DD FLAT:??_7type_info@@6B@ ; std::basic_ostream<char,std::char_traits<char> > `RTTI Type Descriptor'
	DD	00H
	DB	'.?AV?$basic_ostream@DU?$char_traits@D@std@@@std@@', 00H
data$r	ENDS
;	COMDAT ??_R3?$basic_ostream@DU?$char_traits@D@std@@@std@@8
rdata$r	SEGMENT
??_R3?$basic_ostream@DU?$char_traits@D@std@@@std@@8 DD 00H ; std::basic_ostream<char,std::char_traits<char> >::`RTTI Class Hierarchy Descriptor'
	DD	00H
	DD	04H
	DD	FLAT:??_R2?$basic_ostream@DU?$char_traits@D@std@@@std@@8
rdata$r	ENDS
;	COMDAT ??_R1A@?0A@EA@?$basic_streambuf@DU?$char_traits@D@std@@@std@@8
rdata$r	SEGMENT
??_R1A@?0A@EA@?$basic_streambuf@DU?$char_traits@D@std@@@std@@8 DD FLAT:??_R0?AV?$basic_streambuf@DU?$char_traits@D@std@@@std@@@8 ; std::basic_streambuf<char,std::char_traits<char> >::`RTTI Base Class Descriptor at (0,-1,0,64)'
	DD	00H
	DD	00H
	DD	0ffffffffH
	DD	00H
	DD	040H
	DD	FLAT:??_R3?$basic_streambuf@DU?$char_traits@D@std@@@std@@8
rdata$r	ENDS
;	COMDAT ??_R1A@?0A@EA@?$basic_filebuf@DU?$char_traits@D@std@@@std@@8
rdata$r	SEGMENT
??_R1A@?0A@EA@?$basic_filebuf@DU?$char_traits@D@std@@@std@@8 DD FLAT:??_R0?AV?$basic_filebuf@DU?$char_traits@D@std@@@std@@@8 ; std::basic_filebuf<char,std::char_traits<char> >::`RTTI Base Class Descriptor at (0,-1,0,64)'
	DD	01H
	DD	00H
	DD	0ffffffffH
	DD	00H
	DD	040H
	DD	FLAT:??_R3?$basic_filebuf@DU?$char_traits@D@std@@@std@@8
rdata$r	ENDS
;	COMDAT ??_R1A@?0A@EA@?$_Iosb@H@std@@8
rdata$r	SEGMENT
??_R1A@?0A@EA@?$_Iosb@H@std@@8 DD FLAT:??_R0?AV?$_Iosb@H@std@@@8 ; std::_Iosb<int>::`RTTI Base Class Descriptor at (0,-1,0,64)'
	DD	00H
	DD	00H
	DD	0ffffffffH
	DD	00H
	DD	040H
	DD	FLAT:??_R3?$_Iosb@H@std@@8
rdata$r	ENDS
;	COMDAT ??_R1A@?0A@EA@ios_base@std@@8
rdata$r	SEGMENT
??_R1A@?0A@EA@ios_base@std@@8 DD FLAT:??_R0?AVios_base@std@@@8 ; std::ios_base::`RTTI Base Class Descriptor at (0,-1,0,64)'
	DD	01H
	DD	00H
	DD	0ffffffffH
	DD	00H
	DD	040H
	DD	FLAT:??_R3ios_base@std@@8
rdata$r	ENDS
;	COMDAT ??_R17?0A@EA@?$_Iosb@H@std@@8
rdata$r	SEGMENT
??_R17?0A@EA@?$_Iosb@H@std@@8 DD FLAT:??_R0?AV?$_Iosb@H@std@@@8 ; std::_Iosb<int>::`RTTI Base Class Descriptor at (8,-1,0,64)'
	DD	00H
	DD	08H
	DD	0ffffffffH
	DD	00H
	DD	040H
	DD	FLAT:??_R3?$_Iosb@H@std@@8
rdata$r	ENDS
;	COMDAT ??_R1A@?0A@EA@?$basic_ios@DU?$char_traits@D@std@@@std@@8
rdata$r	SEGMENT
??_R1A@?0A@EA@?$basic_ios@DU?$char_traits@D@std@@@std@@8 DD FLAT:??_R0?AV?$basic_ios@DU?$char_traits@D@std@@@std@@@8 ; std::basic_ios<char,std::char_traits<char> >::`RTTI Base Class Descriptor at (0,-1,0,64)'
	DD	02H
	DD	00H
	DD	0ffffffffH
	DD	00H
	DD	040H
	DD	FLAT:??_R3?$basic_ios@DU?$char_traits@D@std@@@std@@8
rdata$r	ENDS
;	COMDAT ??_R1A@?0A@EA@?$basic_istream@DU?$char_traits@D@std@@@std@@8
rdata$r	SEGMENT
??_R1A@?0A@EA@?$basic_istream@DU?$char_traits@D@std@@@std@@8 DD FLAT:??_R0?AV?$basic_istream@DU?$char_traits@D@std@@@std@@@8 ; std::basic_istream<char,std::char_traits<char> >::`RTTI Base Class Descriptor at (0,-1,0,64)'
	DD	03H
	DD	00H
	DD	0ffffffffH
	DD	00H
	DD	040H
	DD	FLAT:??_R3?$basic_istream@DU?$char_traits@D@std@@@std@@8
rdata$r	ENDS
;	COMDAT ??_R1A@A@3FA@?$basic_ios@DU?$char_traits@D@std@@@std@@8
rdata$r	SEGMENT
??_R1A@A@3FA@?$basic_ios@DU?$char_traits@D@std@@@std@@8 DD FLAT:??_R0?AV?$basic_ios@DU?$char_traits@D@std@@@std@@@8 ; std::basic_ios<char,std::char_traits<char> >::`RTTI Base Class Descriptor at (0,0,4,80)'
	DD	02H
	DD	00H
	DD	00H
	DD	04H
	DD	050H
	DD	FLAT:??_R3?$basic_ios@DU?$char_traits@D@std@@@std@@8
rdata$r	ENDS
;	COMDAT ??_R1A@A@3EA@ios_base@std@@8
rdata$r	SEGMENT
??_R1A@A@3EA@ios_base@std@@8 DD FLAT:??_R0?AVios_base@std@@@8 ; std::ios_base::`RTTI Base Class Descriptor at (0,0,4,64)'
	DD	01H
	DD	00H
	DD	00H
	DD	04H
	DD	040H
	DD	FLAT:??_R3ios_base@std@@8
rdata$r	ENDS
;	COMDAT ??_R17A@3EA@?$_Iosb@H@std@@8
rdata$r	SEGMENT
??_R17A@3EA@?$_Iosb@H@std@@8 DD FLAT:??_R0?AV?$_Iosb@H@std@@@8 ; std::_Iosb<int>::`RTTI Base Class Descriptor at (8,0,4,64)'
	DD	00H
	DD	08H
	DD	00H
	DD	04H
	DD	040H
	DD	FLAT:??_R3?$_Iosb@H@std@@8
rdata$r	ENDS
;	COMDAT ??_R1A@?0A@EA@?$basic_ifstream@DU?$char_traits@D@std@@@std@@8
rdata$r	SEGMENT
??_R1A@?0A@EA@?$basic_ifstream@DU?$char_traits@D@std@@@std@@8 DD FLAT:??_R0?AV?$basic_ifstream@DU?$char_traits@D@std@@@std@@@8 ; std::basic_ifstream<char,std::char_traits<char> >::`RTTI Base Class Descriptor at (0,-1,0,64)'
	DD	04H
	DD	00H
	DD	0ffffffffH
	DD	00H
	DD	040H
	DD	FLAT:??_R3?$basic_ifstream@DU?$char_traits@D@std@@@std@@8
rdata$r	ENDS
;	COMDAT ??_R1A@?0A@EA@?$basic_ostream@DU?$char_traits@D@std@@@std@@8
rdata$r	SEGMENT
??_R1A@?0A@EA@?$basic_ostream@DU?$char_traits@D@std@@@std@@8 DD FLAT:??_R0?AV?$basic_ostream@DU?$char_traits@D@std@@@std@@@8 ; std::basic_ostream<char,std::char_traits<char> >::`RTTI Base Class Descriptor at (0,-1,0,64)'
	DD	03H
	DD	00H
	DD	0ffffffffH
	DD	00H
	DD	040H
	DD	FLAT:??_R3?$basic_ostream@DU?$char_traits@D@std@@@std@@8
rdata$r	ENDS
;	COMDAT ??_R1A@?0A@EA@?$basic_ofstream@DU?$char_traits@D@std@@@std@@8
rdata$r	SEGMENT
??_R1A@?0A@EA@?$basic_ofstream@DU?$char_traits@D@std@@@std@@8 DD FLAT:??_R0?AV?$basic_ofstream@DU?$char_traits@D@std@@@std@@@8 ; std::basic_ofstream<char,std::char_traits<char> >::`RTTI Base Class Descriptor at (0,-1,0,64)'
	DD	04H
	DD	00H
	DD	0ffffffffH
	DD	00H
	DD	040H
	DD	FLAT:??_R3?$basic_ofstream@DU?$char_traits@D@std@@@std@@8
rdata$r	ENDS
;	COMDAT ??_R2?$basic_streambuf@DU?$char_traits@D@std@@@std@@8
rdata$r	SEGMENT
??_R2?$basic_streambuf@DU?$char_traits@D@std@@@std@@8 DD FLAT:??_R1A@?0A@EA@?$basic_streambuf@DU?$char_traits@D@std@@@std@@8 ; std::basic_streambuf<char,std::char_traits<char> >::`RTTI Base Class Array'
rdata$r	ENDS
;	COMDAT ??_R2?$basic_filebuf@DU?$char_traits@D@std@@@std@@8
rdata$r	SEGMENT
??_R2?$basic_filebuf@DU?$char_traits@D@std@@@std@@8 DD FLAT:??_R1A@?0A@EA@?$basic_filebuf@DU?$char_traits@D@std@@@std@@8 ; std::basic_filebuf<char,std::char_traits<char> >::`RTTI Base Class Array'
	DD	FLAT:??_R1A@?0A@EA@?$basic_streambuf@DU?$char_traits@D@std@@@std@@8
rdata$r	ENDS
;	COMDAT ??_R2?$_Iosb@H@std@@8
rdata$r	SEGMENT
??_R2?$_Iosb@H@std@@8 DD FLAT:??_R1A@?0A@EA@?$_Iosb@H@std@@8 ; std::_Iosb<int>::`RTTI Base Class Array'
rdata$r	ENDS
;	COMDAT ??_R2ios_base@std@@8
rdata$r	SEGMENT
??_R2ios_base@std@@8 DD FLAT:??_R1A@?0A@EA@ios_base@std@@8 ; std::ios_base::`RTTI Base Class Array'
	DD	FLAT:??_R17?0A@EA@?$_Iosb@H@std@@8
rdata$r	ENDS
;	COMDAT ??_R2?$basic_ios@DU?$char_traits@D@std@@@std@@8
rdata$r	SEGMENT
??_R2?$basic_ios@DU?$char_traits@D@std@@@std@@8 DD FLAT:??_R1A@?0A@EA@?$basic_ios@DU?$char_traits@D@std@@@std@@8 ; std::basic_ios<char,std::char_traits<char> >::`RTTI Base Class Array'
	DD	FLAT:??_R1A@?0A@EA@ios_base@std@@8
	DD	FLAT:??_R17?0A@EA@?$_Iosb@H@std@@8
rdata$r	ENDS
;	COMDAT ??_R2?$basic_istream@DU?$char_traits@D@std@@@std@@8
rdata$r	SEGMENT
??_R2?$basic_istream@DU?$char_traits@D@std@@@std@@8 DD FLAT:??_R1A@?0A@EA@?$basic_istream@DU?$char_traits@D@std@@@std@@8 ; std::basic_istream<char,std::char_traits<char> >::`RTTI Base Class Array'
	DD	FLAT:??_R1A@A@3FA@?$basic_ios@DU?$char_traits@D@std@@@std@@8
	DD	FLAT:??_R1A@A@3EA@ios_base@std@@8
	DD	FLAT:??_R17A@3EA@?$_Iosb@H@std@@8
rdata$r	ENDS
;	COMDAT ??_R2?$basic_ifstream@DU?$char_traits@D@std@@@std@@8
rdata$r	SEGMENT
??_R2?$basic_ifstream@DU?$char_traits@D@std@@@std@@8 DD FLAT:??_R1A@?0A@EA@?$basic_ifstream@DU?$char_traits@D@std@@@std@@8 ; std::basic_ifstream<char,std::char_traits<char> >::`RTTI Base Class Array'
	DD	FLAT:??_R1A@?0A@EA@?$basic_istream@DU?$char_traits@D@std@@@std@@8
	DD	FLAT:??_R1A@A@3FA@?$basic_ios@DU?$char_traits@D@std@@@std@@8
	DD	FLAT:??_R1A@A@3EA@ios_base@std@@8
	DD	FLAT:??_R17A@3EA@?$_Iosb@H@std@@8
rdata$r	ENDS
;	COMDAT ??_R2?$basic_ostream@DU?$char_traits@D@std@@@std@@8
rdata$r	SEGMENT
??_R2?$basic_ostream@DU?$char_traits@D@std@@@std@@8 DD FLAT:??_R1A@?0A@EA@?$basic_ostream@DU?$char_traits@D@std@@@std@@8 ; std::basic_ostream<char,std::char_traits<char> >::`RTTI Base Class Array'
	DD	FLAT:??_R1A@A@3FA@?$basic_ios@DU?$char_traits@D@std@@@std@@8
	DD	FLAT:??_R1A@A@3EA@ios_base@std@@8
	DD	FLAT:??_R17A@3EA@?$_Iosb@H@std@@8
rdata$r	ENDS
;	COMDAT ??_R2?$basic_ofstream@DU?$char_traits@D@std@@@std@@8
rdata$r	SEGMENT
??_R2?$basic_ofstream@DU?$char_traits@D@std@@@std@@8 DD FLAT:??_R1A@?0A@EA@?$basic_ofstream@DU?$char_traits@D@std@@@std@@8 ; std::basic_ofstream<char,std::char_traits<char> >::`RTTI Base Class Array'
	DD	FLAT:??_R1A@?0A@EA@?$basic_ostream@DU?$char_traits@D@std@@@std@@8
	DD	FLAT:??_R1A@A@3FA@?$basic_ios@DU?$char_traits@D@std@@@std@@8
	DD	FLAT:??_R1A@A@3EA@ios_base@std@@8
	DD	FLAT:??_R17A@3EA@?$_Iosb@H@std@@8
rdata$r	ENDS
;	COMDAT ??_C@_0BD@CIGKAML@?N?D?$LM?$PO?J?$PN?$LO?$NN?$LN?b?C?$NM?M?j?$LD?I?$KB?$KD@
CONST	SEGMENT
??_C@_0BD@CIGKAML@?N?D?$LM?$PO?J?$PN?$LO?$NN?$LN?b?C?$NM?M?j?$LD?I?$KB?$KD@ DB 0ceH
	DB	0c4H, 0bcH, 0feH, 0caH, 0fdH, 0beH, 0ddH, 0bdH, 0e2H, 0c3H, 0dcH
	DB	0cdH, 0eaH, 0b3H, 0c9H, 0a1H, 0a3H, 00H	; `string'
CONST	ENDS
;	COMDAT ??_C@_0BC@HCLOMCPL@?$LN?b?N?v?T?$KN?J?$LM?N?D?$LM?$PO?C?$PL?4?4?4@
CONST	SEGMENT
??_C@_0BC@HCLOMCPL@?$LN?b?N?v?T?$KN?J?$LM?N?D?$LM?$PO?C?$PL?4?4?4@ DB 0bdH
	DB	0e2H, 0ceH, 0f6H, 0d4H, 0adH, 0caH, 0bcH, 0ceH, 0c4H, 0bcH, 0feH
	DB	0c3H, 0fbH, '...', 00H			; `string'
CONST	ENDS
;	COMDAT ??_C@_0M@CJLCHMHN@?Q?i?V?$KE?I?h?$LB?$LI?4?4?4@
CONST	SEGMENT
??_C@_0M@CJLCHMHN@?Q?i?V?$KE?I?h?$LB?$LI?4?4?4@ DB 0d1H, 0e9H, 0d6H, 0a4H
	DB	0c9H, 0e8H, 0b1H, 0b8H, '...', 00H		; `string'
CONST	ENDS
;	COMDAT ??_C@_0BE@JFONAGKE@?Q?i?V?$KE?C?$NM?B?k?U?$KK?R?$KK?P?E?O?$KC?4?4?4@
CONST	SEGMENT
??_C@_0BE@JFONAGKE@?Q?i?V?$KE?C?$NM?B?k?U?$KK?R?$KK?P?E?O?$KC?4?4?4@ DB 0d1H
	DB	0e9H, 0d6H, 0a4H, 0c3H, 0dcH, 0c2H, 0ebH, 0d5H, 0aaH, 0d2H, 0aaH
	DB	0d0H, 0c5H, 0cfH, 0a2H, '...', 00H		; `string'
CONST	ENDS
;	COMDAT ??_C@_0O@HDFBCNEM@?$LN?b?C?$NM?W?$LM?$LB?$LI?V?P?4?4?4@
CONST	SEGMENT
??_C@_0O@HDFBCNEM@?$LN?b?C?$NM?W?$LM?$LB?$LI?V?P?4?4?4@ DB 0bdH, 0e2H, 0c3H
	DB	0dcH, 0d7H, 0bcH, 0b1H, 0b8H, 0d6H, 0d0H, '...', 00H ; `string'
CONST	ENDS
;	COMDAT ??_C@_0BD@EEDJJGAN@?N?D?$LM?$PO?J?$PN?$LO?$NN?$LM?S?C?$NM?M?j?$LD?I?$KB?$KD@
CONST	SEGMENT
??_C@_0BD@EEDJJGAN@?N?D?$LM?$PO?J?$PN?$LO?$NN?$LM?S?C?$NM?M?j?$LD?I?$KB?$KD@ DB 0ceH
	DB	0c4H, 0bcH, 0feH, 0caH, 0fdH, 0beH, 0ddH, 0bcH, 0d3H, 0c3H, 0dcH
	DB	0cdH, 0eaH, 0b3H, 0c9H, 0a1H, 0a3H, 00H	; `string'
CONST	ENDS
;	COMDAT ??_C@_0BO@MHNEFFKB@?U?$PN?T?Z?$LE?$KG?$MA?m?J?$PN?$LO?$NN?$LP?i?$KD?$KM?G?k?D?M?P?D?$LF?H?$LE?$PN?4?4?4@
CONST	SEGMENT
??_C@_0BO@MHNEFFKB@?U?$PN?T?Z?$LE?$KG?$MA?m?J?$PN?$LO?$NN?$LP?i?$KD?$KM?G?k?D?M?P?D?$LF?H?$LE?$PN?4?4?4@ DB 0d5H
	DB	0fdH, 0d4H, 0daH, 0b4H, 0a6H, 0c0H, 0edH, 0caH, 0fdH, 0beH, 0ddH
	DB	0bfH, 0e9H, 0a3H, 0acH, 0c7H, 0ebH, 0c4H, 0cdH, 0d0H, 0c4H, 0b5H
	DB	0c8H, 0b4H, 0fdH, '...', 00H			; `string'
CONST	ENDS
;	COMDAT ??_C@_0BI@EODDGCKG@?R?Q?P?$LE?H?k?J?p?C?$PL?S?r?$LK?M?N?D?$LM?$PO?M?$LH?4?4?4@
CONST	SEGMENT
??_C@_0BI@EODDGCKG@?R?Q?P?$LE?H?k?J?p?C?$PL?S?r?$LK?M?N?D?$LM?$PO?M?$LH?4?4?4@ DB 0d2H
	DB	0d1H, 0d0H, 0b4H, 0c8H, 0ebH, 0caH, 0f0H, 0c3H, 0fbH, 0d3H, 0f2H
	DB	0baH, 0cdH, 0ceH, 0c4H, 0bcH, 0feH, 0cdH, 0b7H, '...', 00H ; `string'
CONST	ENDS
;	COMDAT ??_C@_0BE@JDHBDFPA@?U?$PN?T?Z?$LE?$KG?$MA?m?N?D?$LM?$PO?D?Z?H?$NN?4?4?4@
CONST	SEGMENT
??_C@_0BE@JDHBDFPA@?U?$PN?T?Z?$LE?$KG?$MA?m?N?D?$LM?$PO?D?Z?H?$NN?4?4?4@ DB 0d5H
	DB	0fdH, 0d4H, 0daH, 0b4H, 0a6H, 0c0H, 0edH, 0ceH, 0c4H, 0bcH, 0feH
	DB	0c4H, 0daH, 0c8H, 0ddH, '...', 00H		; `string'
CONST	ENDS
;	COMDAT ??_C@_04HDOCAJNK@?$CFs?$CFs@
CONST	SEGMENT
??_C@_04HDOCAJNK@?$CFs?$CFs@ DB '%s%s', 00H		; `string'
CONST	ENDS
;	COMDAT ??_C@_0BC@BOOHFHDH@?$LE?$KG?$MA?m?T?$KN?J?$LM?N?D?$LM?$PO?C?$PL?4?4?4@
CONST	SEGMENT
??_C@_0BC@BOOHFHDH@?$LE?$KG?$MA?m?T?$KN?J?$LM?N?D?$LM?$PO?C?$PL?4?4?4@ DB 0b4H
	DB	0a6H, 0c0H, 0edH, 0d4H, 0adH, 0caH, 0bcH, 0ceH, 0c4H, 0bcH, 0feH
	DB	0c3H, 0fbH, '...', 00H			; `string'
CONST	ENDS
;	COMDAT ??_C@_0M@OBMPDHDB@?$LA?s?$LG?$KI?I?h?$LB?$LI?4?4?4@
CONST	SEGMENT
??_C@_0M@OBMPDHDB@?$LA?s?$LG?$KI?I?h?$LB?$LI?4?4?4@ DB 0b0H, 0f3H, 0b6H, 0a8H
	DB	0c9H, 0e8H, 0b1H, 0b8H, '...', 00H		; `string'
CONST	ENDS
;	COMDAT ??_C@_0BE@DKIOJLDL@?I?z?$LD?I?C?$NM?B?k?U?$KK?R?$KK?P?E?O?$KC?4?4?4@
CONST	SEGMENT
??_C@_0BE@DKIOJLDL@?I?z?$LD?I?C?$NM?B?k?U?$KK?R?$KK?P?E?O?$KC?4?4?4@ DB 0c9H
	DB	0faH, 0b3H, 0c9H, 0c3H, 0dcH, 0c2H, 0ebH, 0d5H, 0aaH, 0d2H, 0aaH
	DB	0d0H, 0c5H, 0cfH, 0a2H, '...', 00H		; `string'
CONST	ENDS
;	COMDAT ??_C@_0O@DELBPIJA@?$LM?S?C?$NM?W?$LM?$LB?$LI?V?P?4?4?4@
CONST	SEGMENT
??_C@_0O@DELBPIJA@?$LM?S?C?$NM?W?$LM?$LB?$LI?V?P?4?4?4@ DB 0bcH, 0d3H, 0c3H
	DB	0dcH, 0d7H, 0bcH, 0b1H, 0b8H, 0d6H, 0d0H, '...', 00H ; `string'
PUBLIC	??0?$fpos@U_Mbstatet@@@std@@QAE@_J@Z		; std::fpos<_Mbstatet>::fpos<_Mbstatet>
PUBLIC	??0?$basic_string@DU?$char_traits@D@std@@V?$allocator@D@2@@std@@QAE@ABV01@@Z ; std::basic_string<char,std::char_traits<char>,std::allocator<char> >::basic_string<char,std::char_traits<char>,std::allocator<char> >
PUBLIC	?_Construct_lv_contents@?$basic_string@DU?$char_traits@D@std@@V?$allocator@D@2@@std@@AAEXABV12@@Z ; std::basic_string<char,std::char_traits<char>,std::allocator<char> >::_Construct_lv_contents
PUBLIC	?select_on_container_copy_construction@?$_Default_allocator_traits@V?$allocator@D@std@@@std@@SA?AV?$allocator@D@2@ABV32@@Z ; std::_Default_allocator_traits<std::allocator<char> >::select_on_container_copy_construction
PUBLIC	??$?0V?$allocator@D@std@@$$V@?$_Compressed_pair@V?$allocator@D@std@@V?$_String_val@U?$_Simple_types@D@std@@@2@$00@std@@QAE@U_One_then_variadic_args_t@1@$$QAV?$allocator@D@1@@Z ; std::_Compressed_pair<std::allocator<char>,std::_String_val<std::_Simple_types<char> >,1>::_Compressed_pair<std::allocator<char>,std::_String_val<std::_Simple_types<char> >,1><std::allocator<char> >
PUBLIC	??$forward@V?$allocator@D@std@@@std@@YA$$QAV?$allocator@D@0@AAV10@@Z ; std::forward<std::allocator<char> >
PUBLIC	?empty@?$basic_string@DU?$char_traits@D@std@@V?$allocator@D@2@@std@@QBE_NXZ ; std::basic_string<char,std::char_traits<char>,std::allocator<char> >::empty
PUBLIC	?makeDWORD@thatboy@@YAIEEEE@Z			; thatboy::makeDWORD
PUBLIC	?makeWORD@thatboy@@YAGEE@Z			; thatboy::makeWORD
PUBLIC	?makeDWORD@thatboy@@YAIGG@Z			; thatboy::makeDWORD
PUBLIC	??0?$basic_string@DU?$char_traits@D@std@@V?$allocator@D@2@@std@@QAE@XZ ; std::basic_string<char,std::char_traits<char>,std::allocator<char> >::basic_string<char,std::char_traits<char>,std::allocator<char> >
PUBLIC	??4?$basic_string@DU?$char_traits@D@std@@V?$allocator@D@2@@std@@QAEAAV01@QBD@Z ; std::basic_string<char,std::char_traits<char>,std::allocator<char> >::operator=
PUBLIC	??A?$basic_string@DU?$char_traits@D@std@@V?$allocator@D@2@@std@@QAEAADI@Z ; std::basic_string<char,std::char_traits<char>,std::allocator<char> >::operator[]
PUBLIC	?to_int_type@?$_Narrow_char_traits@DH@std@@SAHABD@Z ; std::_Narrow_char_traits<char,int>::to_int_type
PUBLIC	?to_char_type@?$_Narrow_char_traits@DH@std@@SADABH@Z ; std::_Narrow_char_traits<char,int>::to_char_type
PUBLIC	??$_Fgetc@D@std@@YA_NAADPAU_iobuf@@@Z		; std::_Fgetc<char>
PUBLIC	?push_back@?$basic_string@DU?$char_traits@D@std@@V?$allocator@D@2@@std@@QAEXD@Z ; std::basic_string<char,std::char_traits<char>,std::allocator<char> >::push_back
PUBLIC	??$_Reallocate_grow_by@V<lambda_15711c68e099a15a58f4d77303cb286d>@@D@?$basic_string@DU?$char_traits@D@std@@V?$allocator@D@2@@std@@AAEAAV01@IV<lambda_15711c68e099a15a58f4d77303cb286d>@@D@Z ; std::basic_string<char,std::char_traits<char>,std::allocator<char> >::_Reallocate_grow_by<<lambda_15711c68e099a15a58f4d77303cb286d>,char>
PUBLIC	??R<lambda_15711c68e099a15a58f4d77303cb286d>@@QBEXQADQBDID@Z ; <lambda_15711c68e099a15a58f4d77303cb286d>::operator()
PUBLIC	??$_Ungetc@D@std@@YA_NABDPAU_iobuf@@@Z		; std::_Ungetc<char>
PUBLIC	??$_Fputc@D@std@@YA_NDPAU_iobuf@@@Z		; std::_Fputc<char>
PUBLIC	??1locale@std@@QAE@XZ				; std::locale::~locale
PUBLIC	??$addressof@V?$_String_val@U?$_Simple_types@D@std@@@std@@@std@@YAPAV?$_String_val@U?$_Simple_types@D@std@@@0@AAV10@@Z ; std::addressof<std::_String_val<std::_Simple_types<char> > >
PUBLIC	?_Adopt@_Iterator_base0@std@@QAEXPBX@Z		; std::_Iterator_base0::_Adopt
PUBLIC	?_Check_offset@?$_String_val@U?$_Simple_types@D@std@@@std@@QBEXI@Z ; std::_String_val<std::_Simple_types<char> >::_Check_offset
PUBLIC	?_Xran@?$_String_val@U?$_Simple_types@D@std@@@std@@SAXXZ ; std::_String_val<std::_Simple_types<char> >::_Xran
PUBLIC	?release@?$unique_ptr@V_Facet_base@std@@U?$default_delete@V_Facet_base@std@@@2@@std@@QAEPAV_Facet_base@2@XZ ; std::unique_ptr<std::_Facet_base,std::default_delete<std::_Facet_base> >::release
PUBLIC	??$exchange@PAV_Facet_base@std@@PAV12@@std@@YAPAV_Facet_base@0@AAPAV10@$$QAPAV10@@Z ; std::exchange<std::_Facet_base *,std::_Facet_base *>
PUBLIC	??1?$unique_ptr@V_Facet_base@std@@U?$default_delete@V_Facet_base@std@@@2@@std@@QAE@XZ ; std::unique_ptr<std::_Facet_base,std::default_delete<std::_Facet_base> >::~unique_ptr<std::_Facet_base,std::default_delete<std::_Facet_base> >
PUBLIC	?_Get_first@?$_Compressed_pair@U?$default_delete@V_Facet_base@std@@@std@@PAV_Facet_base@2@$00@std@@QAEAAU?$default_delete@V_Facet_base@std@@@2@XZ ; std::_Compressed_pair<std::default_delete<std::_Facet_base>,std::_Facet_base *,1>::_Get_first
PUBLIC	??R?$default_delete@V_Facet_base@std@@@std@@QBEXPAV_Facet_base@1@@Z ; std::default_delete<std::_Facet_base>::operator()
PUBLIC	??$?0U?$default_delete@V_Facet_base@std@@@std@@$0A@@?$unique_ptr@V_Facet_base@std@@U?$default_delete@V_Facet_base@std@@@2@@std@@QAE@PAV_Facet_base@1@@Z ; std::unique_ptr<std::_Facet_base,std::default_delete<std::_Facet_base> >::unique_ptr<std::_Facet_base,std::default_delete<std::_Facet_base> ><std::default_delete<std::_Facet_base>,0>
PUBLIC	??$?0AAPAV_Facet_base@std@@@?$_Compressed_pair@U?$default_delete@V_Facet_base@std@@@std@@PAV_Facet_base@2@$00@std@@QAE@U_Zero_then_variadic_args_t@1@AAPAV_Facet_base@1@@Z ; std::_Compressed_pair<std::default_delete<std::_Facet_base>,std::_Facet_base *,1>::_Compressed_pair<std::default_delete<std::_Facet_base>,std::_Facet_base *,1><std::_Facet_base * &>
PUBLIC	??$forward@AAPAV_Facet_base@std@@@std@@YAAAPAV_Facet_base@0@AAPAV10@@Z ; std::forward<std::_Facet_base * &>
PUBLIC	?_Throw_bad_cast@std@@YAXXZ			; std::_Throw_bad_cast
PUBLIC	??0bad_cast@std@@QAE@ABV01@@Z			; std::bad_cast::bad_cast
PUBLIC	??_Gbad_cast@std@@UAEPAXI@Z			; std::bad_cast::`scalar deleting destructor'
PUBLIC	??1bad_cast@std@@UAE@XZ				; std::bad_cast::~bad_cast
PUBLIC	??0bad_cast@std@@QAE@XZ				; std::bad_cast::bad_cast
PUBLIC	?_Getfacet@locale@std@@QBEPBVfacet@12@I@Z	; std::locale::_Getfacet
PUBLIC	??$?0ABV?$allocator@D@std@@$$V@?$_Compressed_pair@V?$allocator@D@std@@V?$_String_val@U?$_Simple_types@D@std@@@2@$00@std@@QAE@U_One_then_variadic_args_t@1@ABV?$allocator@D@1@@Z ; std::_Compressed_pair<std::allocator<char>,std::_String_val<std::_Simple_types<char> >,1>::_Compressed_pair<std::allocator<char>,std::_String_val<std::_Simple_types<char> >,1><std::allocator<char> const &>
PUBLIC	??$forward@ABV?$allocator@D@std@@@std@@YAABV?$allocator@D@0@ABV10@@Z ; std::forward<std::allocator<char> const &>
PUBLIC	??_E?$basic_ofstream@DU?$char_traits@D@std@@@std@@$4PPPPPPPM@A@AEPAXI@Z ; std::basic_ofstream<char,std::char_traits<char> >::`vector deleting destructor'
PUBLIC	??_E?$basic_ifstream@DU?$char_traits@D@std@@@std@@$4PPPPPPPM@A@AEPAXI@Z ; std::basic_ifstream<char,std::char_traits<char> >::`vector deleting destructor'
PUBLIC	??1?$_Tidy_deallocate_guard@V?$basic_string@DU?$char_traits@D@std@@V?$allocator@D@2@@std@@@std@@QAE@XZ ; std::_Tidy_deallocate_guard<std::basic_string<char,std::char_traits<char>,std::allocator<char> > >::~_Tidy_deallocate_guard<std::basic_string<char,std::char_traits<char>,std::allocator<char> > >
PUBLIC	??$distance@PAE@std@@YAHPAE0@Z			; std::distance<unsigned char *>
PUBLIC	??$_Refancy@PAE$0A@@std@@YAPAEPAE@Z		; std::_Refancy<unsigned char *,0>
PUBLIC	??$_Copy_memmove@PADPAE@std@@YAPAEPAD0PAE@Z	; std::_Copy_memmove<char *,unsigned char *>
PUBLIC	??$distance@PAD@std@@YAHPAD0@Z			; std::distance<char *>
PUBLIC	??$_Construct@PAE@?$basic_string@DU?$char_traits@D@std@@V?$allocator@D@2@@std@@QAEXPAEQAEUinput_iterator_tag@1@@Z ; std::basic_string<char,std::char_traits<char>,std::allocator<char> >::_Construct<unsigned char *>
PUBLIC	?_Clear_and_reserve_geometric@?$vector@EV?$allocator@E@std@@@std@@AAEXI@Z ; std::vector<unsigned char,std::allocator<unsigned char> >::_Clear_and_reserve_geometric
PUBLIC	??$_Unfancy@$$CBD@std@@YAPBDPBD@Z		; std::_Unfancy<char const >
PUBLIC	??$forward@ABV?$allocator@E@std@@@std@@YAABV?$allocator@E@0@ABV10@@Z ; std::forward<std::allocator<unsigned char> const &>
PUBLIC	??$_Construct@PAE@?$basic_string@DU?$char_traits@D@std@@V?$allocator@D@2@@std@@QAEXQAE0Uforward_iterator_tag@1@@Z ; std::basic_string<char,std::char_traits<char>,std::allocator<char> >::_Construct<unsigned char *>
PUBLIC	??$_Adl_verify_range@V?$_Vector_iterator@V?$_Vector_val@U?$_Simple_types@E@std@@@std@@@std@@V12@@std@@YAXABV?$_Vector_iterator@V?$_Vector_val@U?$_Simple_types@E@std@@@std@@@0@0@Z ; std::_Adl_verify_range<std::_Vector_iterator<std::_Vector_val<std::_Simple_types<unsigned char> > >,std::_Vector_iterator<std::_Vector_val<std::_Simple_types<unsigned char> > > >
PUBLIC	??$_Assign_range@PAD@?$vector@EV?$allocator@E@std@@@std@@AAEXPAD0Uforward_iterator_tag@1@@Z ; std::vector<unsigned char,std::allocator<unsigned char> >::_Assign_range<char *>
PUBLIC	??$_Adl_verify_range@V?$_String_iterator@V?$_String_val@U?$_Simple_types@D@std@@@std@@@std@@V12@@std@@YAXABV?$_String_iterator@V?$_String_val@U?$_Simple_types@D@std@@@std@@@0@0@Z ; std::_Adl_verify_range<std::_String_iterator<std::_String_val<std::_Simple_types<char> > >,std::_String_iterator<std::_String_val<std::_Simple_types<char> > > >
PUBLIC	?_Buy_nonzero@?$vector@EV?$allocator@E@std@@@std@@AAEXI@Z ; std::vector<unsigned char,std::allocator<unsigned char> >::_Buy_nonzero
PUBLIC	?_Unwrapped@?$_String_iterator@V?$_String_val@U?$_Simple_types@D@std@@@std@@@std@@QBEPADXZ ; std::_String_iterator<std::_String_val<std::_Simple_types<char> > >::_Unwrapped
PUBLIC	?_Unwrapped@?$_Vector_iterator@V?$_Vector_val@U?$_Simple_types@E@std@@@std@@@std@@QBEPAEXZ ; std::_Vector_iterator<std::_Vector_val<std::_Simple_types<unsigned char> > >::_Unwrapped
PUBLIC	??$addressof@$$CBV?$codecvt@DDU_Mbstatet@@@std@@@std@@YAPBV?$codecvt@DDU_Mbstatet@@@0@ABV10@@Z ; std::addressof<std::codecvt<char,char,_Mbstatet> const >
PUBLIC	??$addressof@V?$basic_filebuf@DU?$char_traits@D@std@@@std@@@std@@YAPAV?$basic_filebuf@DU?$char_traits@D@std@@@0@AAV10@@Z ; std::addressof<std::basic_filebuf<char,std::char_traits<char> > >
PUBLIC	??$_Refancy@PAD$0A@@std@@YAPADPAD@Z		; std::_Refancy<char *,0>
PUBLIC	??$_Construct_n_copies_of_ty@U_Value_init_tag@std@@@?$vector@EV?$allocator@E@std@@@std@@AAEXIABU_Value_init_tag@1@@Z ; std::vector<unsigned char,std::allocator<unsigned char> >::_Construct_n_copies_of_ty<std::_Value_init_tag>
PUBLIC	??$?0ABV?$allocator@E@std@@$$V@?$_Compressed_pair@V?$allocator@E@std@@V?$_Vector_val@U?$_Simple_types@E@std@@@2@$00@std@@QAE@U_One_then_variadic_args_t@1@ABV?$allocator@E@1@@Z ; std::_Compressed_pair<std::allocator<unsigned char>,std::_Vector_val<std::_Simple_types<unsigned char> >,1>::_Compressed_pair<std::allocator<unsigned char>,std::_Vector_val<std::_Simple_types<unsigned char> >,1><std::allocator<unsigned char> const &>
PUBLIC	??$addressof@V?$_Vector_val@U?$_Simple_types@E@std@@@std@@@std@@YAPAV?$_Vector_val@U?$_Simple_types@E@std@@@0@AAV10@@Z ; std::addressof<std::_Vector_val<std::_Simple_types<unsigned char> > >
PUBLIC	??$forward@H@std@@YA$$QAHAAH@Z			; std::forward<int>
PUBLIC	??$forward@V?$basic_string@DU?$char_traits@D@std@@V?$allocator@D@2@@std@@@std@@YA$$QAV?$basic_string@DU?$char_traits@D@std@@V?$allocator@D@2@@0@AAV10@@Z ; std::forward<std::basic_string<char,std::char_traits<char>,std::allocator<char> > >
PUBLIC	??$use_facet@V?$codecvt@DDU_Mbstatet@@@std@@@std@@YAABV?$codecvt@DDU_Mbstatet@@@0@ABVlocale@0@@Z ; std::use_facet<std::codecvt<char,char,_Mbstatet> >
PUBLIC	??$_Get_unwrapped@V?$_Vector_iterator@V?$_Vector_val@U?$_Simple_types@E@std@@@std@@@std@@$0A@@std@@YAPAEABV?$_Vector_iterator@V?$_Vector_val@U?$_Simple_types@E@std@@@std@@@0@@Z ; std::_Get_unwrapped<std::_Vector_iterator<std::_Vector_val<std::_Simple_types<unsigned char> > >,0>
PUBLIC	??$?0V?$_Vector_iterator@V?$_Vector_val@U?$_Simple_types@E@std@@@std@@@std@@X@?$basic_string@DU?$char_traits@D@std@@V?$allocator@D@2@@std@@QAE@V?$_Vector_iterator@V?$_Vector_val@U?$_Simple_types@E@std@@@std@@@1@0ABV?$allocator@D@1@@Z ; std::basic_string<char,std::char_traits<char>,std::allocator<char> >::basic_string<char,std::char_traits<char>,std::allocator<char> ><std::_Vector_iterator<std::_Vector_val<std::_Simple_types<unsigned char> > >,void>
PUBLIC	??$_Get_unwrapped@V?$_String_iterator@V?$_String_val@U?$_Simple_types@D@std@@@std@@@std@@$0A@@std@@YAPADABV?$_String_iterator@V?$_String_val@U?$_Simple_types@D@std@@@std@@@0@@Z ; std::_Get_unwrapped<std::_String_iterator<std::_String_val<std::_Simple_types<char> > >,0>
PUBLIC	??$assign@V?$_String_iterator@V?$_String_val@U?$_Simple_types@D@std@@@std@@@std@@X@?$vector@EV?$allocator@E@std@@@std@@QAEXV?$_String_iterator@V?$_String_val@U?$_Simple_types@D@std@@@std@@@1@0@Z ; std::vector<unsigned char,std::allocator<unsigned char> >::assign<std::_String_iterator<std::_String_val<std::_Simple_types<char> > >,void>
PUBLIC	?_Clamp_suffix_size@?$_String_val@U?$_Simple_types@D@std@@@std@@QBEIII@Z ; std::_String_val<std::_Simple_types<char> >::_Clamp_suffix_size
PUBLIC	?_Local@?$_Func_class@_NHH@std@@ABE_NXZ		; std::_Func_class<bool,int,int>::_Local
PUBLIC	?_Set@?$_Func_class@_NHH@std@@AAEXPAV?$_Func_base@_NHH@2@@Z ; std::_Func_class<bool,int,int>::_Set
PUBLIC	?_Local@?$_Func_class@_NH@std@@ABE_NXZ		; std::_Func_class<bool,int>::_Local
PUBLIC	?_Set@?$_Func_class@_NH@std@@AAEXPAV?$_Func_base@_NH@2@@Z ; std::_Func_class<bool,int>::_Set
PUBLIC	?_Local@?$_Func_class@_NV?$basic_string@DU?$char_traits@D@std@@V?$allocator@D@2@@std@@@std@@ABE_NXZ ; std::_Func_class<bool,std::basic_string<char,std::char_traits<char>,std::allocator<char> > >::_Local
PUBLIC	?_Set@?$_Func_class@_NV?$basic_string@DU?$char_traits@D@std@@V?$allocator@D@2@@std@@@std@@AAEXPAV?$_Func_base@_NV?$basic_string@DU?$char_traits@D@std@@V?$allocator@D@2@@std@@@2@@Z ; std::_Func_class<bool,std::basic_string<char,std::char_traits<char>,std::allocator<char> > >::_Set
PUBLIC	??0?$basic_filebuf@DU?$char_traits@D@std@@@std@@QAE@XZ ; std::basic_filebuf<char,std::char_traits<char> >::basic_filebuf<char,std::char_traits<char> >
PUBLIC	?open@?$basic_filebuf@DU?$char_traits@D@std@@@std@@QAEPAV12@PBDHH@Z ; std::basic_filebuf<char,std::char_traits<char> >::open
PUBLIC	?not_eof@?$_Narrow_char_traits@DH@std@@SAHABH@Z	; std::_Narrow_char_traits<char,int>::not_eof
PUBLIC	?erase@?$basic_string@DU?$char_traits@D@std@@V?$allocator@D@2@@std@@QAEAAV12@II@Z ; std::basic_string<char,std::char_traits<char>,std::allocator<char> >::erase
PUBLIC	?front@?$basic_string@DU?$char_traits@D@std@@V?$allocator@D@2@@std@@QAEAADXZ ; std::basic_string<char,std::char_traits<char>,std::allocator<char> >::front
PUBLIC	??0?$fpos@U_Mbstatet@@@std@@QAE@U_Mbstatet@@_J@Z ; std::fpos<_Mbstatet>::fpos<_Mbstatet>
PUBLIC	?state@?$fpos@U_Mbstatet@@@std@@QBE?AU_Mbstatet@@XZ ; std::fpos<_Mbstatet>::state
PUBLIC	??0?$_String_const_iterator@V?$_String_val@U?$_Simple_types@D@std@@@std@@@std@@QAE@PBDPBU_Container_base0@1@@Z ; std::_String_const_iterator<std::_String_val<std::_Simple_types<char> > >::_String_const_iterator<std::_String_val<std::_Simple_types<char> > >
PUBLIC	??0?$_Func_class@_NHH@std@@QAE@XZ		; std::_Func_class<bool,int,int>::_Func_class<bool,int,int>
PUBLIC	?_Empty@?$_Func_class@_NHH@std@@IBE_NXZ		; std::_Func_class<bool,int,int>::_Empty
PUBLIC	?_Tidy@?$_Func_class@_NHH@std@@IAEXXZ		; std::_Func_class<bool,int,int>::_Tidy
PUBLIC	?_Getimpl@?$_Func_class@_NHH@std@@ABEPAV?$_Func_base@_NHH@2@XZ ; std::_Func_class<bool,int,int>::_Getimpl
PUBLIC	??0?$_Func_class@_NH@std@@QAE@XZ		; std::_Func_class<bool,int>::_Func_class<bool,int>
PUBLIC	?_Empty@?$_Func_class@_NH@std@@IBE_NXZ		; std::_Func_class<bool,int>::_Empty
PUBLIC	?_Tidy@?$_Func_class@_NH@std@@IAEXXZ		; std::_Func_class<bool,int>::_Tidy
PUBLIC	?_Getimpl@?$_Func_class@_NH@std@@ABEPAV?$_Func_base@_NH@2@XZ ; std::_Func_class<bool,int>::_Getimpl
PUBLIC	??0?$_Func_class@_NV?$basic_string@DU?$char_traits@D@std@@V?$allocator@D@2@@std@@@std@@QAE@XZ ; std::_Func_class<bool,std::basic_string<char,std::char_traits<char>,std::allocator<char> > >::_Func_class<bool,std::basic_string<char,std::char_traits<char>,std::allocator<char> > >
PUBLIC	?_Empty@?$_Func_class@_NV?$basic_string@DU?$char_traits@D@std@@V?$allocator@D@2@@std@@@std@@IBE_NXZ ; std::_Func_class<bool,std::basic_string<char,std::char_traits<char>,std::allocator<char> > >::_Empty
PUBLIC	?_Tidy@?$_Func_class@_NV?$basic_string@DU?$char_traits@D@std@@V?$allocator@D@2@@std@@@std@@IAEXXZ ; std::_Func_class<bool,std::basic_string<char,std::char_traits<char>,std::allocator<char> > >::_Tidy
PUBLIC	?_Getimpl@?$_Func_class@_NV?$basic_string@DU?$char_traits@D@std@@V?$allocator@D@2@@std@@@std@@ABEPAV?$_Func_base@_NV?$basic_string@DU?$char_traits@D@std@@V?$allocator@D@2@@std@@@2@XZ ; std::_Func_class<bool,std::basic_string<char,std::char_traits<char>,std::allocator<char> > >::_Getimpl
PUBLIC	??0?$basic_ifstream@DU?$char_traits@D@std@@@std@@QAE@PBDHH@Z ; std::basic_ifstream<char,std::char_traits<char> >::basic_ifstream<char,std::char_traits<char> >
PUBLIC	?is_open@?$basic_filebuf@DU?$char_traits@D@std@@@std@@QBE_NXZ ; std::basic_filebuf<char,std::char_traits<char> >::is_open
PUBLIC	?close@?$basic_filebuf@DU?$char_traits@D@std@@@std@@QAEPAV12@XZ ; std::basic_filebuf<char,std::char_traits<char> >::close
PUBLIC	?_Init@?$basic_filebuf@DU?$char_traits@D@std@@@std@@IAEXPAU_iobuf@@W4_Initfl@12@@Z ; std::basic_filebuf<char,std::char_traits<char> >::_Init
PUBLIC	?_Endwrite@?$basic_filebuf@DU?$char_traits@D@std@@@std@@IAE_NXZ ; std::basic_filebuf<char,std::char_traits<char> >::_Endwrite
PUBLIC	?_Initcvt@?$basic_filebuf@DU?$char_traits@D@std@@@std@@IAEXABV?$codecvt@DDU_Mbstatet@@@2@@Z ; std::basic_filebuf<char,std::char_traits<char> >::_Initcvt
PUBLIC	?_Reset_back@?$basic_filebuf@DU?$char_traits@D@std@@@std@@AAEXXZ ; std::basic_filebuf<char,std::char_traits<char> >::_Reset_back
PUBLIC	?_Set_back@?$basic_filebuf@DU?$char_traits@D@std@@@std@@AAEXXZ ; std::basic_filebuf<char,std::char_traits<char> >::_Set_back
PUBLIC	??0?$basic_ofstream@DU?$char_traits@D@std@@@std@@QAE@PBDHH@Z ; std::basic_ofstream<char,std::char_traits<char> >::basic_ofstream<char,std::char_traits<char> >
PUBLIC	??0?$_Vector_const_iterator@V?$_Vector_val@U?$_Simple_types@E@std@@@std@@@std@@QAE@PAEPBU_Container_base0@1@@Z ; std::_Vector_const_iterator<std::_Vector_val<std::_Simple_types<unsigned char> > >::_Vector_const_iterator<std::_Vector_val<std::_Simple_types<unsigned char> > >
PUBLIC	??0?$_String_iterator@V?$_String_val@U?$_Simple_types@D@std@@@std@@@std@@QAE@PBDPBU_Container_base0@1@@Z ; std::_String_iterator<std::_String_val<std::_Simple_types<char> > >::_String_iterator<std::_String_val<std::_Simple_types<char> > >
PUBLIC	??0?$_Vector_iterator@V?$_Vector_val@U?$_Simple_types@E@std@@@std@@@std@@QAE@PAEPBU_Container_base0@1@@Z ; std::_Vector_iterator<std::_Vector_val<std::_Simple_types<unsigned char> > >::_Vector_iterator<std::_Vector_val<std::_Simple_types<unsigned char> > >
PUBLIC	??_G?$basic_ifstream@DU?$char_traits@D@std@@@std@@UAEPAXI@Z ; std::basic_ifstream<char,std::char_traits<char> >::`scalar deleting destructor'
PUBLIC	??_G?$basic_filebuf@DU?$char_traits@D@std@@@std@@UAEPAXI@Z ; std::basic_filebuf<char,std::char_traits<char> >::`scalar deleting destructor'
PUBLIC	??_G?$basic_ofstream@DU?$char_traits@D@std@@@std@@UAEPAXI@Z ; std::basic_ofstream<char,std::char_traits<char> >::`scalar deleting destructor'
PUBLIC	?begin@?$basic_string@DU?$char_traits@D@std@@V?$allocator@D@2@@std@@QAE?AV?$_String_iterator@V?$_String_val@U?$_Simple_types@D@std@@@std@@@2@XZ ; std::basic_string<char,std::char_traits<char>,std::allocator<char> >::begin
PUBLIC	?end@?$basic_string@DU?$char_traits@D@std@@V?$allocator@D@2@@std@@QAE?AV?$_String_iterator@V?$_String_val@U?$_Simple_types@D@std@@@std@@@2@XZ ; std::basic_string<char,std::char_traits<char>,std::allocator<char> >::end
PUBLIC	??0?$vector@EV?$allocator@E@std@@@std@@QAE@IABV?$allocator@E@1@@Z ; std::vector<unsigned char,std::allocator<unsigned char> >::vector<unsigned char,std::allocator<unsigned char> >
PUBLIC	?begin@?$vector@EV?$allocator@E@std@@@std@@QAE?AV?$_Vector_iterator@V?$_Vector_val@U?$_Simple_types@E@std@@@std@@@2@XZ ; std::vector<unsigned char,std::allocator<unsigned char> >::begin
PUBLIC	?end@?$vector@EV?$allocator@E@std@@@std@@QAE?AV?$_Vector_iterator@V?$_Vector_val@U?$_Simple_types@E@std@@@std@@@2@XZ ; std::vector<unsigned char,std::allocator<unsigned char> >::end
PUBLIC	??B?$fpos@U_Mbstatet@@@std@@QBE_JXZ		; std::fpos<_Mbstatet>::operator __int64
PUBLIC	??R?$_Func_class@_NHH@std@@QBE_NHH@Z		; std::_Func_class<bool,int,int>::operator()
PUBLIC	??1?$_Func_class@_NHH@std@@QAE@XZ		; std::_Func_class<bool,int,int>::~_Func_class<bool,int,int>
PUBLIC	??0?$function@$$A6A_NHH@Z@std@@QAE@XZ		; std::function<bool __cdecl(int,int)>::function<bool __cdecl(int,int)>
PUBLIC	??B?$function@$$A6A_NHH@Z@std@@QBE_NXZ		; std::function<bool __cdecl(int,int)>::operator bool
PUBLIC	??R?$_Func_class@_NH@std@@QBE_NH@Z		; std::_Func_class<bool,int>::operator()
PUBLIC	??1?$_Func_class@_NH@std@@QAE@XZ		; std::_Func_class<bool,int>::~_Func_class<bool,int>
PUBLIC	??0?$function@$$A6A_NH@Z@std@@QAE@XZ		; std::function<bool __cdecl(int)>::function<bool __cdecl(int)>
PUBLIC	??B?$function@$$A6A_NH@Z@std@@QBE_NXZ		; std::function<bool __cdecl(int)>::operator bool
PUBLIC	??R?$_Func_class@_NV?$basic_string@DU?$char_traits@D@std@@V?$allocator@D@2@@std@@@std@@QBE_NV?$basic_string@DU?$char_traits@D@std@@V?$allocator@D@2@@1@@Z ; std::_Func_class<bool,std::basic_string<char,std::char_traits<char>,std::allocator<char> > >::operator()
PUBLIC	??1?$_Func_class@_NV?$basic_string@DU?$char_traits@D@std@@V?$allocator@D@2@@std@@@std@@QAE@XZ ; std::_Func_class<bool,std::basic_string<char,std::char_traits<char>,std::allocator<char> > >::~_Func_class<bool,std::basic_string<char,std::char_traits<char>,std::allocator<char> > >
PUBLIC	??0?$function@$$A6A_NV?$basic_string@DU?$char_traits@D@std@@V?$allocator@D@2@@std@@@Z@std@@QAE@XZ ; std::function<bool __cdecl(std::basic_string<char,std::char_traits<char>,std::allocator<char> >)>::function<bool __cdecl(std::basic_string<char,std::char_traits<char>,std::allocator<char> >)>
PUBLIC	??B?$function@$$A6A_NV?$basic_string@DU?$char_traits@D@std@@V?$allocator@D@2@@std@@@Z@std@@QBE_NXZ ; std::function<bool __cdecl(std::basic_string<char,std::char_traits<char>,std::allocator<char> >)>::operator bool
PUBLIC	??0?$basic_ifstream@DU?$char_traits@D@std@@@std@@QAE@ABV?$basic_string@DU?$char_traits@D@std@@V?$allocator@D@2@@1@HH@Z ; std::basic_ifstream<char,std::char_traits<char> >::basic_ifstream<char,std::char_traits<char> >
PUBLIC	??1?$basic_ifstream@DU?$char_traits@D@std@@@std@@UAE@XZ ; std::basic_ifstream<char,std::char_traits<char> >::~basic_ifstream<char,std::char_traits<char> >
PUBLIC	?is_open@?$basic_ifstream@DU?$char_traits@D@std@@@std@@QBE_NXZ ; std::basic_ifstream<char,std::char_traits<char> >::is_open
PUBLIC	?close@?$basic_ifstream@DU?$char_traits@D@std@@@std@@QAEXXZ ; std::basic_ifstream<char,std::char_traits<char> >::close
PUBLIC	??1?$basic_filebuf@DU?$char_traits@D@std@@@std@@UAE@XZ ; std::basic_filebuf<char,std::char_traits<char> >::~basic_filebuf<char,std::char_traits<char> >
PUBLIC	?_Lock@?$basic_filebuf@DU?$char_traits@D@std@@@std@@UAEXXZ ; std::basic_filebuf<char,std::char_traits<char> >::_Lock
PUBLIC	?_Unlock@?$basic_filebuf@DU?$char_traits@D@std@@@std@@UAEXXZ ; std::basic_filebuf<char,std::char_traits<char> >::_Unlock
PUBLIC	?overflow@?$basic_filebuf@DU?$char_traits@D@std@@@std@@MAEHH@Z ; std::basic_filebuf<char,std::char_traits<char> >::overflow
PUBLIC	?pbackfail@?$basic_filebuf@DU?$char_traits@D@std@@@std@@MAEHH@Z ; std::basic_filebuf<char,std::char_traits<char> >::pbackfail
PUBLIC	?underflow@?$basic_filebuf@DU?$char_traits@D@std@@@std@@MAEHXZ ; std::basic_filebuf<char,std::char_traits<char> >::underflow
PUBLIC	?uflow@?$basic_filebuf@DU?$char_traits@D@std@@@std@@MAEHXZ ; std::basic_filebuf<char,std::char_traits<char> >::uflow
PUBLIC	?xsgetn@?$basic_filebuf@DU?$char_traits@D@std@@@std@@MAE_JPAD_J@Z ; std::basic_filebuf<char,std::char_traits<char> >::xsgetn
PUBLIC	?xsputn@?$basic_filebuf@DU?$char_traits@D@std@@@std@@MAE_JPBD_J@Z ; std::basic_filebuf<char,std::char_traits<char> >::xsputn
PUBLIC	?seekoff@?$basic_filebuf@DU?$char_traits@D@std@@@std@@MAE?AV?$fpos@U_Mbstatet@@@2@_JHH@Z ; std::basic_filebuf<char,std::char_traits<char> >::seekoff
PUBLIC	?seekpos@?$basic_filebuf@DU?$char_traits@D@std@@@std@@MAE?AV?$fpos@U_Mbstatet@@@2@V32@H@Z ; std::basic_filebuf<char,std::char_traits<char> >::seekpos
PUBLIC	?setbuf@?$basic_filebuf@DU?$char_traits@D@std@@@std@@MAEPAV?$basic_streambuf@DU?$char_traits@D@std@@@2@PAD_J@Z ; std::basic_filebuf<char,std::char_traits<char> >::setbuf
PUBLIC	?sync@?$basic_filebuf@DU?$char_traits@D@std@@@std@@MAEHXZ ; std::basic_filebuf<char,std::char_traits<char> >::sync
PUBLIC	?imbue@?$basic_filebuf@DU?$char_traits@D@std@@@std@@MAEXABVlocale@2@@Z ; std::basic_filebuf<char,std::char_traits<char> >::imbue
PUBLIC	??0?$basic_ofstream@DU?$char_traits@D@std@@@std@@QAE@ABV?$basic_string@DU?$char_traits@D@std@@V?$allocator@D@2@@1@HH@Z ; std::basic_ofstream<char,std::char_traits<char> >::basic_ofstream<char,std::char_traits<char> >
PUBLIC	??1?$basic_ofstream@DU?$char_traits@D@std@@@std@@UAE@XZ ; std::basic_ofstream<char,std::char_traits<char> >::~basic_ofstream<char,std::char_traits<char> >
PUBLIC	?is_open@?$basic_ofstream@DU?$char_traits@D@std@@@std@@QBE_NXZ ; std::basic_ofstream<char,std::char_traits<char> >::is_open
PUBLIC	?close@?$basic_ofstream@DU?$char_traits@D@std@@@std@@QAEXXZ ; std::basic_ofstream<char,std::char_traits<char> >::close
PUBLIC	?getEncryptFileOriginalFilename@EncryptFileDoModal@thatboy@@YA?AV?$basic_string@DU?$char_traits@D@std@@V?$allocator@D@2@@std@@V34@@Z ; thatboy::EncryptFileDoModal::getEncryptFileOriginalFilename
PUBLIC	?Verify@EncryptFileDoModal@thatboy@@YA?AW4EncryptErrorCode@12@V?$basic_string@DU?$char_traits@D@std@@V?$allocator@D@2@@std@@00@Z ; thatboy::EncryptFileDoModal::Verify
PUBLIC	?Decrypt@EncryptFileDoModal@thatboy@@YA?AW4EncryptErrorCode@12@V?$basic_string@DU?$char_traits@D@std@@V?$allocator@D@2@@std@@000_N@Z ; thatboy::EncryptFileDoModal::Decrypt
PUBLIC	??_D?$basic_ofstream@DU?$char_traits@D@std@@@std@@QAEXXZ ; std::basic_ofstream<char,std::char_traits<char> >::`vbase destructor'
PUBLIC	??_D?$basic_ifstream@DU?$char_traits@D@std@@@std@@QAEXXZ ; std::basic_ifstream<char,std::char_traits<char> >::`vbase destructor'
PUBLIC	??0SignatureDomain@thatboy@@QAE@XZ		; thatboy::SignatureDomain::SignatureDomain
PUBLIC	?Encrypt@EncryptFileDoModal@thatboy@@YA?AW4EncryptErrorCode@12@V?$basic_string@DU?$char_traits@D@std@@V?$allocator@D@2@@std@@000IW4CRC32_TYPE@CRC32@2@_N@Z ; thatboy::EncryptFileDoModal::Encrypt
PUBLIC	??1?$function@$$A6A_NV?$basic_string@DU?$char_traits@D@std@@V?$allocator@D@2@@std@@@Z@std@@QAE@XZ ; std::function<bool __cdecl(std::basic_string<char,std::char_traits<char>,std::allocator<char> >)>::~function<bool __cdecl(std::basic_string<char,std::char_traits<char>,std::allocator<char> >)>
PUBLIC	??1?$function@$$A6A_NH@Z@std@@QAE@XZ		; std::function<bool __cdecl(int)>::~function<bool __cdecl(int)>
PUBLIC	??1?$function@$$A6A_NHH@Z@std@@QAE@XZ		; std::function<bool __cdecl(int,int)>::~function<bool __cdecl(int,int)>
PUBLIC	?callBackSetProcessBarRange@EncryptFileDoModal@thatboy@@3V?$function@$$A6A_NHH@Z@std@@A ; thatboy::EncryptFileDoModal::callBackSetProcessBarRange
PUBLIC	?callBackSetProcessBarPos@EncryptFileDoModal@thatboy@@3V?$function@$$A6A_NH@Z@std@@A ; thatboy::EncryptFileDoModal::callBackSetProcessBarPos
PUBLIC	?callBackStatusUpdate@EncryptFileDoModal@thatboy@@3V?$function@$$A6A_NV?$basic_string@DU?$char_traits@D@std@@V?$allocator@D@2@@std@@@Z@std@@A ; thatboy::EncryptFileDoModal::callBackStatusUpdate
PUBLIC	?_Stinit@?1??_Init@?$basic_filebuf@DU?$char_traits@D@std@@@std@@IAEXPAU_iobuf@@W4_Initfl@23@@Z@4U_Mbstatet@@A ; `std::basic_filebuf<char,std::char_traits<char> >::_Init'::`2'::_Stinit
EXTRN	??_Ebad_cast@std@@UAEPAXI@Z:PROC		; std::bad_cast::`vector deleting destructor'
EXTRN	??_E?$basic_filebuf@DU?$char_traits@D@std@@@std@@UAEPAXI@Z:PROC ; std::basic_filebuf<char,std::char_traits<char> >::`vector deleting destructor'
EXTRN	??_E?$basic_ifstream@DU?$char_traits@D@std@@@std@@UAEPAXI@Z:PROC ; std::basic_ifstream<char,std::char_traits<char> >::`vector deleting destructor'
EXTRN	??_E?$basic_ofstream@DU?$char_traits@D@std@@@std@@UAEPAXI@Z:PROC ; std::basic_ofstream<char,std::char_traits<char> >::`vector deleting destructor'
?callBackSetProcessBarRange@EncryptFileDoModal@thatboy@@3V?$function@$$A6A_NHH@Z@std@@A DB 028H DUP (?) ; thatboy::EncryptFileDoModal::callBackSetProcessBarRange
?callBackSetProcessBarPos@EncryptFileDoModal@thatboy@@3V?$function@$$A6A_NH@Z@std@@A DB 028H DUP (?) ; thatboy::EncryptFileDoModal::callBackSetProcessBarPos
?callBackStatusUpdate@EncryptFileDoModal@thatboy@@3V?$function@$$A6A_NV?$basic_string@DU?$char_traits@D@std@@V?$allocator@D@2@@std@@@Z@std@@A DB 028H DUP (?) ; thatboy::EncryptFileDoModal::callBackStatusUpdate
_BSS	ENDS
;	COMDAT ?_Stinit@?1??_Init@?$basic_filebuf@DU?$char_traits@D@std@@@std@@IAEXPAU_iobuf@@W4_Initfl@23@@Z@4U_Mbstatet@@A
_BSS	SEGMENT
?_Stinit@?1??_Init@?$basic_filebuf@DU?$char_traits@D@std@@@std@@IAEXPAU_iobuf@@W4_Initfl@23@@Z@4U_Mbstatet@@A DQ 01H DUP (?) ; `std::basic_filebuf<char,std::char_traits<char> >::_Init'::`2'::_Stinit
_BSS	ENDS
;	COMDAT xdata$x
xdata$x	SEGMENT
__ehfuncinfo$?Encrypt@EncryptFileDoModal@thatboy@@YA?AW4EncryptErrorCode@12@V?$basic_string@DU?$char_traits@D@std@@V?$allocator@D@2@@std@@000IW4CRC32_TYPE@CRC32@2@_N@Z DD 019930522H
	DD	0cH
	DD	FLAT:__unwindtable$?Encrypt@EncryptFileDoModal@thatboy@@YA?AW4EncryptErrorCode@12@V?$basic_string@DU?$char_traits@D@std@@V?$allocator@D@2@@std@@000IW4CRC32_TYPE@CRC32@2@_N@Z
	DD	2 DUP(00H)
	DD	2 DUP(00H)
	DD	00H
	DD	01H
	ORG $+4
__unwindtable$?Encrypt@EncryptFileDoModal@thatboy@@YA?AW4EncryptErrorCode@12@V?$basic_string@DU?$char_traits@D@std@@V?$allocator@D@2@@std@@000IW4CRC32_TYPE@CRC32@2@_N@Z DD 0ffffffffH
	DD	FLAT:__unwindfunclet$?Encrypt@EncryptFileDoModal@thatboy@@YA?AW4EncryptErrorCode@12@V?$basic_string@DU?$char_traits@D@std@@V?$allocator@D@2@@std@@000IW4CRC32_TYPE@CRC32@2@_N@Z$0
	DD	00H
	DD	FLAT:__unwindfunclet$?Encrypt@EncryptFileDoModal@thatboy@@YA?AW4EncryptErrorCode@12@V?$basic_string@DU?$char_traits@D@std@@V?$allocator@D@2@@std@@000IW4CRC32_TYPE@CRC32@2@_N@Z$1
	DD	01H
	DD	FLAT:__unwindfunclet$?Encrypt@EncryptFileDoModal@thatboy@@YA?AW4EncryptErrorCode@12@V?$basic_string@DU?$char_traits@D@std@@V?$allocator@D@2@@std@@000IW4CRC32_TYPE@CRC32@2@_N@Z$2
	DD	02H
	DD	FLAT:__unwindfunclet$?Encrypt@EncryptFileDoModal@thatboy@@YA?AW4EncryptErrorCode@12@V?$basic_string@DU?$char_traits@D@std@@V?$allocator@D@2@@std@@000IW4CRC32_TYPE@CRC32@2@_N@Z$3
	DD	03H
	DD	FLAT:__unwindfunclet$?Encrypt@EncryptFileDoModal@thatboy@@YA?AW4EncryptErrorCode@12@V?$basic_string@DU?$char_traits@D@std@@V?$allocator@D@2@@std@@000IW4CRC32_TYPE@CRC32@2@_N@Z$5
	DD	04H
	DD	FLAT:__unwindfunclet$?Encrypt@EncryptFileDoModal@thatboy@@YA?AW4EncryptErrorCode@12@V?$basic_string@DU?$char_traits@D@std@@V?$allocator@D@2@@std@@000IW4CRC32_TYPE@CRC32@2@_N@Z$28
	DD	05H
	DD	FLAT:__unwindfunclet$?Encrypt@EncryptFileDoModal@thatboy@@YA?AW4EncryptErrorCode@12@V?$basic_string@DU?$char_traits@D@std@@V?$allocator@D@2@@std@@000IW4CRC32_TYPE@CRC32@2@_N@Z$29
	DD	04H
	DD	FLAT:__unwindfunclet$?Encrypt@EncryptFileDoModal@thatboy@@YA?AW4EncryptErrorCode@12@V?$basic_string@DU?$char_traits@D@std@@V?$allocator@D@2@@std@@000IW4CRC32_TYPE@CRC32@2@_N@Z$53
	DD	04H
	DD	FLAT:__unwindfunclet$?Encrypt@EncryptFileDoModal@thatboy@@YA?AW4EncryptErrorCode@12@V?$basic_string@DU?$char_traits@D@std@@V?$allocator@D@2@@std@@000IW4CRC32_TYPE@CRC32@2@_N@Z$13
	DD	08H
	DD	FLAT:__unwindfunclet$?Encrypt@EncryptFileDoModal@thatboy@@YA?AW4EncryptErrorCode@12@V?$basic_string@DU?$char_traits@D@std@@V?$allocator@D@2@@std@@000IW4CRC32_TYPE@CRC32@2@_N@Z$14
	DD	09H
	DD	FLAT:__unwindfunclet$?Encrypt@EncryptFileDoModal@thatboy@@YA?AW4EncryptErrorCode@12@V?$basic_string@DU?$char_traits@D@std@@V?$allocator@D@2@@std@@000IW4CRC32_TYPE@CRC32@2@_N@Z$16
	DD	0aH
	DD	FLAT:__unwindfunclet$?Encrypt@EncryptFileDoModal@thatboy@@YA?AW4EncryptErrorCode@12@V?$basic_string@DU?$char_traits@D@std@@V?$allocator@D@2@@std@@000IW4CRC32_TYPE@CRC32@2@_N@Z$18
xdata$x	ENDS
;	COMDAT xdata$x
xdata$x	SEGMENT
__ehfuncinfo$??R<lambda_bd5209fe60ea693a3654fa8c8c591453>@@QBEIV?$basic_string@DU?$char_traits@D@std@@V?$allocator@D@2@@std@@@Z DD 019930522H
	DD	02H
	DD	FLAT:__unwindtable$??R<lambda_bd5209fe60ea693a3654fa8c8c591453>@@QBEIV?$basic_string@DU?$char_traits@D@std@@V?$allocator@D@2@@std@@@Z
	DD	2 DUP(00H)
	DD	2 DUP(00H)
	DD	00H
	DD	01H
__unwindtable$??R<lambda_bd5209fe60ea693a3654fa8c8c591453>@@QBEIV?$basic_string@DU?$char_traits@D@std@@V?$allocator@D@2@@std@@@Z DD 0ffffffffH
	DD	FLAT:__unwindfunclet$??R<lambda_bd5209fe60ea693a3654fa8c8c591453>@@QBEIV?$basic_string@DU?$char_traits@D@std@@V?$allocator@D@2@@std@@@Z$0
	DD	00H
	DD	FLAT:__unwindfunclet$??R<lambda_bd5209fe60ea693a3654fa8c8c591453>@@QBEIV?$basic_string@DU?$char_traits@D@std@@V?$allocator@D@2@@std@@@Z$1
xdata$x	ENDS
;	COMDAT xdata$x
xdata$x	SEGMENT
__ehfuncinfo$?Decrypt@EncryptFileDoModal@thatboy@@YA?AW4EncryptErrorCode@12@V?$basic_string@DU?$char_traits@D@std@@V?$allocator@D@2@@std@@000_N@Z DD 019930522H
	DD	09H
	DD	FLAT:__unwindtable$?Decrypt@EncryptFileDoModal@thatboy@@YA?AW4EncryptErrorCode@12@V?$basic_string@DU?$char_traits@D@std@@V?$allocator@D@2@@std@@000_N@Z
	DD	2 DUP(00H)
	DD	2 DUP(00H)
	DD	00H
	DD	01H
	ORG $+4
__unwindtable$?Decrypt@EncryptFileDoModal@thatboy@@YA?AW4EncryptErrorCode@12@V?$basic_string@DU?$char_traits@D@std@@V?$allocator@D@2@@std@@000_N@Z DD 0ffffffffH
	DD	FLAT:__unwindfunclet$?Decrypt@EncryptFileDoModal@thatboy@@YA?AW4EncryptErrorCode@12@V?$basic_string@DU?$char_traits@D@std@@V?$allocator@D@2@@std@@000_N@Z$0
	DD	00H
	DD	FLAT:__unwindfunclet$?Decrypt@EncryptFileDoModal@thatboy@@YA?AW4EncryptErrorCode@12@V?$basic_string@DU?$char_traits@D@std@@V?$allocator@D@2@@std@@000_N@Z$1
	DD	01H
	DD	FLAT:__unwindfunclet$?Decrypt@EncryptFileDoModal@thatboy@@YA?AW4EncryptErrorCode@12@V?$basic_string@DU?$char_traits@D@std@@V?$allocator@D@2@@std@@000_N@Z$2
	DD	02H
	DD	FLAT:__unwindfunclet$?Decrypt@EncryptFileDoModal@thatboy@@YA?AW4EncryptErrorCode@12@V?$basic_string@DU?$char_traits@D@std@@V?$allocator@D@2@@std@@000_N@Z$3
	DD	03H
	DD	FLAT:__unwindfunclet$?Decrypt@EncryptFileDoModal@thatboy@@YA?AW4EncryptErrorCode@12@V?$basic_string@DU?$char_traits@D@std@@V?$allocator@D@2@@std@@000_N@Z$5
	DD	04H
	DD	FLAT:__unwindfunclet$?Decrypt@EncryptFileDoModal@thatboy@@YA?AW4EncryptErrorCode@12@V?$basic_string@DU?$char_traits@D@std@@V?$allocator@D@2@@std@@000_N@Z$6
	DD	05H
	DD	FLAT:__unwindfunclet$?Decrypt@EncryptFileDoModal@thatboy@@YA?AW4EncryptErrorCode@12@V?$basic_string@DU?$char_traits@D@std@@V?$allocator@D@2@@std@@000_N@Z$13
	DD	06H
	DD	FLAT:__unwindfunclet$?Decrypt@EncryptFileDoModal@thatboy@@YA?AW4EncryptErrorCode@12@V?$basic_string@DU?$char_traits@D@std@@V?$allocator@D@2@@std@@000_N@Z$14
	DD	07H
	DD	FLAT:__unwindfunclet$?Decrypt@EncryptFileDoModal@thatboy@@YA?AW4EncryptErrorCode@12@V?$basic_string@DU?$char_traits@D@std@@V?$allocator@D@2@@std@@000_N@Z$16
xdata$x	ENDS
;	COMDAT xdata$x
xdata$x	SEGMENT
__ehfuncinfo$?Verify@EncryptFileDoModal@thatboy@@YA?AW4EncryptErrorCode@12@V?$basic_string@DU?$char_traits@D@std@@V?$allocator@D@2@@std@@00@Z DD 019930522H
	DD	04H
	DD	FLAT:__unwindtable$?Verify@EncryptFileDoModal@thatboy@@YA?AW4EncryptErrorCode@12@V?$basic_string@DU?$char_traits@D@std@@V?$allocator@D@2@@std@@00@Z
	DD	2 DUP(00H)
	DD	2 DUP(00H)
	DD	00H
	DD	01H
__unwindtable$?Verify@EncryptFileDoModal@thatboy@@YA?AW4EncryptErrorCode@12@V?$basic_string@DU?$char_traits@D@std@@V?$allocator@D@2@@std@@00@Z DD 0ffffffffH
	DD	FLAT:__unwindfunclet$?Verify@EncryptFileDoModal@thatboy@@YA?AW4EncryptErrorCode@12@V?$basic_string@DU?$char_traits@D@std@@V?$allocator@D@2@@std@@00@Z$0
	DD	00H
	DD	FLAT:__unwindfunclet$?Verify@EncryptFileDoModal@thatboy@@YA?AW4EncryptErrorCode@12@V?$basic_string@DU?$char_traits@D@std@@V?$allocator@D@2@@std@@00@Z$1
	DD	01H
	DD	FLAT:__unwindfunclet$?Verify@EncryptFileDoModal@thatboy@@YA?AW4EncryptErrorCode@12@V?$basic_string@DU?$char_traits@D@std@@V?$allocator@D@2@@std@@00@Z$2
	DD	02H
	DD	FLAT:__unwindfunclet$?Verify@EncryptFileDoModal@thatboy@@YA?AW4EncryptErrorCode@12@V?$basic_string@DU?$char_traits@D@std@@V?$allocator@D@2@@std@@00@Z$3
xdata$x	ENDS
;	COMDAT xdata$x
xdata$x	SEGMENT
__ehfuncinfo$?getEncryptFileOriginalFilename@EncryptFileDoModal@thatboy@@YA?AV?$basic_string@DU?$char_traits@D@std@@V?$allocator@D@2@@std@@V34@@Z DD 019930522H
	DD	02H
	DD	FLAT:__unwindtable$?getEncryptFileOriginalFilename@EncryptFileDoModal@thatboy@@YA?AV?$basic_string@DU?$char_traits@D@std@@V?$allocator@D@2@@std@@V34@@Z
	DD	2 DUP(00H)
	DD	2 DUP(00H)
	DD	00H
	DD	01H
__unwindtable$?getEncryptFileOriginalFilename@EncryptFileDoModal@thatboy@@YA?AV?$basic_string@DU?$char_traits@D@std@@V?$allocator@D@2@@std@@V34@@Z DD 0ffffffffH
	DD	FLAT:__unwindfunclet$?getEncryptFileOriginalFilename@EncryptFileDoModal@thatboy@@YA?AV?$basic_string@DU?$char_traits@D@std@@V?$allocator@D@2@@std@@V34@@Z$0
	DD	00H
	DD	FLAT:__unwindfunclet$?getEncryptFileOriginalFilename@EncryptFileDoModal@thatboy@@YA?AV?$basic_string@DU?$char_traits@D@std@@V?$allocator@D@2@@std@@V34@@Z$1
xdata$x	ENDS
;	COMDAT xdata$x
xdata$x	SEGMENT
__ehfuncinfo$??0?$basic_ofstream@DU?$char_traits@D@std@@@std@@QAE@ABV?$basic_string@DU?$char_traits@D@std@@V?$allocator@D@2@@1@HH@Z DD 019930522H
	DD	04H
	DD	FLAT:__unwindtable$??0?$basic_ofstream@DU?$char_traits@D@std@@@std@@QAE@ABV?$basic_string@DU?$char_traits@D@std@@V?$allocator@D@2@@1@HH@Z
	DD	2 DUP(00H)
	DD	2 DUP(00H)
	DD	00H
	DD	01H
__unwindtable$??0?$basic_ofstream@DU?$char_traits@D@std@@@std@@QAE@ABV?$basic_string@DU?$char_traits@D@std@@V?$allocator@D@2@@1@HH@Z DD 0ffffffffH
	DD	FLAT:__unwindfunclet$??0?$basic_ofstream@DU?$char_traits@D@std@@@std@@QAE@ABV?$basic_string@DU?$char_traits@D@std@@V?$allocator@D@2@@1@HH@Z$1
	DD	00H
	DD	FLAT:__unwindfunclet$??0?$basic_ofstream@DU?$char_traits@D@std@@@std@@QAE@ABV?$basic_string@DU?$char_traits@D@std@@V?$allocator@D@2@@1@HH@Z$2
	DD	01H
	DD	FLAT:__unwindfunclet$??0?$basic_ofstream@DU?$char_traits@D@std@@@std@@QAE@ABV?$basic_string@DU?$char_traits@D@std@@V?$allocator@D@2@@1@HH@Z$4
	DD	01H
	DD	FLAT:__unwindfunclet$??0?$basic_ofstream@DU?$char_traits@D@std@@@std@@QAE@ABV?$basic_string@DU?$char_traits@D@std@@V?$allocator@D@2@@1@HH@Z$3
xdata$x	ENDS
;	COMDAT xdata$x
xdata$x	SEGMENT
__ehfuncinfo$?uflow@?$basic_filebuf@DU?$char_traits@D@std@@@std@@MAEHXZ DD 019930522H
	DD	01H
	DD	FLAT:__unwindtable$?uflow@?$basic_filebuf@DU?$char_traits@D@std@@@std@@MAEHXZ
	DD	2 DUP(00H)
	DD	2 DUP(00H)
	DD	00H
	DD	01H
__unwindtable$?uflow@?$basic_filebuf@DU?$char_traits@D@std@@@std@@MAEHXZ DD 0ffffffffH
	DD	FLAT:__unwindfunclet$?uflow@?$basic_filebuf@DU?$char_traits@D@std@@@std@@MAEHXZ$0
xdata$x	ENDS
;	COMDAT xdata$x
xdata$x	SEGMENT
__ehfuncinfo$??1?$basic_filebuf@DU?$char_traits@D@std@@@std@@UAE@XZ DD 019930522H
	DD	00H
	DD	00H
	DD	2 DUP(00H)
	DD	2 DUP(00H)
	DD	00H
	DD	05H
xdata$x	ENDS
;	COMDAT xdata$x
xdata$x	SEGMENT
__ehfuncinfo$??0?$basic_ifstream@DU?$char_traits@D@std@@@std@@QAE@ABV?$basic_string@DU?$char_traits@D@std@@V?$allocator@D@2@@1@HH@Z DD 019930522H
	DD	04H
	DD	FLAT:__unwindtable$??0?$basic_ifstream@DU?$char_traits@D@std@@@std@@QAE@ABV?$basic_string@DU?$char_traits@D@std@@V?$allocator@D@2@@1@HH@Z
	DD	2 DUP(00H)
	DD	2 DUP(00H)
	DD	00H
	DD	01H
__unwindtable$??0?$basic_ifstream@DU?$char_traits@D@std@@@std@@QAE@ABV?$basic_string@DU?$char_traits@D@std@@V?$allocator@D@2@@1@HH@Z DD 0ffffffffH
	DD	FLAT:__unwindfunclet$??0?$basic_ifstream@DU?$char_traits@D@std@@@std@@QAE@ABV?$basic_string@DU?$char_traits@D@std@@V?$allocator@D@2@@1@HH@Z$1
	DD	00H
	DD	FLAT:__unwindfunclet$??0?$basic_ifstream@DU?$char_traits@D@std@@@std@@QAE@ABV?$basic_string@DU?$char_traits@D@std@@V?$allocator@D@2@@1@HH@Z$2
	DD	01H
	DD	FLAT:__unwindfunclet$??0?$basic_ifstream@DU?$char_traits@D@std@@@std@@QAE@ABV?$basic_string@DU?$char_traits@D@std@@V?$allocator@D@2@@1@HH@Z$4
	DD	01H
	DD	FLAT:__unwindfunclet$??0?$basic_ifstream@DU?$char_traits@D@std@@@std@@QAE@ABV?$basic_string@DU?$char_traits@D@std@@V?$allocator@D@2@@1@HH@Z$3
xdata$x	ENDS
;	COMDAT xdata$x
xdata$x	SEGMENT
__ehfuncinfo$??R?$_Func_class@_NV?$basic_string@DU?$char_traits@D@std@@V?$allocator@D@2@@std@@@std@@QBE_NV?$basic_string@DU?$char_traits@D@std@@V?$allocator@D@2@@1@@Z DD 019930522H
	DD	01H
	DD	FLAT:__unwindtable$??R?$_Func_class@_NV?$basic_string@DU?$char_traits@D@std@@V?$allocator@D@2@@std@@@std@@QBE_NV?$basic_string@DU?$char_traits@D@std@@V?$allocator@D@2@@1@@Z
	DD	2 DUP(00H)
	DD	2 DUP(00H)
	DD	00H
	DD	01H
__unwindtable$??R?$_Func_class@_NV?$basic_string@DU?$char_traits@D@std@@V?$allocator@D@2@@std@@@std@@QBE_NV?$basic_string@DU?$char_traits@D@std@@V?$allocator@D@2@@1@@Z DD 0ffffffffH
	DD	FLAT:__unwindfunclet$??R?$_Func_class@_NV?$basic_string@DU?$char_traits@D@std@@V?$allocator@D@2@@std@@@std@@QBE_NV?$basic_string@DU?$char_traits@D@std@@V?$allocator@D@2@@1@@Z$0
xdata$x	ENDS
;	COMDAT xdata$x
xdata$x	SEGMENT
__ehfuncinfo$??0?$basic_ofstream@DU?$char_traits@D@std@@@std@@QAE@PBDHH@Z DD 019930522H
	DD	04H
	DD	FLAT:__unwindtable$??0?$basic_ofstream@DU?$char_traits@D@std@@@std@@QAE@PBDHH@Z
	DD	2 DUP(00H)
	DD	2 DUP(00H)
	DD	00H
	DD	01H
__unwindtable$??0?$basic_ofstream@DU?$char_traits@D@std@@@std@@QAE@PBDHH@Z DD 0ffffffffH
	DD	FLAT:__unwindfunclet$??0?$basic_ofstream@DU?$char_traits@D@std@@@std@@QAE@PBDHH@Z$0
	DD	00H
	DD	FLAT:__unwindfunclet$??0?$basic_ofstream@DU?$char_traits@D@std@@@std@@QAE@PBDHH@Z$1
	DD	01H
	DD	FLAT:__unwindfunclet$??0?$basic_ofstream@DU?$char_traits@D@std@@@std@@QAE@PBDHH@Z$3
	DD	01H
	DD	FLAT:__unwindfunclet$??0?$basic_ofstream@DU?$char_traits@D@std@@@std@@QAE@PBDHH@Z$2
xdata$x	ENDS
;	COMDAT xdata$x
xdata$x	SEGMENT
__ehfuncinfo$??0?$basic_ifstream@DU?$char_traits@D@std@@@std@@QAE@PBDHH@Z DD 019930522H
	DD	04H
	DD	FLAT:__unwindtable$??0?$basic_ifstream@DU?$char_traits@D@std@@@std@@QAE@PBDHH@Z
	DD	2 DUP(00H)
	DD	2 DUP(00H)
	DD	00H
	DD	01H
__unwindtable$??0?$basic_ifstream@DU?$char_traits@D@std@@@std@@QAE@PBDHH@Z DD 0ffffffffH
	DD	FLAT:__unwindfunclet$??0?$basic_ifstream@DU?$char_traits@D@std@@@std@@QAE@PBDHH@Z$0
	DD	00H
	DD	FLAT:__unwindfunclet$??0?$basic_ifstream@DU?$char_traits@D@std@@@std@@QAE@PBDHH@Z$1
	DD	01H
	DD	FLAT:__unwindfunclet$??0?$basic_ifstream@DU?$char_traits@D@std@@@std@@QAE@PBDHH@Z$3
	DD	01H
	DD	FLAT:__unwindfunclet$??0?$basic_ifstream@DU?$char_traits@D@std@@@std@@QAE@PBDHH@Z$2
xdata$x	ENDS
;	COMDAT xdata$x
xdata$x	SEGMENT
__ehfuncinfo$?open@?$basic_filebuf@DU?$char_traits@D@std@@@std@@QAEPAV12@PBDHH@Z DD 019930522H
	DD	01H
	DD	FLAT:__unwindtable$?open@?$basic_filebuf@DU?$char_traits@D@std@@@std@@QAEPAV12@PBDHH@Z
	DD	2 DUP(00H)
	DD	2 DUP(00H)
	DD	00H
	DD	01H
__unwindtable$?open@?$basic_filebuf@DU?$char_traits@D@std@@@std@@QAEPAV12@PBDHH@Z DD 0ffffffffH
	DD	FLAT:__unwindfunclet$?open@?$basic_filebuf@DU?$char_traits@D@std@@@std@@QAEPAV12@PBDHH@Z$0
xdata$x	ENDS
;	COMDAT xdata$x
xdata$x	SEGMENT
__ehfuncinfo$??0?$basic_filebuf@DU?$char_traits@D@std@@@std@@QAE@XZ DD 019930522H
	DD	01H
	DD	FLAT:__unwindtable$??0?$basic_filebuf@DU?$char_traits@D@std@@@std@@QAE@XZ
	DD	2 DUP(00H)
	DD	2 DUP(00H)
	DD	00H
	DD	01H
__unwindtable$??0?$basic_filebuf@DU?$char_traits@D@std@@@std@@QAE@XZ DD 0ffffffffH
	DD	FLAT:__unwindfunclet$??0?$basic_filebuf@DU?$char_traits@D@std@@@std@@QAE@XZ$0
xdata$x	ENDS
;	COMDAT xdata$x
xdata$x	SEGMENT
__ehfuncinfo$??$?0V?$_Vector_iterator@V?$_Vector_val@U?$_Simple_types@E@std@@@std@@@std@@X@?$basic_string@DU?$char_traits@D@std@@V?$allocator@D@2@@std@@QAE@V?$_Vector_iterator@V?$_Vector_val@U?$_Simple_types@E@std@@@std@@@1@0ABV?$allocator@D@1@@Z DD 019930522H
	DD	01H
	DD	FLAT:__unwindtable$??$?0V?$_Vector_iterator@V?$_Vector_val@U?$_Simple_types@E@std@@@std@@@std@@X@?$basic_string@DU?$char_traits@D@std@@V?$allocator@D@2@@std@@QAE@V?$_Vector_iterator@V?$_Vector_val@U?$_Simple_types@E@std@@@std@@@1@0ABV?$allocator@D@1@@Z
	DD	2 DUP(00H)
	DD	2 DUP(00H)
	DD	00H
	DD	01H
__unwindtable$??$?0V?$_Vector_iterator@V?$_Vector_val@U?$_Simple_types@E@std@@@std@@@std@@X@?$basic_string@DU?$char_traits@D@std@@V?$allocator@D@2@@std@@QAE@V?$_Vector_iterator@V?$_Vector_val@U?$_Simple_types@E@std@@@std@@@1@0ABV?$allocator@D@1@@Z DD 0ffffffffH
	DD	FLAT:__unwindfunclet$??$?0V?$_Vector_iterator@V?$_Vector_val@U?$_Simple_types@E@std@@@std@@@std@@X@?$basic_string@DU?$char_traits@D@std@@V?$allocator@D@2@@std@@QAE@V?$_Vector_iterator@V?$_Vector_val@U?$_Simple_types@E@std@@@std@@@1@0ABV?$allocator@D@1@@Z$0
xdata$x	ENDS
;	COMDAT xdata$x
xdata$x	SEGMENT
__ehfuncinfo$??$use_facet@V?$codecvt@DDU_Mbstatet@@@std@@@std@@YAABV?$codecvt@DDU_Mbstatet@@@0@ABVlocale@0@@Z DD 019930522H
	DD	02H
	DD	FLAT:__unwindtable$??$use_facet@V?$codecvt@DDU_Mbstatet@@@std@@@std@@YAABV?$codecvt@DDU_Mbstatet@@@0@ABVlocale@0@@Z
	DD	2 DUP(00H)
	DD	2 DUP(00H)
	DD	00H
	DD	01H
__unwindtable$??$use_facet@V?$codecvt@DDU_Mbstatet@@@std@@@std@@YAABV?$codecvt@DDU_Mbstatet@@@0@ABVlocale@0@@Z DD 0ffffffffH
	DD	FLAT:__unwindfunclet$??$use_facet@V?$codecvt@DDU_Mbstatet@@@std@@@std@@YAABV?$codecvt@DDU_Mbstatet@@@0@ABVlocale@0@@Z$0
	DD	00H
	DD	FLAT:__unwindfunclet$??$use_facet@V?$codecvt@DDU_Mbstatet@@@std@@@std@@YAABV?$codecvt@DDU_Mbstatet@@@0@ABVlocale@0@@Z$1
xdata$x	ENDS
;	COMDAT xdata$x
xdata$x	SEGMENT
__ehfuncinfo$??$_Construct@PAE@?$basic_string@DU?$char_traits@D@std@@V?$allocator@D@2@@std@@QAEXQAE0Uforward_iterator_tag@1@@Z DD 019930522H
	DD	01H
	DD	FLAT:__unwindtable$??$_Construct@PAE@?$basic_string@DU?$char_traits@D@std@@V?$allocator@D@2@@std@@QAEXQAE0Uforward_iterator_tag@1@@Z
	DD	2 DUP(00H)
	DD	2 DUP(00H)
	DD	00H
	DD	01H
__unwindtable$??$_Construct@PAE@?$basic_string@DU?$char_traits@D@std@@V?$allocator@D@2@@std@@QAEXQAE0Uforward_iterator_tag@1@@Z DD 0ffffffffH
	DD	FLAT:__unwindfunclet$??$_Construct@PAE@?$basic_string@DU?$char_traits@D@std@@V?$allocator@D@2@@std@@QAEXQAE0Uforward_iterator_tag@1@@Z$0
xdata$x	ENDS
;	COMDAT xdata$x
xdata$x	SEGMENT
__ehfuncinfo$??$_Construct@PAE@?$basic_string@DU?$char_traits@D@std@@V?$allocator@D@2@@std@@QAEXPAEQAEUinput_iterator_tag@1@@Z DD 019930522H
	DD	01H
	DD	FLAT:__unwindtable$??$_Construct@PAE@?$basic_string@DU?$char_traits@D@std@@V?$allocator@D@2@@std@@QAEXPAEQAEUinput_iterator_tag@1@@Z
	DD	2 DUP(00H)
	DD	2 DUP(00H)
	DD	00H
	DD	01H
__unwindtable$??$_Construct@PAE@?$basic_string@DU?$char_traits@D@std@@V?$allocator@D@2@@std@@QAEXPAEQAEUinput_iterator_tag@1@@Z DD 0ffffffffH
	DD	FLAT:__unwindfunclet$??$_Construct@PAE@?$basic_string@DU?$char_traits@D@std@@V?$allocator@D@2@@std@@QAEXPAEQAEUinput_iterator_tag@1@@Z$0
?callBackSetProcessBarRange$initializer$@EncryptFileDoModal@thatboy@@3P6AXXZA DD FLAT:??__EcallBackSetProcessBarRange@EncryptFileDoModal@thatboy@@YAXXZ ; thatboy::EncryptFileDoModal::callBackSetProcessBarRange$initializer$
?callBackSetProcessBarPos$initializer$@EncryptFileDoModal@thatboy@@3P6AXXZA DD FLAT:??__EcallBackSetProcessBarPos@EncryptFileDoModal@thatboy@@YAXXZ ; thatboy::EncryptFileDoModal::callBackSetProcessBarPos$initializer$
?callBackStatusUpdate$initializer$@EncryptFileDoModal@thatboy@@3P6AXXZA DD FLAT:??__EcallBackStatusUpdate@EncryptFileDoModal@thatboy@@YAXXZ ; thatboy::EncryptFileDoModal::callBackStatusUpdate$initializer$
; Function compile flags: /Ogtp
; File E:\Visual Studio Application\\ThatboyEncryptFileEncoder\ThatboyEncrypt.cpp
;	COMDAT ??__EcallBackSetProcessBarRange@EncryptFileDoModal@thatboy@@YAXXZ
text$di	SEGMENT
??__EcallBackSetProcessBarRange@EncryptFileDoModal@thatboy@@YAXXZ PROC ; thatboy::EncryptFileDoModal::`dynamic initializer for 'callBackSetProcessBarRange'', COMDAT

; 5    : std::function<bool(int, int)> thatboy::EncryptFileDoModal::callBackSetProcessBarRange;

	push	OFFSET ??__FcallBackSetProcessBarRange@EncryptFileDoModal@thatboy@@YAXXZ ; thatboy::EncryptFileDoModal::`dynamic atexit destructor for 'callBackSetProcessBarRange''
	call	_atexit
	pop	ecx
	ret	0
??__EcallBackSetProcessBarRange@EncryptFileDoModal@thatboy@@YAXXZ ENDP ; thatboy::EncryptFileDoModal::`dynamic initializer for 'callBackSetProcessBarRange''
text$di	ENDS
; Function compile flags: /Ogtp
; File C:\Program Files (x86)\Microsoft Visual Studio\2019\Community\VC\Tools\MSVC\14.24.28314\include\functional
;	COMDAT ??__FcallBackSetProcessBarRange@EncryptFileDoModal@thatboy@@YAXXZ
text$yd	SEGMENT
??__FcallBackSetProcessBarRange@EncryptFileDoModal@thatboy@@YAXXZ PROC ; thatboy::EncryptFileDoModal::`dynamic atexit destructor for 'callBackSetProcessBarRange'', COMDAT

; 982  :         return !_Getimpl();

	mov	ecx, DWORD PTR ?callBackSetProcessBarRange@EncryptFileDoModal@thatboy@@3V?$function@$$A6A_NHH@Z@std@@A+36
	test	ecx, ecx

; 1049 :         if (!_Empty()) { // destroy callable object and maybe delete it

	je	SHORT $LN9@dynamic

; 1050 :             _Getimpl()->_Delete_this(!_Local());

	mov	edx, DWORD PTR [ecx]
	cmp	ecx, OFFSET ?callBackSetProcessBarRange@EncryptFileDoModal@thatboy@@3V?$function@$$A6A_NHH@Z@std@@A ; thatboy::EncryptFileDoModal::callBackSetProcessBarRange
	setne	al
	movzx	eax, al
	push	eax
	call	DWORD PTR [edx+16]

; 1051 :             _Set(nullptr);

	mov	DWORD PTR ?callBackSetProcessBarRange@EncryptFileDoModal@thatboy@@3V?$function@$$A6A_NHH@Z@std@@A+36, 0
$LN9@dynamic:
	ret	0
??__FcallBackSetProcessBarRange@EncryptFileDoModal@thatboy@@YAXXZ ENDP ; thatboy::EncryptFileDoModal::`dynamic atexit destructor for 'callBackSetProcessBarRange''
text$yd	ENDS
; Function compile flags: /Ogtp
; File C:\Program Files (x86)\Microsoft Visual Studio\2019\Community\VC\Tools\MSVC\14.24.28314\include\functional
;	COMDAT ??1?$function@$$A6A_NHH@Z@std@@QAE@XZ
_TEXT	SEGMENT
??1?$function@$$A6A_NHH@Z@std@@QAE@XZ PROC		; std::function<bool __cdecl(int,int)>::~function<bool __cdecl(int,int)>, COMDAT
; _this$ = ecx

; 982  :         return !_Getimpl();

	push	esi
	mov	esi, ecx
	mov	ecx, DWORD PTR [esi+36]
	test	ecx, ecx

; 1049 :         if (!_Empty()) { // destroy callable object and maybe delete it

	je	SHORT $LN6@function

; 1050 :             _Getimpl()->_Delete_this(!_Local());

	mov	edx, DWORD PTR [ecx]

; 1080 :         return _Getimpl() == static_cast<const void*>(&_Mystorage);

	cmp	ecx, esi

; 1050 :             _Getimpl()->_Delete_this(!_Local());

	setne	al
	movzx	eax, al
	push	eax
	call	DWORD PTR [edx+16]

; 1051 :             _Set(nullptr);

	mov	DWORD PTR [esi+36], 0
$LN6@function:
	pop	esi
	ret	0
??1?$function@$$A6A_NHH@Z@std@@QAE@XZ ENDP		; std::function<bool __cdecl(int,int)>::~function<bool __cdecl(int,int)>
_TEXT	ENDS
; Function compile flags: /Ogtp
; File E:\Visual Studio Application\\ThatboyEncryptFileEncoder\ThatboyEncrypt.cpp
;	COMDAT ??__EcallBackSetProcessBarPos@EncryptFileDoModal@thatboy@@YAXXZ
text$di	SEGMENT
??__EcallBackSetProcessBarPos@EncryptFileDoModal@thatboy@@YAXXZ PROC ; thatboy::EncryptFileDoModal::`dynamic initializer for 'callBackSetProcessBarPos'', COMDAT

; 6    : std::function<bool(int)> thatboy::EncryptFileDoModal::callBackSetProcessBarPos;

	push	OFFSET ??__FcallBackSetProcessBarPos@EncryptFileDoModal@thatboy@@YAXXZ ; thatboy::EncryptFileDoModal::`dynamic atexit destructor for 'callBackSetProcessBarPos''
	call	_atexit
	pop	ecx
	ret	0
??__EcallBackSetProcessBarPos@EncryptFileDoModal@thatboy@@YAXXZ ENDP ; thatboy::EncryptFileDoModal::`dynamic initializer for 'callBackSetProcessBarPos''
text$di	ENDS
; Function compile flags: /Ogtp
; File C:\Program Files (x86)\Microsoft Visual Studio\2019\Community\VC\Tools\MSVC\14.24.28314\include\functional
;	COMDAT ??__FcallBackSetProcessBarPos@EncryptFileDoModal@thatboy@@YAXXZ
text$yd	SEGMENT
??__FcallBackSetProcessBarPos@EncryptFileDoModal@thatboy@@YAXXZ PROC ; thatboy::EncryptFileDoModal::`dynamic atexit destructor for 'callBackSetProcessBarPos'', COMDAT

; 982  :         return !_Getimpl();

	mov	ecx, DWORD PTR ?callBackSetProcessBarPos@EncryptFileDoModal@thatboy@@3V?$function@$$A6A_NH@Z@std@@A+36
	test	ecx, ecx

; 1049 :         if (!_Empty()) { // destroy callable object and maybe delete it

	je	SHORT $LN9@dynamic

; 1050 :             _Getimpl()->_Delete_this(!_Local());

	mov	edx, DWORD PTR [ecx]
	cmp	ecx, OFFSET ?callBackSetProcessBarPos@EncryptFileDoModal@thatboy@@3V?$function@$$A6A_NH@Z@std@@A ; thatboy::EncryptFileDoModal::callBackSetProcessBarPos
	setne	al
	movzx	eax, al
	push	eax
	call	DWORD PTR [edx+16]

; 1051 :             _Set(nullptr);

	mov	DWORD PTR ?callBackSetProcessBarPos@EncryptFileDoModal@thatboy@@3V?$function@$$A6A_NH@Z@std@@A+36, 0
$LN9@dynamic:
	ret	0
??__FcallBackSetProcessBarPos@EncryptFileDoModal@thatboy@@YAXXZ ENDP ; thatboy::EncryptFileDoModal::`dynamic atexit destructor for 'callBackSetProcessBarPos''
text$yd	ENDS
; Function compile flags: /Ogtp
; File C:\Program Files (x86)\Microsoft Visual Studio\2019\Community\VC\Tools\MSVC\14.24.28314\include\functional
;	COMDAT ??1?$function@$$A6A_NH@Z@std@@QAE@XZ
_TEXT	SEGMENT
??1?$function@$$A6A_NH@Z@std@@QAE@XZ PROC		; std::function<bool __cdecl(int)>::~function<bool __cdecl(int)>, COMDAT
; _this$ = ecx

; 982  :         return !_Getimpl();

	push	esi
	mov	esi, ecx
	mov	ecx, DWORD PTR [esi+36]
	test	ecx, ecx

; 1049 :         if (!_Empty()) { // destroy callable object and maybe delete it

	je	SHORT $LN6@function

; 1050 :             _Getimpl()->_Delete_this(!_Local());

	mov	edx, DWORD PTR [ecx]

; 1080 :         return _Getimpl() == static_cast<const void*>(&_Mystorage);

	cmp	ecx, esi

; 1050 :             _Getimpl()->_Delete_this(!_Local());

	setne	al
	movzx	eax, al
	push	eax
	call	DWORD PTR [edx+16]

; 1051 :             _Set(nullptr);

	mov	DWORD PTR [esi+36], 0
$LN6@function:
	pop	esi
	ret	0
??1?$function@$$A6A_NH@Z@std@@QAE@XZ ENDP		; std::function<bool __cdecl(int)>::~function<bool __cdecl(int)>
_TEXT	ENDS
; Function compile flags: /Ogtp
; File E:\Visual Studio Application\\ThatboyEncryptFileEncoder\ThatboyEncrypt.cpp
;	COMDAT ??__EcallBackStatusUpdate@EncryptFileDoModal@thatboy@@YAXXZ
text$di	SEGMENT
??__EcallBackStatusUpdate@EncryptFileDoModal@thatboy@@YAXXZ PROC ; thatboy::EncryptFileDoModal::`dynamic initializer for 'callBackStatusUpdate'', COMDAT

; 7    : std::function<bool(std::string)> thatboy::EncryptFileDoModal::callBackStatusUpdate;

	push	OFFSET ??__FcallBackStatusUpdate@EncryptFileDoModal@thatboy@@YAXXZ ; thatboy::EncryptFileDoModal::`dynamic atexit destructor for 'callBackStatusUpdate''
	call	_atexit
	pop	ecx
	ret	0
??__EcallBackStatusUpdate@EncryptFileDoModal@thatboy@@YAXXZ ENDP ; thatboy::EncryptFileDoModal::`dynamic initializer for 'callBackStatusUpdate''
text$di	ENDS
; Function compile flags: /Ogtp
; File C:\Program Files (x86)\Microsoft Visual Studio\2019\Community\VC\Tools\MSVC\14.24.28314\include\functional
;	COMDAT ??__FcallBackStatusUpdate@EncryptFileDoModal@thatboy@@YAXXZ
text$yd	SEGMENT
??__FcallBackStatusUpdate@EncryptFileDoModal@thatboy@@YAXXZ PROC ; thatboy::EncryptFileDoModal::`dynamic atexit destructor for 'callBackStatusUpdate'', COMDAT

; 982  :         return !_Getimpl();

	mov	ecx, DWORD PTR ?callBackStatusUpdate@EncryptFileDoModal@thatboy@@3V?$function@$$A6A_NV?$basic_string@DU?$char_traits@D@std@@V?$allocator@D@2@@std@@@Z@std@@A+36
	test	ecx, ecx

; 1049 :         if (!_Empty()) { // destroy callable object and maybe delete it

	je	SHORT $LN9@dynamic

; 1050 :             _Getimpl()->_Delete_this(!_Local());

	mov	edx, DWORD PTR [ecx]
	cmp	ecx, OFFSET ?callBackStatusUpdate@EncryptFileDoModal@thatboy@@3V?$function@$$A6A_NV?$basic_string@DU?$char_traits@D@std@@V?$allocator@D@2@@std@@@Z@std@@A ; thatboy::EncryptFileDoModal::callBackStatusUpdate
	setne	al
	movzx	eax, al
	push	eax
	call	DWORD PTR [edx+16]

; 1051 :             _Set(nullptr);

	mov	DWORD PTR ?callBackStatusUpdate@EncryptFileDoModal@thatboy@@3V?$function@$$A6A_NV?$basic_string@DU?$char_traits@D@std@@V?$allocator@D@2@@std@@@Z@std@@A+36, 0
$LN9@dynamic:
	ret	0
??__FcallBackStatusUpdate@EncryptFileDoModal@thatboy@@YAXXZ ENDP ; thatboy::EncryptFileDoModal::`dynamic atexit destructor for 'callBackStatusUpdate''
text$yd	ENDS
; Function compile flags: /Ogtp
; File C:\Program Files (x86)\Microsoft Visual Studio\2019\Community\VC\Tools\MSVC\14.24.28314\include\functional
;	COMDAT ??1?$function@$$A6A_NV?$basic_string@DU?$char_traits@D@std@@V?$allocator@D@2@@std@@@Z@std@@QAE@XZ
_TEXT	SEGMENT
??1?$function@$$A6A_NV?$basic_string@DU?$char_traits@D@std@@V?$allocator@D@2@@std@@@Z@std@@QAE@XZ PROC ; std::function<bool __cdecl(std::basic_string<char,std::char_traits<char>,std::allocator<char> >)>::~function<bool __cdecl(std::basic_string<char,std::char_traits<char>,std::allocator<char> >)>, COMDAT
; _this$ = ecx

; 982  :         return !_Getimpl();

	push	esi
	mov	esi, ecx
	mov	ecx, DWORD PTR [esi+36]
	test	ecx, ecx

; 1049 :         if (!_Empty()) { // destroy callable object and maybe delete it

	je	SHORT $LN6@function

; 1050 :             _Getimpl()->_Delete_this(!_Local());

	mov	edx, DWORD PTR [ecx]

; 1080 :         return _Getimpl() == static_cast<const void*>(&_Mystorage);

	cmp	ecx, esi

; 1050 :             _Getimpl()->_Delete_this(!_Local());

	setne	al
	movzx	eax, al
	push	eax
	call	DWORD PTR [edx+16]

; 1051 :             _Set(nullptr);

	mov	DWORD PTR [esi+36], 0
$LN6@function:
	pop	esi
	ret	0
??1?$function@$$A6A_NV?$basic_string@DU?$char_traits@D@std@@V?$allocator@D@2@@std@@@Z@std@@QAE@XZ ENDP ; std::function<bool __cdecl(std::basic_string<char,std::char_traits<char>,std::allocator<char> >)>::~function<bool __cdecl(std::basic_string<char,std::char_traits<char>,std::allocator<char> >)>
_TEXT	ENDS
; Function compile flags: /Ogtp
; File E:\Visual Studio Application\\ThatboyEncryptFileEncoder\ThatboyEncrypt.cpp
; File C:\Program Files (x86)\Microsoft Visual Studio\2019\Community\VC\Tools\MSVC\14.24.28314\include\xstring
; File E:\Visual Studio Application\\ThatboyEncryptFileEncoder\ThatboyEncrypt.cpp
; File C:\Program Files (x86)\Microsoft Visual Studio\2019\Community\VC\Tools\MSVC\14.24.28314\include\functional
; File E:\Visual Studio Application\\ThatboyEncryptFileEncoder\ThatboyEncrypt.cpp
; File E:\Visual Studio Application\\ThatboyEncryptFileEncoder\ThatboyCriticalChunk.cpp
; File C:\Program Files (x86)\Microsoft Visual Studio\2019\Community\VC\Tools\MSVC\14.24.28314\include\vector
; File E:\Visual Studio Application\\ThatboyEncryptFileEncoder\ThatboyCriticalChunk.cpp
; File E:\Visual Studio Application\\ThatboyEncryptFileEncoder\ThatboyEncrypt.cpp
; File C:\Program Files (x86)\Microsoft Visual Studio\2019\Community\VC\Tools\MSVC\14.24.28314\include\iosfwd
; File E:\Visual Studio Application\\ThatboyEncryptFileEncoder\ThatboyEncrypt.cpp
; File C:\Program Files (x86)\Microsoft Visual Studio\2019\Community\VC\Tools\MSVC\14.24.28314\include\iosfwd
; File E:\Visual Studio Application\\ThatboyEncryptFileEncoder\ThatboyEncrypt.cpp
; File C:\Program Files (x86)\Microsoft Visual Studio\2019\Community\VC\Tools\MSVC\14.24.28314\include\fstream
; File E:\Visual Studio Application\\ThatboyEncryptFileEncoder\ThatboyEncrypt.cpp
; File C:\Program Files (x86)\Microsoft Visual Studio\2019\Community\VC\Tools\MSVC\14.24.28314\include\xstring
; File C:\Program Files (x86)\Microsoft Visual Studio\2019\Community\VC\Tools\MSVC\14.24.28314\include\xmemory
; File C:\Program Files (x86)\Microsoft Visual Studio\2019\Community\VC\Tools\MSVC\14.24.28314\include\xstring
; File C:\Program Files (x86)\Microsoft Visual Studio\2019\Community\VC\Tools\MSVC\14.24.28314\include\xmemory
; File E:\Visual Studio Application\\ThatboyEncryptFileEncoder\ThatboyEncrypt.cpp
; File E:\Visual Studio Application\\ThatboyEncryptFileEncoder\ThatboyEncryptBase.h
; File E:\Visual Studio Application\\ThatboyEncryptFileEncoder\ThatboyEncrypt.cpp
; File E:\Visual Studio Application\\ThatboyEncryptFileEncoder\ThatboyEncryptBase.h
; File E:\Visual Studio Application\\ThatboyEncryptFileEncoder\ThatboyEncrypt.cpp
; File C:\Program Files (x86)\Microsoft Visual Studio\2019\Community\VC\Tools\MSVC\14.24.28314\include\functional
; File E:\Visual Studio Application\\ThatboyEncryptFileEncoder\ThatboyEncrypt.cpp
; File C:\Program Files (x86)\Microsoft Visual Studio\2019\Community\VC\Tools\MSVC\14.24.28314\include\functional
; File E:\Visual Studio Application\\ThatboyEncryptFileEncoder\ThatboyEncrypt.cpp
; File C:\Program Files (x86)\Microsoft Visual Studio\2019\Community\VC\Tools\MSVC\14.24.28314\include\xstring
; File E:\Visual Studio Application\\ThatboyEncryptFileEncoder\ThatboyEncrypt.cpp
; File C:\Program Files (x86)\Microsoft Visual Studio\2019\Community\VC\Tools\MSVC\14.24.28314\include\xstring
; File E:\Visual Studio Application\\ThatboyEncryptFileEncoder\ThatboyEncrypt.cpp
; File C:\Program Files (x86)\Microsoft Visual Studio\2019\Community\VC\Tools\MSVC\14.24.28314\include\xstring
; File E:\Visual Studio Application\\ThatboyEncryptFileEncoder\ThatboyEncrypt.cpp
; File C:\Program Files (x86)\Microsoft Visual Studio\2019\Community\VC\Tools\MSVC\14.24.28314\include\xstring
; File C:\Program Files (x86)\Microsoft Visual Studio\2019\Community\VC\Tools\MSVC\14.24.28314\include\xmemory
; File C:\Program Files (x86)\Microsoft Visual Studio\2019\Community\VC\Tools\MSVC\14.24.28314\include\xstring
; File C:\Program Files (x86)\Microsoft Visual Studio\2019\Community\VC\Tools\MSVC\14.24.28314\include\xmemory
; File E:\Visual Studio Application\\ThatboyEncryptFileEncoder\ThatboyEncrypt.cpp
; File C:\Program Files (x86)\Microsoft Visual Studio\2019\Community\VC\Tools\MSVC\14.24.28314\include\xstring
; File E:\Visual Studio Application\\ThatboyEncryptFileEncoder\CRC.h
; File C:\Program Files (x86)\Microsoft Visual Studio\2019\Community\VC\Tools\MSVC\14.24.28314\include\xstring
; File E:\Visual Studio Application\\ThatboyEncryptFileEncoder\CRC.h
; File E:\Visual Studio Application\\ThatboyEncryptFileEncoder\ThatboyEncrypt.cpp
; File C:\Program Files (x86)\Microsoft Visual Studio\2019\Community\VC\Tools\MSVC\14.24.28314\include\xstring
; File E:\Visual Studio Application\\ThatboyEncryptFileEncoder\ThatboyEncrypt.cpp
; File C:\Program Files (x86)\Microsoft Visual Studio\2019\Community\VC\Tools\MSVC\14.24.28314\include\xstring
; File E:\Visual Studio Application\\ThatboyEncryptFileEncoder\CRC.h
; File C:\Program Files (x86)\Microsoft Visual Studio\2019\Community\VC\Tools\MSVC\14.24.28314\include\xstring
; File E:\Visual Studio Application\\ThatboyEncryptFileEncoder\CRC.h
; File E:\Visual Studio Application\\ThatboyEncryptFileEncoder\ThatboyEncrypt.cpp
; File C:\Program Files (x86)\Microsoft Visual Studio\2019\Community\VC\Tools\MSVC\14.24.28314\include\xstring
; File E:\Visual Studio Application\\ThatboyEncryptFileEncoder\ThatboyEncrypt.cpp
; File C:\Program Files (x86)\Microsoft Visual Studio\2019\Community\VC\Tools\MSVC\14.24.28314\include\xstring
; File E:\Visual Studio Application\\ThatboyEncryptFileEncoder\ThatboyEncrypt.cpp
; File C:\Program Files (x86)\Microsoft Visual Studio\2019\Community\VC\Tools\MSVC\14.24.28314\include\xstring
; File E:\Visual Studio Application\\ThatboyEncryptFileEncoder\ThatboyEncrypt.cpp
; File C:\Program Files (x86)\Microsoft Visual Studio\2019\Community\VC\Tools\MSVC\14.24.28314\include\xstring
; File C:\Program Files (x86)\Microsoft Visual Studio\2019\Community\VC\Tools\MSVC\14.24.28314\include\functional
; File C:\Program Files (x86)\Microsoft Visual Studio\2019\Community\VC\Tools\MSVC\14.24.28314\include\xstring
; File C:\Program Files (x86)\Microsoft Visual Studio\2019\Community\VC\Tools\MSVC\14.24.28314\include\functional
; File C:\Program Files (x86)\Microsoft Visual Studio\2019\Community\VC\Tools\MSVC\14.24.28314\include\xstring
; File C:\Program Files (x86)\Microsoft Visual Studio\2019\Community\VC\Tools\MSVC\14.24.28314\include\xmemory
; File C:\Program Files (x86)\Microsoft Visual Studio\2019\Community\VC\Tools\MSVC\14.24.28314\include\xstring
; File C:\Program Files (x86)\Microsoft Visual Studio\2019\Community\VC\Tools\MSVC\14.24.28314\include\xmemory
; File E:\Visual Studio Application\\ThatboyEncryptFileEncoder\ThatboyEncrypt.cpp
; File C:\Program Files (x86)\Microsoft Visual Studio\2019\Community\VC\Tools\MSVC\14.24.28314\include\fstream
; File E:\Visual Studio Application\\ThatboyEncryptFileEncoder\ThatboyEncrypt.cpp
; File C:\Program Files (x86)\Microsoft Visual Studio\2019\Community\VC\Tools\MSVC\14.24.28314\include\fstream
; File E:\Visual Studio Application\\ThatboyEncryptFileEncoder\ThatboyEncrypt.cpp
; File C:\Program Files (x86)\Microsoft Visual Studio\2019\Community\VC\Tools\MSVC\14.24.28314\include\xstring
; File E:\Visual Studio Application\\ThatboyEncryptFileEncoder\ThatboyEncrypt.cpp
; File C:\Program Files (x86)\Microsoft Visual Studio\2019\Community\VC\Tools\MSVC\14.24.28314\include\vector
; File C:\Program Files (x86)\Microsoft Visual Studio\2019\Community\VC\Tools\MSVC\14.24.28314\include\xmemory
; File C:\Program Files (x86)\Microsoft Visual Studio\2019\Community\VC\Tools\MSVC\14.24.28314\include\vector
; File C:\Program Files (x86)\Microsoft Visual Studio\2019\Community\VC\Tools\MSVC\14.24.28314\include\xmemory
; File C:\Program Files (x86)\Microsoft Visual Studio\2019\Community\VC\Tools\MSVC\14.24.28314\include\vector
; File C:\Program Files (x86)\Microsoft Visual Studio\2019\Community\VC\Tools\MSVC\14.24.28314\include\xmemory
; File C:\Program Files (x86)\Microsoft Visual Studio\2019\Community\VC\Tools\MSVC\14.24.28314\include\vector
; File E:\Visual Studio Application\\ThatboyEncryptFileEncoder\ThatboyEncrypt.cpp
; File C:\Program Files (x86)\Microsoft Visual Studio\2019\Community\VC\Tools\MSVC\14.24.28314\include\xstring
; File E:\Visual Studio Application\\ThatboyEncryptFileEncoder\ThatboyEncrypt.cpp
; File C:\Program Files (x86)\Microsoft Visual Studio\2019\Community\VC\Tools\MSVC\14.24.28314\include\xstring
; File C:\Program Files (x86)\Microsoft Visual Studio\2019\Community\VC\Tools\MSVC\14.24.28314\include\vector
; File E:\Visual Studio Application\\ThatboyEncryptFileEncoder\ThatboyEncrypt.cpp
; File C:\Program Files (x86)\Microsoft Visual Studio\2019\Community\VC\Tools\MSVC\14.24.28314\include\vector
; File C:\Program Files (x86)\Microsoft Visual Studio\2019\Community\VC\Tools\MSVC\14.24.28314\include\xmemory
; File C:\Program Files (x86)\Microsoft Visual Studio\2019\Community\VC\Tools\MSVC\14.24.28314\include\vector
; File E:\Visual Studio Application\\ThatboyEncryptFileEncoder\ThatboyEncrypt.cpp
; File C:\Program Files (x86)\Microsoft Visual Studio\2019\Community\VC\Tools\MSVC\14.24.28314\include\vector
; File E:\Visual Studio Application\\ThatboyEncryptFileEncoder\ThatboyEncrypt.cpp
; File C:\Program Files (x86)\Microsoft Visual Studio\2019\Community\VC\Tools\MSVC\14.24.28314\include\vector
; File C:\Program Files (x86)\Microsoft Visual Studio\2019\Community\VC\Tools\MSVC\14.24.28314\include\xmemory
; File C:\Program Files (x86)\Microsoft Visual Studio\2019\Community\VC\Tools\MSVC\14.24.28314\include\vector
; File C:\Program Files (x86)\Microsoft Visual Studio\2019\Community\VC\Tools\MSVC\14.24.28314\include\xmemory
; File C:\Program Files (x86)\Microsoft Visual Studio\2019\Community\VC\Tools\MSVC\14.24.28314\include\vector
; File E:\Visual Studio Application\\ThatboyEncryptFileEncoder\ThatboyEncrypt.cpp
; File C:\Program Files (x86)\Microsoft Visual Studio\2019\Community\VC\Tools\MSVC\14.24.28314\include\xstring
; File C:\Program Files (x86)\Microsoft Visual Studio\2019\Community\VC\Tools\MSVC\14.24.28314\include\vector
; File C:\Program Files (x86)\Microsoft Visual Studio\2019\Community\VC\Tools\MSVC\14.24.28314\include\xstring
; File C:\Program Files (x86)\Microsoft Visual Studio\2019\Community\VC\Tools\MSVC\14.24.28314\include\vector
; File C:\Program Files (x86)\Microsoft Visual Studio\2019\Community\VC\Tools\MSVC\14.24.28314\include\xstring
; File C:\Program Files (x86)\Microsoft Visual Studio\2019\Community\VC\Tools\MSVC\14.24.28314\include\vector
; File C:\Program Files (x86)\Microsoft Visual Studio\2019\Community\VC\Tools\MSVC\14.24.28314\include\xutility
; File C:\Program Files (x86)\Microsoft Visual Studio\2019\Community\VC\Tools\MSVC\14.24.28314\include\xstring
; File C:\Program Files (x86)\Microsoft Visual Studio\2019\Community\VC\Tools\MSVC\14.24.28314\include\xutility
; File C:\Program Files (x86)\Microsoft Visual Studio\2019\Community\VC\Tools\MSVC\14.24.28314\include\vector
; File C:\Program Files (x86)\Microsoft Visual Studio\2019\Community\VC\Tools\MSVC\14.24.28314\include\xmemory
; File C:\Program Files (x86)\Microsoft Visual Studio\2019\Community\VC\Tools\MSVC\14.24.28314\include\vector
; File C:\Program Files (x86)\Microsoft Visual Studio\2019\Community\VC\Tools\MSVC\14.24.28314\include\xmemory
; File C:\Program Files (x86)\Microsoft Visual Studio\2019\Community\VC\Tools\MSVC\14.24.28314\include\vector
; File C:\Program Files (x86)\Microsoft Visual Studio\2019\Community\VC\Tools\MSVC\14.24.28314\include\xutility
; File E:\Visual Studio Application\\ThatboyEncryptFileEncoder\ThatboyEncrypt.cpp
; File C:\Program Files (x86)\Microsoft Visual Studio\2019\Community\VC\Tools\MSVC\14.24.28314\include\vector
; File E:\Visual Studio Application\\ThatboyEncryptFileEncoder\ThatboyEncrypt.cpp
; File C:\Program Files (x86)\Microsoft Visual Studio\2019\Community\VC\Tools\MSVC\14.24.28314\include\vector
; File E:\Visual Studio Application\\ThatboyEncryptFileEncoder\ThatboyEncrypt.cpp
; File C:\Program Files (x86)\Microsoft Visual Studio\2019\Community\VC\Tools\MSVC\14.24.28314\include\vector
; File E:\Visual Studio Application\\ThatboyEncryptFileEncoder\ThatboyEncrypt.cpp
; File C:\Program Files (x86)\Microsoft Visual Studio\2019\Community\VC\Tools\MSVC\14.24.28314\include\vector
; File E:\Visual Studio Application\\ThatboyEncryptFileEncoder\ThatboyEncrypt.cpp
; File C:\Program Files (x86)\Microsoft Visual Studio\2019\Community\VC\Tools\MSVC\14.24.28314\include\vector
; File E:\Visual Studio Application\\ThatboyEncryptFileEncoder\ThatboyEncrypt.cpp
; File C:\Program Files (x86)\Microsoft Visual Studio\2019\Community\VC\Tools\MSVC\14.24.28314\include\functional
; File E:\Visual Studio Application\\ThatboyEncryptFileEncoder\ThatboyEncrypt.cpp
; File C:\Program Files (x86)\Microsoft Visual Studio\2019\Community\VC\Tools\MSVC\14.24.28314\include\functional
; File E:\Visual Studio Application\\ThatboyEncryptFileEncoder\ThatboyEncrypt.cpp
; File C:\Program Files (x86)\Microsoft Visual Studio\2019\Community\VC\Tools\MSVC\14.24.28314\include\xstring
; File C:\Program Files (x86)\Microsoft Visual Studio\2019\Community\VC\Tools\MSVC\14.24.28314\include\xmemory
; File C:\Program Files (x86)\Microsoft Visual Studio\2019\Community\VC\Tools\MSVC\14.24.28314\include\xstring
; File C:\Program Files (x86)\Microsoft Visual Studio\2019\Community\VC\Tools\MSVC\14.24.28314\include\xmemory
; File E:\Visual Studio Application\\ThatboyEncryptFileEncoder\ThatboyEncrypt.cpp
; File C:\Program Files (x86)\Microsoft Visual Studio\2019\Community\VC\Tools\MSVC\14.24.28314\include\xstring
; File C:\Program Files (x86)\Microsoft Visual Studio\2019\Community\VC\Tools\MSVC\14.24.28314\include\xmemory
; File C:\Program Files (x86)\Microsoft Visual Studio\2019\Community\VC\Tools\MSVC\14.24.28314\include\xstring
; File C:\Program Files (x86)\Microsoft Visual Studio\2019\Community\VC\Tools\MSVC\14.24.28314\include\xmemory
; File E:\Visual Studio Application\\ThatboyEncryptFileEncoder\ThatboyEncrypt.cpp
; File C:\Program Files (x86)\Microsoft Visual Studio\2019\Community\VC\Tools\MSVC\14.24.28314\include\functional
; File E:\Visual Studio Application\\ThatboyEncryptFileEncoder\ThatboyEncrypt.cpp
; File C:\Program Files (x86)\Microsoft Visual Studio\2019\Community\VC\Tools\MSVC\14.24.28314\include\functional
; File E:\Visual Studio Application\\ThatboyEncryptFileEncoder\ThatboyEncrypt.cpp
; File C:\Program Files (x86)\Microsoft Visual Studio\2019\Community\VC\Tools\MSVC\14.24.28314\include\functional
; File E:\Visual Studio Application\\ThatboyEncryptFileEncoder\ThatboyEncrypt.cpp
; File C:\Program Files (x86)\Microsoft Visual Studio\2019\Community\VC\Tools\MSVC\14.24.28314\include\functional
; File E:\Visual Studio Application\\ThatboyEncryptFileEncoder\ThatboyEncrypt.cpp
; File C:\Program Files (x86)\Microsoft Visual Studio\2019\Community\VC\Tools\MSVC\14.24.28314\include\xstring
; File E:\Visual Studio Application\\ThatboyEncryptFileEncoder\ThatboyEncrypt.cpp
; File C:\Program Files (x86)\Microsoft Visual Studio\2019\Community\VC\Tools\MSVC\14.24.28314\include\fstream
; File E:\Visual Studio Application\\ThatboyEncryptFileEncoder\ThatboyEncrypt.cpp
; File C:\Program Files (x86)\Microsoft Visual Studio\2019\Community\VC\Tools\MSVC\14.24.28314\include\fstream
; File E:\Visual Studio Application\\ThatboyEncryptFileEncoder\ThatboyEncrypt.cpp
; File C:\Program Files (x86)\Microsoft Visual Studio\2019\Community\VC\Tools\MSVC\14.24.28314\include\vector
; File C:\Program Files (x86)\Microsoft Visual Studio\2019\Community\VC\Tools\MSVC\14.24.28314\include\xmemory
; File C:\Program Files (x86)\Microsoft Visual Studio\2019\Community\VC\Tools\MSVC\14.24.28314\include\vector
; File C:\Program Files (x86)\Microsoft Visual Studio\2019\Community\VC\Tools\MSVC\14.24.28314\include\xmemory
; File C:\Program Files (x86)\Microsoft Visual Studio\2019\Community\VC\Tools\MSVC\14.24.28314\include\vector
; File C:\Program Files (x86)\Microsoft Visual Studio\2019\Community\VC\Tools\MSVC\14.24.28314\include\fstream
; File C:\Program Files (x86)\Microsoft Visual Studio\2019\Community\VC\Tools\MSVC\14.24.28314\include\vector
; File C:\Program Files (x86)\Microsoft Visual Studio\2019\Community\VC\Tools\MSVC\14.24.28314\include\xmemory
; File C:\Program Files (x86)\Microsoft Visual Studio\2019\Community\VC\Tools\MSVC\14.24.28314\include\vector
; File C:\Program Files (x86)\Microsoft Visual Studio\2019\Community\VC\Tools\MSVC\14.24.28314\include\xmemory
; File C:\Program Files (x86)\Microsoft Visual Studio\2019\Community\VC\Tools\MSVC\14.24.28314\include\vector
; File C:\Program Files (x86)\Microsoft Visual Studio\2019\Community\VC\Tools\MSVC\14.24.28314\include\xstring
; File C:\Program Files (x86)\Microsoft Visual Studio\2019\Community\VC\Tools\MSVC\14.24.28314\include\xmemory
; File C:\Program Files (x86)\Microsoft Visual Studio\2019\Community\VC\Tools\MSVC\14.24.28314\include\xstring
; File C:\Program Files (x86)\Microsoft Visual Studio\2019\Community\VC\Tools\MSVC\14.24.28314\include\xmemory
; File E:\Visual Studio Application\\ThatboyEncryptFileEncoder\ThatboyEncrypt.cpp
; File C:\Program Files (x86)\Microsoft Visual Studio\2019\Community\VC\Tools\MSVC\14.24.28314\include\xstring
; File E:\Visual Studio Application\\ThatboyEncryptFileEncoder\ThatboyEncrypt.cpp
;	COMDAT ?Encrypt@EncryptFileDoModal@thatboy@@YA?AW4EncryptErrorCode@12@V?$basic_string@DU?$char_traits@D@std@@V?$allocator@D@2@@std@@000IW4CRC32_TYPE@CRC32@2@_N@Z
_TEXT	SEGMENT
_ifs$ = -2404						; size = 184
_ofs$ = -2220						; size = 176
_tendChunk$ = -2044					; size = 16
$T22 = -2028						; size = 24
_fileContentBuff$ = -2016				; size = 12
_tdatChunk$ = -2004					; size = 28
tv9562 = -1976						; size = 4
tv9374 = -1976						; size = 4
_<_Args_0>$ = -1976					; size = 4
_pwdCRC$1$ = -1972					; size = 4
tv9535 = -1972						; size = 4
_chunkDataSize$GSCopy$1$ = -1968			; size = 4
$T165 = -1961						; size = 1
__Ptr$1$ = -1960					; size = 4
__Count$1$ = -1960					; size = 4
tv9376 = -1960						; size = 4
_crcType$1$ = -1956					; size = 4
__Result$2$ = -1956					; size = 4
__Count$1$ = -1956					; size = 4
_<_Args_0>$ = -1956					; size = 4
_<_Args_0>$ = -1956					; size = 4
_i$1$ = -1952						; size = 4
tv9372 = -1952						; size = 4
_<_Args_1>$ = -1952					; size = 4
_<_Args_0>$ = -1952					; size = 4
_crc$166 = -1948					; size = 1048
_crc$167 = -1948					; size = 1048
_ifs$168 = -1084					; size = 184
_signature$ = -900					; size = 320
_thdrChunk$ = -580					; size = 20
$T77 = -560						; size = 24
$T21 = -560						; size = 24
_chunkBuff$169 = -560					; size = 24
$T50 = -560						; size = 24
_fileNameNoExt$ = -536					; size = 260
_ext$ = -276						; size = 260
__$ArrayPad$ = -16					; size = 4
__$EHRec$ = -12						; size = 12
_file$ = 8						; size = 24
_encryptFileName$ = 32					; size = 24
_password$ = 56						; size = 24
_deviceSerial$ = 80					; size = 24
_flushChunkWrite$ = 104					; size = 1
?Encrypt@EncryptFileDoModal@thatboy@@YA?AW4EncryptErrorCode@12@V?$basic_string@DU?$char_traits@D@std@@V?$allocator@D@2@@std@@000IW4CRC32_TYPE@CRC32@2@_N@Z PROC ; thatboy::EncryptFileDoModal::Encrypt, COMDAT
; _chunkDataSize$ = ecx
; _crcType$ = edx

; 19   : {

	push	ebp
	mov	ebp, esp
	push	-1
	push	__ehhandler$?Encrypt@EncryptFileDoModal@thatboy@@YA?AW4EncryptErrorCode@12@V?$basic_string@DU?$char_traits@D@std@@V?$allocator@D@2@@std@@000IW4CRC32_TYPE@CRC32@2@_N@Z
	mov	eax, DWORD PTR fs:0
	push	eax
	sub	esp, 2392				; 00000958H
	mov	eax, DWORD PTR ___security_cookie
	xor	eax, ebp
	mov	DWORD PTR __$ArrayPad$[ebp], eax
	push	esi
	push	edi
	push	eax
	lea	eax, DWORD PTR __$EHRec$[ebp]
	mov	DWORD PTR fs:0, eax
	mov	DWORD PTR _crcType$1$[ebp], edx
	mov	edi, ecx
	mov	DWORD PTR _chunkDataSize$GSCopy$1$[ebp], edi
	mov	DWORD PTR __$EHRec$[ebp+8], 3

; 25   : 	callBackStatusUpdate("...");

	cmp	DWORD PTR ?callBackStatusUpdate@EncryptFileDoModal@thatboy@@3V?$function@$$A6A_NV?$basic_string@DU?$char_traits@D@std@@V?$allocator@D@2@@std@@@Z@std@@A+36, 0
	je	SHORT $LN18@Encrypt
	sub	esp, 24					; 00000018H
	mov	ecx, esp
; File C:\Program Files (x86)\Microsoft Visual Studio\2019\Community\VC\Tools\MSVC\14.24.28314\include\xstring

; 2337 :         assign(_Ptr);

	push	OFFSET ??_C@_0O@DELBPIJA@?$LM?S?C?$NM?W?$LM?$LB?$LI?V?P?4?4?4@

; 4178 :         _Mypair._Myval2._Mysize = 0;

	mov	DWORD PTR [ecx+16], 0

; 4179 :         _Mypair._Myval2._Myres  = _BUF_SIZE - 1;

	mov	DWORD PTR [ecx+20], 15			; 0000000fH

; 4180 :         // the _Traits::assign is last so the codegen doesn't think the char
; 4181 :         // write can alias this
; 4182 :         _Traits::assign(_Mypair._Myval2._Bx._Buf[0], _Elem());

	mov	BYTE PTR [ecx], 0

; 2337 :         assign(_Ptr);

	call	?assign@?$basic_string@DU?$char_traits@D@std@@V?$allocator@D@2@@std@@QAEAAV12@QBD@Z ; std::basic_string<char,std::char_traits<char>,std::allocator<char> >::assign
; File E:\Visual Studio Application\\ThatboyEncryptFileEncoder\ThatboyEncrypt.cpp

; 25   : 	callBackStatusUpdate("...");

	call	??R?$_Func_class@_NV?$basic_string@DU?$char_traits@D@std@@V?$allocator@D@2@@std@@@std@@QBE_NV?$basic_string@DU?$char_traits@D@std@@V?$allocator@D@2@@1@@Z ; std::_Func_class<bool,std::basic_string<char,std::char_traits<char>,std::allocator<char> > >::operator()
	test	al, al
	je	SHORT $LN70@Encrypt
$LN18@Encrypt:

; 26   : 	callBackSetProcessBarPos(0);

	mov	ecx, DWORD PTR ?callBackSetProcessBarPos@EncryptFileDoModal@thatboy@@3V?$function@$$A6A_NH@Z@std@@A+36
	test	ecx, ecx
	je	SHORT $LN20@Encrypt
	mov	DWORD PTR _<_Args_0>$[ebp], 0
; File C:\Program Files (x86)\Microsoft Visual Studio\2019\Community\VC\Tools\MSVC\14.24.28314\include\functional

; 969  :         return _Impl->_Do_call(_STD forward<_Types>(_Args)...);

	lea	edx, DWORD PTR _<_Args_0>$[ebp]
	mov	eax, DWORD PTR [ecx]
	push	edx
	mov	eax, DWORD PTR [eax+8]
	call	eax
; File E:\Visual Studio Application\\ThatboyEncryptFileEncoder\ThatboyEncrypt.cpp

; 26   : 	callBackSetProcessBarPos(0);

	test	al, al
	jne	SHORT $LN20@Encrypt
$LN70@Encrypt:
	mov	edi, 1
	jmp	$LN2763@Encrypt
$LN20@Encrypt:
	xor	eax, eax
	mov	DWORD PTR _signature$[ebp+16], 0
	push	260					; 00000104H
	push	eax
	mov	WORD PTR _signature$[ebp+57], ax
	xorps	xmm0, xmm0
	mov	BYTE PTR _signature$[ebp+59], al
	lea	eax, DWORD PTR _signature$[ebp+60]
	push	eax
	movups	XMMWORD PTR _signature$[ebp+24], xmm0
	movups	XMMWORD PTR _signature$[ebp+40], xmm0
	call	_memset
	add	esp, 12					; 0000000cH
; File E:\Visual Studio Application\\ThatboyEncryptFileEncoder\ThatboyCriticalChunk.cpp

; 8    : {

	mov	DWORD PTR _thdrChunk$[ebp], OFFSET ??_7THDR_Chunk@thatboy@@6B@

; 9    : 	Chunk::dataLength = sizeof(crcEncodeType) + sizeof(reserve);

	mov	DWORD PTR _thdrChunk$[ebp+4], 4

; 10   : 	Chunk::typeCode = hdrChunkType;

	mov	DWORD PTR _thdrChunk$[ebp+8], 1380206676 ; 52444854H

; 11   : 	Chunk::crcCode = 0;

	mov	DWORD PTR _thdrChunk$[ebp+12], 0

; 12   : 	crcEncodeType = static_cast<BYTE>(CRC32::CRC32_TYPE::eMPEG2);

	mov	DWORD PTR _thdrChunk$[ebp+16], 10	; 0000000aH

; 59   : {

	mov	DWORD PTR _tendChunk$[ebp], OFFSET ??_7TEND_Chunk@thatboy@@6B@

; 60   : 	Chunk::dataLength = 0;

	mov	DWORD PTR _tendChunk$[ebp+4], 0

; 61   : 	Chunk::typeCode = endChunkType;

	mov	DWORD PTR _tendChunk$[ebp+8], 1145980244 ; 444e4554H

; 62   : 	Chunk::crcCode = 0;

	mov	DWORD PTR _tendChunk$[ebp+12], 0

; 85   : {

	mov	DWORD PTR _tdatChunk$[ebp], OFFSET ??_7TDAT_Chunk@thatboy@@6B@
; File C:\Program Files (x86)\Microsoft Visual Studio\2019\Community\VC\Tools\MSVC\14.24.28314\include\vector

; 374  :     _Vector_val() noexcept : _Myfirst(), _Mylast(), _Myend() {}

	mov	DWORD PTR _tdatChunk$[ebp+16], 0
	mov	DWORD PTR _tdatChunk$[ebp+20], 0
	mov	DWORD PTR _tdatChunk$[ebp+24], 0
; File E:\Visual Studio Application\\ThatboyEncryptFileEncoder\ThatboyCriticalChunk.cpp

; 86   : 	Chunk::dataLength = 0;

	mov	DWORD PTR _tdatChunk$[ebp+4], 0

; 87   : 	Chunk::typeCode = dataChunkType;

	mov	DWORD PTR _tdatChunk$[ebp+8], 1413563476 ; 54414454H

; 88   : 	Chunk::crcCode = 0;

	mov	DWORD PTR _tdatChunk$[ebp+12], 0
; File E:\Visual Studio Application\\ThatboyEncryptFileEncoder\ThatboyEncrypt.cpp

; 35   : 	size_t fileSize = [](std::string file) {

	lea	eax, DWORD PTR _file$[ebp]
	mov	BYTE PTR __$EHRec$[ebp+8], 4
	push	eax
	lea	ecx, DWORD PTR $T21[ebp]
	mov	DWORD PTR _pwdCRC$1$[ebp], 0
	call	??0?$basic_string@DU?$char_traits@D@std@@V?$allocator@D@2@@std@@QAE@ABV01@@Z ; std::basic_string<char,std::char_traits<char>,std::allocator<char> >::basic_string<char,std::char_traits<char>,std::allocator<char> >

; 36   : 		ifstream ifs(file, ios::binary);

	push	ecx
	push	64					; 00000040H
	push	ecx
	lea	eax, DWORD PTR $T21[ebp]
	mov	BYTE PTR __$EHRec$[ebp+8], 5
	push	eax
	lea	ecx, DWORD PTR _ifs$168[ebp]
	call	??0?$basic_ifstream@DU?$char_traits@D@std@@@std@@QAE@ABV?$basic_string@DU?$char_traits@D@std@@V?$allocator@D@2@@1@HH@Z ; std::basic_ifstream<char,std::char_traits<char> >::basic_ifstream<char,std::char_traits<char> >

; 37   : 		size_t fileSize;
; 38   : 		ifs.seekg(0, ios::end);

	push	2
	push	0
	push	0
	lea	ecx, DWORD PTR _ifs$168[ebp]
	mov	BYTE PTR __$EHRec$[ebp+8], 6
	call	DWORD PTR __imp_?seekg@?$basic_istream@DU?$char_traits@D@std@@@std@@QAEAAV12@_JH@Z

; 39   : 		fileSize = static_cast<size_t>(ifs.tellg());

	lea	eax, DWORD PTR $T22[ebp]
	push	eax
	lea	ecx, DWORD PTR _ifs$168[ebp]
	call	DWORD PTR __imp_?tellg@?$basic_istream@DU?$char_traits@D@std@@@std@@QAE?AV?$fpos@U_Mbstatet@@@2@XZ

; 40   : 		ifs.seekg(0);

	sub	esp, 24					; 00000018H
	lea	ecx, DWORD PTR _ifs$168[ebp]
	xorps	xmm0, xmm0
; File C:\Program Files (x86)\Microsoft Visual Studio\2019\Community\VC\Tools\MSVC\14.24.28314\include\iosfwd

; 70   :         return _Myoff + _Fpos;

	mov	esi, DWORD PTR [eax+8]
	add	esi, DWORD PTR [eax]
; File E:\Visual Studio Application\\ThatboyEncryptFileEncoder\ThatboyEncrypt.cpp

; 40   : 		ifs.seekg(0);

	mov	eax, esp
; File C:\Program Files (x86)\Microsoft Visual Studio\2019\Community\VC\Tools\MSVC\14.24.28314\include\iosfwd

; 55   :     /* implicit */ fpos(streamoff _Off = 0) : _Myoff(_Off), _Fpos(0), _Mystate() {}

	mov	DWORD PTR [eax], 0
	mov	DWORD PTR [eax+4], 0
	mov	DWORD PTR [eax+8], 0
	mov	DWORD PTR [eax+12], 0
	movq	QWORD PTR [eax+16], xmm0
; File E:\Visual Studio Application\\ThatboyEncryptFileEncoder\ThatboyEncrypt.cpp

; 40   : 		ifs.seekg(0);

	call	DWORD PTR __imp_?seekg@?$basic_istream@DU?$char_traits@D@std@@@std@@QAEAAV12@V?$fpos@U_Mbstatet@@@2@@Z

; 41   : 		ifs.close();

	lea	ecx, DWORD PTR _ifs$168[ebp]
	call	?close@?$basic_ifstream@DU?$char_traits@D@std@@@std@@QAEXXZ ; std::basic_ifstream<char,std::char_traits<char> >::close
; File C:\Program Files (x86)\Microsoft Visual Studio\2019\Community\VC\Tools\MSVC\14.24.28314\include\fstream

; 948  :     virtual __CLR_OR_THIS_CALL ~basic_ifstream() noexcept {}

	mov	eax, DWORD PTR _ifs$168[ebp]
	mov	eax, DWORD PTR [eax+4]
	mov	DWORD PTR _ifs$168[ebp+eax], OFFSET ??_7?$basic_ifstream@DU?$char_traits@D@std@@@std@@6B@
	mov	eax, DWORD PTR _ifs$168[ebp]
	mov	ecx, DWORD PTR [eax+4]
	lea	eax, DWORD PTR [ecx-112]
	mov	DWORD PTR _ifs$168[ebp+ecx-4], eax
	lea	ecx, DWORD PTR _ifs$168[ebp+16]
	call	??1?$basic_filebuf@DU?$char_traits@D@std@@@std@@UAE@XZ ; std::basic_filebuf<char,std::char_traits<char> >::~basic_filebuf<char,std::char_traits<char> >
	lea	ecx, DWORD PTR _ifs$168[ebp+24]
	call	DWORD PTR __imp_??1?$basic_istream@DU?$char_traits@D@std@@@std@@UAE@XZ
	lea	ecx, DWORD PTR _ifs$168[ebp+112]
	call	DWORD PTR __imp_??1?$basic_ios@DU?$char_traits@D@std@@@std@@UAE@XZ
; File E:\Visual Studio Application\\ThatboyEncryptFileEncoder\ThatboyEncrypt.cpp

; 42   : 		return fileSize;

	mov	BYTE PTR __$EHRec$[ebp+8], 4
; File C:\Program Files (x86)\Microsoft Visual Studio\2019\Community\VC\Tools\MSVC\14.24.28314\include\xstring

; 2161 :         return _BUF_SIZE <= _Myres;

	mov	edx, DWORD PTR $T21[ebp+20]
	cmp	edx, 16					; 00000010H

; 4187 :         if (_Mypair._Myval2._Large_string_engaged()) {

	jb	SHORT $LN383@Encrypt
; File C:\Program Files (x86)\Microsoft Visual Studio\2019\Community\VC\Tools\MSVC\14.24.28314\include\xmemory

; 780  :         _Deallocate<_New_alignof<_Ty>>(_Ptr, sizeof(_Ty) * _Count);

	mov	ecx, DWORD PTR $T21[ebp]
; File C:\Program Files (x86)\Microsoft Visual Studio\2019\Community\VC\Tools\MSVC\14.24.28314\include\xstring

; 4191 :             _Al.deallocate(_Ptr, _Mypair._Myval2._Myres + 1);

	inc	edx
; File C:\Program Files (x86)\Microsoft Visual Studio\2019\Community\VC\Tools\MSVC\14.24.28314\include\xmemory

; 780  :         _Deallocate<_New_alignof<_Ty>>(_Ptr, sizeof(_Ty) * _Count);

	mov	eax, ecx

; 190  :     if (_Bytes >= _Big_allocation_threshold) { // boost the alignment of big allocations to help autovectorization

	cmp	edx, 4096				; 00001000H
	jb	SHORT $LN393@Encrypt

; 111  :     const uintptr_t _Ptr_container   = _Ptr_user[-1];

	mov	ecx, DWORD PTR [ecx-4]
	add	edx, 35					; 00000023H
	sub	eax, ecx

; 112  : 
; 113  :     // If the following asserts, it likely means that we are performing
; 114  :     // an aligned delete on memory coming from an unaligned allocation.
; 115  :     _STL_ASSERT(_Ptr_user[-2] == _Big_allocation_sentinel, "invalid argument");
; 116  : 
; 117  :     // Extra paranoia on aligned allocation/deallocation; ensure _Ptr_container is
; 118  :     // in range [_Min_back_shift, _Non_user_size]
; 119  : #ifdef _DEBUG
; 120  :     constexpr uintptr_t _Min_back_shift = 2 * sizeof(void*);
; 121  : #else // ^^^ _DEBUG ^^^ // vvv !_DEBUG vvv
; 122  :     constexpr uintptr_t _Min_back_shift = sizeof(void*);
; 123  : #endif // _DEBUG
; 124  :     const uintptr_t _Back_shift = reinterpret_cast<uintptr_t>(_Ptr) - _Ptr_container;
; 125  :     _STL_VERIFY(_Back_shift >= _Min_back_shift && _Back_shift <= _Non_user_size, "invalid argument");

	add	eax, -4					; fffffffcH
	cmp	eax, 31					; 0000001fH
	jbe	SHORT $LN393@Encrypt
	call	DWORD PTR __imp___invalid_parameter_noinfo_noreturn
$LN393@Encrypt:

; 195  :     ::operator delete(_Ptr, _Bytes);

	push	edx
	push	ecx
	call	??3@YAXPAXI@Z				; operator delete
	add	esp, 8
$LN383@Encrypt:
; File E:\Visual Studio Application\\ThatboyEncryptFileEncoder\ThatboyEncrypt.cpp

; 45   : 	signature.attributeMark = static_cast<BYTE>(password.empty() ? SignatureDomain::ENCRYPT_ATTRIBUTE::NORMAL : SignatureDomain::ENCRYPT_ATTRIBUTE::PASSWORD)

	mov	ecx, DWORD PTR _deviceSerial$[ebp+16]
	neg	ecx

; 46   : 		| static_cast<BYTE>(deviceSerial.empty() ? SignatureDomain::ENCRYPT_ATTRIBUTE::NORMAL : SignatureDomain::ENCRYPT_ATTRIBUTE::DEVICEBIND);
; 47   : 	signature.magicNumber = makeDWORD('T', 'E', 'F', 255);
; 48   : 	signature.oriFileSize = fileSize;

	mov	DWORD PTR _signature$[ebp+12], esi
	mov	DWORD PTR _signature$[ebp], -12171948	; ff464554H
	sbb	cl, cl

; 49   : 	signature.version = makeDWORD(0, 0, 0, 1);

	mov	DWORD PTR _signature$[ebp+4], 16777216	; 01000000H
	and	cl, 2
	cmp	DWORD PTR _password$[ebp+16], 0
	setne	al

; 50   : 	signature.chunkCount = (fileSize - 1) / chunkDataSize + 1;

	xor	edx, edx
	or	cl, al
	lea	eax, DWORD PTR [esi-1]
	div	edi

; 51   : 	signature.RXORCode = makeDWORD(rand() % 256, rand() % 256, rand() % 256, rand() % 256);

	mov	esi, DWORD PTR __imp__rand
	inc	eax
	mov	BYTE PTR _signature$[ebp+56], cl
	mov	DWORD PTR _signature$[ebp+8], eax
	call	esi
	and	eax, -2147483393			; 800000ffH
	jns	SHORT $LN2856@Encrypt
	dec	eax
	or	eax, -256				; ffffff00H
	inc	eax
$LN2856@Encrypt:
	mov	DWORD PTR tv9372[ebp], eax
	call	esi
	and	eax, -2147483393			; 800000ffH
	jns	SHORT $LN2857@Encrypt
	dec	eax
	or	eax, -256				; ffffff00H
	inc	eax
$LN2857@Encrypt:
	mov	DWORD PTR tv9374[ebp], eax
	call	esi
	and	eax, -2147483393			; 800000ffH
	jns	SHORT $LN2858@Encrypt
	dec	eax
	or	eax, -256				; ffffff00H
	inc	eax
$LN2858@Encrypt:
	mov	DWORD PTR tv9376[ebp], eax
	call	esi
	and	eax, -2147483393			; 800000ffH
	jns	SHORT $LN2859@Encrypt
	dec	eax
	or	eax, -256				; ffffff00H
	inc	eax
$LN2859@Encrypt:
; File E:\Visual Studio Application\\ThatboyEncryptFileEncoder\ThatboyEncryptBase.h

; 28   : 		return (((WORD)(a)) | ((WORD)(b) << 8));

	mov	ecx, DWORD PTR tv9372[ebp]
	movzx	edx, cl
	mov	ecx, DWORD PTR tv9374[ebp]
	shl	edx, 8
	movzx	ecx, cl

; 33   : 		return (((DWORD)(a)) | ((DWORD)(b) << 16));

	or	edx, ecx

; 28   : 		return (((WORD)(a)) | ((WORD)(b) << 8));

	movzx	eax, al
	mov	ecx, DWORD PTR tv9376[ebp]

; 33   : 		return (((DWORD)(a)) | ((DWORD)(b) << 16));

	shl	edx, 8

; 28   : 		return (((WORD)(a)) | ((WORD)(b) << 8));

	movzx	ecx, cl

; 33   : 		return (((DWORD)(a)) | ((DWORD)(b) << 16));

	or	edx, ecx
; File E:\Visual Studio Application\\ThatboyEncryptFileEncoder\ThatboyEncrypt.cpp

; 58   : 	callBackSetProcessBarRange(0, chunkCountToProcessPos(signature.chunkCount));

	mov	ecx, DWORD PTR ?callBackSetProcessBarRange@EncryptFileDoModal@thatboy@@3V?$function@$$A6A_NHH@Z@std@@A+36
; File E:\Visual Studio Application\\ThatboyEncryptFileEncoder\ThatboyEncryptBase.h

; 33   : 		return (((DWORD)(a)) | ((DWORD)(b) << 16));

	shl	edx, 8
	or	edx, eax
; File E:\Visual Studio Application\\ThatboyEncryptFileEncoder\ThatboyEncrypt.cpp

; 51   : 	signature.RXORCode = makeDWORD(rand() % 256, rand() % 256, rand() % 256, rand() % 256);

	mov	DWORD PTR _signature$[ebp+20], edx

; 58   : 	callBackSetProcessBarRange(0, chunkCountToProcessPos(signature.chunkCount));

	test	ecx, ecx
	je	SHORT $LN22@Encrypt

; 55   : 		return x * 100 / signature.chunkCount;

	imul	eax, DWORD PTR _signature$[ebp+8], 100
	xor	edx, edx

; 58   : 	callBackSetProcessBarRange(0, chunkCountToProcessPos(signature.chunkCount));

	mov	DWORD PTR _<_Args_0>$[ebp], 0

; 55   : 		return x * 100 / signature.chunkCount;

	div	DWORD PTR _signature$[ebp+8]
; File C:\Program Files (x86)\Microsoft Visual Studio\2019\Community\VC\Tools\MSVC\14.24.28314\include\functional

; 969  :         return _Impl->_Do_call(_STD forward<_Types>(_Args)...);

	lea	edx, DWORD PTR _<_Args_1>$[ebp]
; File E:\Visual Studio Application\\ThatboyEncryptFileEncoder\ThatboyEncrypt.cpp

; 58   : 	callBackSetProcessBarRange(0, chunkCountToProcessPos(signature.chunkCount));

	mov	DWORD PTR _<_Args_1>$[ebp], eax
; File C:\Program Files (x86)\Microsoft Visual Studio\2019\Community\VC\Tools\MSVC\14.24.28314\include\functional

; 969  :         return _Impl->_Do_call(_STD forward<_Types>(_Args)...);

	mov	eax, DWORD PTR [ecx]
	push	edx
	lea	edx, DWORD PTR _<_Args_0>$[ebp]
	push	edx
	mov	eax, DWORD PTR [eax+8]
	call	eax
; File E:\Visual Studio Application\\ThatboyEncryptFileEncoder\ThatboyEncrypt.cpp

; 58   : 	callBackSetProcessBarRange(0, chunkCountToProcessPos(signature.chunkCount));

	test	al, al
	je	$LN75@Encrypt
$LN22@Encrypt:

; 59   : 
; 60   : 	// MD5 CRC
; 61   : 	if (signature.attributeMark & (BYTE)SignatureDomain::ENCRYPT_ATTRIBUTE::PASSWORD) {

	mov	al, BYTE PTR _signature$[ebp+56]
	test	al, 1
	je	$LN23@Encrypt

; 62   : 		callBackStatusUpdate("...");

	cmp	DWORD PTR ?callBackStatusUpdate@EncryptFileDoModal@thatboy@@3V?$function@$$A6A_NV?$basic_string@DU?$char_traits@D@std@@V?$allocator@D@2@@std@@@Z@std@@A+36, 0
	je	SHORT $LN25@Encrypt
	sub	esp, 24					; 00000018H
	mov	ecx, esp
; File C:\Program Files (x86)\Microsoft Visual Studio\2019\Community\VC\Tools\MSVC\14.24.28314\include\xstring

; 2337 :         assign(_Ptr);

	push	OFFSET ??_C@_0BE@DKIOJLDL@?I?z?$LD?I?C?$NM?B?k?U?$KK?R?$KK?P?E?O?$KC?4?4?4@

; 4178 :         _Mypair._Myval2._Mysize = 0;

	mov	DWORD PTR [ecx+16], 0

; 4179 :         _Mypair._Myval2._Myres  = _BUF_SIZE - 1;

	mov	DWORD PTR [ecx+20], 15			; 0000000fH

; 4180 :         // the _Traits::assign is last so the codegen doesn't think the char
; 4181 :         // write can alias this
; 4182 :         _Traits::assign(_Mypair._Myval2._Bx._Buf[0], _Elem());

	mov	BYTE PTR [ecx], 0

; 2337 :         assign(_Ptr);

	call	?assign@?$basic_string@DU?$char_traits@D@std@@V?$allocator@D@2@@std@@QAEAAV12@QBD@Z ; std::basic_string<char,std::char_traits<char>,std::allocator<char> >::assign
; File E:\Visual Studio Application\\ThatboyEncryptFileEncoder\ThatboyEncrypt.cpp

; 62   : 		callBackStatusUpdate("...");

	call	??R?$_Func_class@_NV?$basic_string@DU?$char_traits@D@std@@V?$allocator@D@2@@std@@@std@@QBE_NV?$basic_string@DU?$char_traits@D@std@@V?$allocator@D@2@@1@@Z ; std::_Func_class<bool,std::basic_string<char,std::char_traits<char>,std::allocator<char> > >::operator()
	test	al, al
	je	$LN75@Encrypt
$LN25@Encrypt:

; 63   : 		_memccpy(signature.passwordMD5, md5(password).c_str(), '\0', 32);

	push	32					; 00000020H
	push	0
	sub	esp, 24					; 00000018H
	lea	eax, DWORD PTR _password$[ebp]
	mov	ecx, esp
	push	eax
	call	??0?$basic_string@DU?$char_traits@D@std@@V?$allocator@D@2@@std@@QAE@ABV01@@Z ; std::basic_string<char,std::char_traits<char>,std::allocator<char> >::basic_string<char,std::char_traits<char>,std::allocator<char> >
	lea	ecx, DWORD PTR $T50[ebp]
	call	?md5@thatboy@@YA?AV?$basic_string@DU?$char_traits@D@std@@V?$allocator@D@2@@std@@V23@@Z ; thatboy::md5
	add	esp, 24					; 00000018H
; File C:\Program Files (x86)\Microsoft Visual Studio\2019\Community\VC\Tools\MSVC\14.24.28314\include\xstring

; 2161 :         return _BUF_SIZE <= _Myres;

	cmp	DWORD PTR [eax+20], 16			; 00000010H

; 2153 :         if (_Large_string_engaged()) {

	jb	SHORT $LN727@Encrypt

; 2154 :             _Result = _Unfancy(_Bx._Ptr);

	mov	eax, DWORD PTR [eax]
$LN727@Encrypt:
; File E:\Visual Studio Application\\ThatboyEncryptFileEncoder\ThatboyEncrypt.cpp

; 63   : 		_memccpy(signature.passwordMD5, md5(password).c_str(), '\0', 32);

	push	eax
	lea	eax, DWORD PTR _signature$[ebp+24]
	push	eax
	call	DWORD PTR __imp___memccpy
; File C:\Program Files (x86)\Microsoft Visual Studio\2019\Community\VC\Tools\MSVC\14.24.28314\include\xstring

; 2161 :         return _BUF_SIZE <= _Myres;

	mov	edx, DWORD PTR $T50[ebp+20]
; File E:\Visual Studio Application\\ThatboyEncryptFileEncoder\ThatboyEncrypt.cpp

; 63   : 		_memccpy(signature.passwordMD5, md5(password).c_str(), '\0', 32);

	add	esp, 16					; 00000010H
; File C:\Program Files (x86)\Microsoft Visual Studio\2019\Community\VC\Tools\MSVC\14.24.28314\include\xstring

; 2161 :         return _BUF_SIZE <= _Myres;

	cmp	edx, 16					; 00000010H

; 4187 :         if (_Mypair._Myval2._Large_string_engaged()) {

	jb	SHORT $LN743@Encrypt
; File C:\Program Files (x86)\Microsoft Visual Studio\2019\Community\VC\Tools\MSVC\14.24.28314\include\xmemory

; 780  :         _Deallocate<_New_alignof<_Ty>>(_Ptr, sizeof(_Ty) * _Count);

	mov	ecx, DWORD PTR $T50[ebp]
; File C:\Program Files (x86)\Microsoft Visual Studio\2019\Community\VC\Tools\MSVC\14.24.28314\include\xstring

; 4191 :             _Al.deallocate(_Ptr, _Mypair._Myval2._Myres + 1);

	inc	edx
; File C:\Program Files (x86)\Microsoft Visual Studio\2019\Community\VC\Tools\MSVC\14.24.28314\include\xmemory

; 780  :         _Deallocate<_New_alignof<_Ty>>(_Ptr, sizeof(_Ty) * _Count);

	mov	eax, ecx

; 190  :     if (_Bytes >= _Big_allocation_threshold) { // boost the alignment of big allocations to help autovectorization

	cmp	edx, 4096				; 00001000H
	jb	SHORT $LN753@Encrypt

; 111  :     const uintptr_t _Ptr_container   = _Ptr_user[-1];

	mov	ecx, DWORD PTR [ecx-4]
	add	edx, 35					; 00000023H
	sub	eax, ecx

; 112  : 
; 113  :     // If the following asserts, it likely means that we are performing
; 114  :     // an aligned delete on memory coming from an unaligned allocation.
; 115  :     _STL_ASSERT(_Ptr_user[-2] == _Big_allocation_sentinel, "invalid argument");
; 116  : 
; 117  :     // Extra paranoia on aligned allocation/deallocation; ensure _Ptr_container is
; 118  :     // in range [_Min_back_shift, _Non_user_size]
; 119  : #ifdef _DEBUG
; 120  :     constexpr uintptr_t _Min_back_shift = 2 * sizeof(void*);
; 121  : #else // ^^^ _DEBUG ^^^ // vvv !_DEBUG vvv
; 122  :     constexpr uintptr_t _Min_back_shift = sizeof(void*);
; 123  : #endif // _DEBUG
; 124  :     const uintptr_t _Back_shift = reinterpret_cast<uintptr_t>(_Ptr) - _Ptr_container;
; 125  :     _STL_VERIFY(_Back_shift >= _Min_back_shift && _Back_shift <= _Non_user_size, "invalid argument");

	add	eax, -4					; fffffffcH
	cmp	eax, 31					; 0000001fH
	jbe	SHORT $LN753@Encrypt
	call	DWORD PTR __imp___invalid_parameter_noinfo_noreturn
$LN753@Encrypt:

; 195  :     ::operator delete(_Ptr, _Bytes);

	push	edx
	push	ecx
	call	??3@YAXPAXI@Z				; operator delete
	add	esp, 8
$LN743@Encrypt:
; File E:\Visual Studio Application\\ThatboyEncryptFileEncoder\ThatboyEncrypt.cpp

; 64   : 		CRC32 crc(CRC32::CRC32_TYPE::eMPEG2);

	push	10					; 0000000aH
	lea	ecx, DWORD PTR _crc$167[ebp]
	call	??0CRC32@thatboy@@QAE@W4CRC32_TYPE@01@@Z ; thatboy::CRC32::CRC32
; File C:\Program Files (x86)\Microsoft Visual Studio\2019\Community\VC\Tools\MSVC\14.24.28314\include\xstring

; 2161 :         return _BUF_SIZE <= _Myres;

	cmp	DWORD PTR _password$[ebp+20], 16	; 00000010H

; 2152 :         const value_type* _Result = _Bx._Buf;

	lea	eax, DWORD PTR _password$[ebp]
; File E:\Visual Studio Application\\ThatboyEncryptFileEncoder\CRC.h

; 71   :     TYPE remainder = m_initial_remainder;

	mov	edx, DWORD PTR _crc$167[ebp+4]
; File C:\Program Files (x86)\Microsoft Visual Studio\2019\Community\VC\Tools\MSVC\14.24.28314\include\xstring

; 2153 :         if (_Large_string_engaged()) {

	cmovae	eax, DWORD PTR _password$[ebp]
; File E:\Visual Studio Application\\ThatboyEncryptFileEncoder\CRC.h

; 73   :     for (offset = 0; offset < nBytes; offset++)

	xor	esi, esi
	cmp	DWORD PTR _password$[ebp+16], esi
	jbe	SHORT $LN767@Encrypt
	mov	ecx, DWORD PTR _crc$167[ebp+1040]
	mov	edi, eax
	lea	ecx, DWORD PTR [ecx-8]
	npad	4
$LL768@Encrypt:

; 74   :     {
; 75   :         byte = (remainder >> (m_width - 8)) ^ message[offset];

	mov	eax, edx

; 76   :         remainder = crcTable[byte] ^ (remainder << 8);

	shl	edx, 8
	shr	eax, cl
	xor	al, BYTE PTR [esi+edi]
	inc	esi
	movzx	eax, al
	xor	edx, DWORD PTR _crc$167[ebp+eax*4+16]
	cmp	esi, DWORD PTR _password$[ebp+16]
	jb	SHORT $LL768@Encrypt
	mov	edi, DWORD PTR _chunkDataSize$GSCopy$1$[ebp]
$LN767@Encrypt:

; 77   :     }
; 78   :     /* The final remainder is the CRC result. */
; 79   :     return (remainder ^ m_final_xor_value);

	mov	eax, DWORD PTR _crc$167[ebp+8]
	xor	eax, edx
	mov	DWORD PTR _pwdCRC$1$[ebp], eax
; File E:\Visual Studio Application\\ThatboyEncryptFileEncoder\ThatboyEncrypt.cpp

; 65   : 		pwdCRC= crc.crcCompute((BYTE_CPTR)password.c_str(), password.size());

	mov	al, BYTE PTR _signature$[ebp+56]
$LN23@Encrypt:

; 66   : 	}
; 67   : 	if (signature.attributeMark & (BYTE)SignatureDomain::ENCRYPT_ATTRIBUTE::DEVICEBIND)

	test	al, 2
	je	$LN2849@Encrypt

; 69   : 		callBackStatusUpdate("...");

	cmp	DWORD PTR ?callBackStatusUpdate@EncryptFileDoModal@thatboy@@3V?$function@$$A6A_NV?$basic_string@DU?$char_traits@D@std@@V?$allocator@D@2@@std@@@Z@std@@A+36, 0
	je	SHORT $LN28@Encrypt
	sub	esp, 24					; 00000018H
	mov	ecx, esp
; File C:\Program Files (x86)\Microsoft Visual Studio\2019\Community\VC\Tools\MSVC\14.24.28314\include\xstring

; 2337 :         assign(_Ptr);

	push	OFFSET ??_C@_0M@OBMPDHDB@?$LA?s?$LG?$KI?I?h?$LB?$LI?4?4?4@

; 4178 :         _Mypair._Myval2._Mysize = 0;

	mov	DWORD PTR [ecx+16], 0

; 4179 :         _Mypair._Myval2._Myres  = _BUF_SIZE - 1;

	mov	DWORD PTR [ecx+20], 15			; 0000000fH

; 4180 :         // the _Traits::assign is last so the codegen doesn't think the char
; 4181 :         // write can alias this
; 4182 :         _Traits::assign(_Mypair._Myval2._Bx._Buf[0], _Elem());

	mov	BYTE PTR [ecx], 0

; 2337 :         assign(_Ptr);

	call	?assign@?$basic_string@DU?$char_traits@D@std@@V?$allocator@D@2@@std@@QAEAAV12@QBD@Z ; std::basic_string<char,std::char_traits<char>,std::allocator<char> >::assign
; File E:\Visual Studio Application\\ThatboyEncryptFileEncoder\ThatboyEncrypt.cpp

; 69   : 		callBackStatusUpdate("...");

	call	??R?$_Func_class@_NV?$basic_string@DU?$char_traits@D@std@@V?$allocator@D@2@@std@@@std@@QBE_NV?$basic_string@DU?$char_traits@D@std@@V?$allocator@D@2@@1@@Z ; std::_Func_class<bool,std::basic_string<char,std::char_traits<char>,std::allocator<char> > >::operator()
	test	al, al
	je	$LN75@Encrypt
$LN28@Encrypt:

; 70   : 		CRC32 crc(CRC32::CRC32_TYPE::eMPEG2);

	push	10					; 0000000aH
	lea	ecx, DWORD PTR _crc$166[ebp]
	call	??0CRC32@thatboy@@QAE@W4CRC32_TYPE@01@@Z ; thatboy::CRC32::CRC32
; File C:\Program Files (x86)\Microsoft Visual Studio\2019\Community\VC\Tools\MSVC\14.24.28314\include\xstring

; 2161 :         return _BUF_SIZE <= _Myres;

	cmp	DWORD PTR _deviceSerial$[ebp+20], 16	; 00000010H

; 2152 :         const value_type* _Result = _Bx._Buf;

	lea	eax, DWORD PTR _deviceSerial$[ebp]
; File E:\Visual Studio Application\\ThatboyEncryptFileEncoder\CRC.h

; 71   :     TYPE remainder = m_initial_remainder;

	mov	edx, DWORD PTR _crc$166[ebp+4]
; File C:\Program Files (x86)\Microsoft Visual Studio\2019\Community\VC\Tools\MSVC\14.24.28314\include\xstring

; 2153 :         if (_Large_string_engaged()) {

	cmovae	eax, DWORD PTR _deviceSerial$[ebp]
; File E:\Visual Studio Application\\ThatboyEncryptFileEncoder\CRC.h

; 73   :     for (offset = 0; offset < nBytes; offset++)

	xor	esi, esi
	cmp	DWORD PTR _deviceSerial$[ebp+16], esi
	jbe	SHORT $LN927@Encrypt
	mov	ecx, DWORD PTR _crc$166[ebp+1040]
	mov	edi, eax
	lea	ecx, DWORD PTR [ecx-8]
$LL928@Encrypt:

; 74   :     {
; 75   :         byte = (remainder >> (m_width - 8)) ^ message[offset];

	mov	eax, edx

; 76   :         remainder = crcTable[byte] ^ (remainder << 8);

	shl	edx, 8
	shr	eax, cl
	xor	al, BYTE PTR [esi+edi]
	inc	esi
	movzx	eax, al
	xor	edx, DWORD PTR _crc$166[ebp+eax*4+16]
	cmp	esi, DWORD PTR _deviceSerial$[ebp+16]
	jb	SHORT $LL928@Encrypt
	mov	edi, DWORD PTR _chunkDataSize$GSCopy$1$[ebp]
$LN927@Encrypt:

; 77   :     }
; 78   :     /* The final remainder is the CRC result. */
; 79   :     return (remainder ^ m_final_xor_value);

	mov	eax, DWORD PTR _crc$166[ebp+8]
	xor	eax, edx
; File E:\Visual Studio Application\\ThatboyEncryptFileEncoder\ThatboyEncrypt.cpp

; 71   : 		signature.deviceIDCrc = crc.crcCompute((BYTE_CPTR)deviceSerial.c_str(), deviceSerial.size());

	mov	DWORD PTR _signature$[ebp+16], eax
$LN2849@Encrypt:

; 75   : 	callBackStatusUpdate("...");

	cmp	DWORD PTR ?callBackStatusUpdate@EncryptFileDoModal@thatboy@@3V?$function@$$A6A_NV?$basic_string@DU?$char_traits@D@std@@V?$allocator@D@2@@std@@@Z@std@@A+36, 0
	je	SHORT $LN30@Encrypt
	sub	esp, 24					; 00000018H
	mov	ecx, esp
; File C:\Program Files (x86)\Microsoft Visual Studio\2019\Community\VC\Tools\MSVC\14.24.28314\include\xstring

; 2337 :         assign(_Ptr);

	push	OFFSET ??_C@_0BC@BOOHFHDH@?$LE?$KG?$MA?m?T?$KN?J?$LM?N?D?$LM?$PO?C?$PL?4?4?4@

; 4178 :         _Mypair._Myval2._Mysize = 0;

	mov	DWORD PTR [ecx+16], 0

; 4179 :         _Mypair._Myval2._Myres  = _BUF_SIZE - 1;

	mov	DWORD PTR [ecx+20], 15			; 0000000fH

; 4180 :         // the _Traits::assign is last so the codegen doesn't think the char
; 4181 :         // write can alias this
; 4182 :         _Traits::assign(_Mypair._Myval2._Bx._Buf[0], _Elem());

	mov	BYTE PTR [ecx], 0

; 2337 :         assign(_Ptr);

	call	?assign@?$basic_string@DU?$char_traits@D@std@@V?$allocator@D@2@@std@@QAEAAV12@QBD@Z ; std::basic_string<char,std::char_traits<char>,std::allocator<char> >::assign
; File E:\Visual Studio Application\\ThatboyEncryptFileEncoder\ThatboyEncrypt.cpp

; 75   : 	callBackStatusUpdate("...");

	call	??R?$_Func_class@_NV?$basic_string@DU?$char_traits@D@std@@V?$allocator@D@2@@std@@@std@@QBE_NV?$basic_string@DU?$char_traits@D@std@@V?$allocator@D@2@@1@@Z ; std::_Func_class<bool,std::basic_string<char,std::char_traits<char>,std::allocator<char> > >::operator()
	test	al, al
	je	$LN75@Encrypt
$LN30@Encrypt:
; File C:\Program Files (x86)\Microsoft Visual Studio\2019\Community\VC\Tools\MSVC\14.24.28314\include\xstring

; 2161 :         return _BUF_SIZE <= _Myres;

	cmp	DWORD PTR _file$[ebp+20], 16		; 00000010H
; File E:\Visual Studio Application\\ThatboyEncryptFileEncoder\ThatboyEncrypt.cpp

; 78   : 	_splitpath_s(file.c_str(), nullptr, 0, nullptr, 0, fileNameNoExt, MAX_PATH, ext, MAX_PATH);

	lea	ecx, DWORD PTR _ext$[ebp]
	push	260					; 00000104H
	push	ecx
	push	260					; 00000104H
	lea	ecx, DWORD PTR _fileNameNoExt$[ebp]
	push	ecx
	push	0
	push	0
	push	0
; File C:\Program Files (x86)\Microsoft Visual Studio\2019\Community\VC\Tools\MSVC\14.24.28314\include\xstring

; 2152 :         const value_type* _Result = _Bx._Buf;

	lea	eax, DWORD PTR _file$[ebp]

; 2153 :         if (_Large_string_engaged()) {

	cmovae	eax, DWORD PTR _file$[ebp]
; File E:\Visual Studio Application\\ThatboyEncryptFileEncoder\ThatboyEncrypt.cpp

; 78   : 	_splitpath_s(file.c_str(), nullptr, 0, nullptr, 0, fileNameNoExt, MAX_PATH, ext, MAX_PATH);

	push	0
	push	eax
	call	DWORD PTR __imp___splitpath_s

; 79   : 	sprintf_s((LPSTR)signature.oriFileName, MAX_PATH, "%s%s", fileNameNoExt, ext);

	lea	eax, DWORD PTR _ext$[ebp]
	push	eax
	lea	eax, DWORD PTR _fileNameNoExt$[ebp]
	push	eax
	push	OFFSET ??_C@_04HDOCAJNK@?$CFs?$CFs@
	lea	eax, DWORD PTR _signature$[ebp+60]
	push	260					; 00000104H
	push	eax
	call	_sprintf_s

; 80   : 	for (size_t i = strlen((LPSTR)signature.oriFileName)+1; i < sizeof(signature.oriFileName); i++)

	lea	esi, DWORD PTR _signature$[ebp+60]
	add	esp, 56					; 00000038H
	lea	ecx, DWORD PTR [esi+1]
$LL2848@Encrypt:
	mov	al, BYTE PTR [esi]
	inc	esi
	test	al, al
	jne	SHORT $LL2848@Encrypt
	sub	esi, ecx
	inc	esi
	cmp	esi, 260				; 00000104H
	jae	SHORT $LN3@Encrypt
	npad	6
$LL4@Encrypt:

; 81   : 		signature.oriFileName[i] = rand() % 256;

	call	DWORD PTR __imp__rand
	and	eax, -2147483393			; 800000ffH
	jns	SHORT $LN2860@Encrypt
	dec	eax
	or	eax, -256				; ffffff00H
	inc	eax
$LN2860@Encrypt:
	mov	BYTE PTR _signature$[ebp+esi+60], al
	inc	esi
	cmp	esi, 260				; 00000104H
	jb	SHORT $LL4@Encrypt
$LN3@Encrypt:

; 82   : 	for (size_t i = 0; i < sizeof(signature.oriFileName) / 4; i++)

	xor	ecx, ecx
	npad	10
$LL2831@Encrypt:

; 83   : 		((DWORD_PTR)signature.oriFileName)[i] ^= signature.magicNumber ^ XORCode ^ signature.RXORCode;

	mov	eax, DWORD PTR _signature$[ebp+ecx*4+60]
	xor	eax, DWORD PTR _signature$[ebp+20]
	xor	eax, DWORD PTR _signature$[ebp]
	xor	eax, 11184810				; 00aaaaaaH
	mov	DWORD PTR _signature$[ebp+ecx*4+60], eax
	inc	ecx
	cmp	ecx, 65					; 00000041H
	jb	SHORT $LL2831@Encrypt

; 86   : 	callBackStatusUpdate("...");

	cmp	DWORD PTR ?callBackStatusUpdate@EncryptFileDoModal@thatboy@@3V?$function@$$A6A_NV?$basic_string@DU?$char_traits@D@std@@V?$allocator@D@2@@std@@@Z@std@@A+36, 0
	je	$LN32@Encrypt
; File C:\Program Files (x86)\Microsoft Visual Studio\2019\Community\VC\Tools\MSVC\14.24.28314\include\xstring

; 2337 :         assign(_Ptr);

	push	OFFSET ??_C@_0BE@JDHBDFPA@?U?$PN?T?Z?$LE?$KG?$MA?m?N?D?$LM?$PO?D?Z?H?$NN?4?4?4@
	lea	ecx, DWORD PTR $T77[ebp]

; 4178 :         _Mypair._Myval2._Mysize = 0;

	mov	DWORD PTR $T77[ebp+16], 0

; 4179 :         _Mypair._Myval2._Myres  = _BUF_SIZE - 1;

	mov	DWORD PTR $T77[ebp+20], 15		; 0000000fH

; 4180 :         // the _Traits::assign is last so the codegen doesn't think the char
; 4181 :         // write can alias this
; 4182 :         _Traits::assign(_Mypair._Myval2._Bx._Buf[0], _Elem());

	mov	BYTE PTR $T77[ebp], 0

; 2337 :         assign(_Ptr);

	call	?assign@?$basic_string@DU?$char_traits@D@std@@V?$allocator@D@2@@std@@QAEAAV12@QBD@Z ; std::basic_string<char,std::char_traits<char>,std::allocator<char> >::assign
; File C:\Program Files (x86)\Microsoft Visual Studio\2019\Community\VC\Tools\MSVC\14.24.28314\include\functional

; 964  :     _Ret operator()(_Types... _Args) const {

	mov	BYTE PTR __$EHRec$[ebp+8], 7

; 965  :         if (_Empty()) {

	mov	ecx, DWORD PTR ?callBackStatusUpdate@EncryptFileDoModal@thatboy@@3V?$function@$$A6A_NV?$basic_string@DU?$char_traits@D@std@@V?$allocator@D@2@@std@@@Z@std@@A+36
	test	ecx, ecx
	jne	SHORT $LN1098@Encrypt

; 966  :             _Xbad_function_call();

	call	DWORD PTR __imp_?_Xbad_function_call@std@@YAXXZ
$LN1098@Encrypt:

; 969  :         return _Impl->_Do_call(_STD forward<_Types>(_Args)...);

	mov	eax, DWORD PTR [ecx]
	lea	edx, DWORD PTR $T77[ebp]
	push	edx
	mov	eax, DWORD PTR [eax+8]
	call	eax
	mov	BYTE PTR __$EHRec$[ebp+8], 4
; File C:\Program Files (x86)\Microsoft Visual Studio\2019\Community\VC\Tools\MSVC\14.24.28314\include\xstring

; 2161 :         return _BUF_SIZE <= _Myres;

	mov	edx, DWORD PTR $T77[ebp+20]
; File C:\Program Files (x86)\Microsoft Visual Studio\2019\Community\VC\Tools\MSVC\14.24.28314\include\functional

; 969  :         return _Impl->_Do_call(_STD forward<_Types>(_Args)...);

	mov	BYTE PTR $T165[ebp], al
; File C:\Program Files (x86)\Microsoft Visual Studio\2019\Community\VC\Tools\MSVC\14.24.28314\include\xstring

; 2161 :         return _BUF_SIZE <= _Myres;

	cmp	edx, 16					; 00000010H

; 4187 :         if (_Mypair._Myval2._Large_string_engaged()) {

	jb	SHORT $LN1115@Encrypt
; File C:\Program Files (x86)\Microsoft Visual Studio\2019\Community\VC\Tools\MSVC\14.24.28314\include\xmemory

; 780  :         _Deallocate<_New_alignof<_Ty>>(_Ptr, sizeof(_Ty) * _Count);

	mov	ecx, DWORD PTR $T77[ebp]
; File C:\Program Files (x86)\Microsoft Visual Studio\2019\Community\VC\Tools\MSVC\14.24.28314\include\xstring

; 4191 :             _Al.deallocate(_Ptr, _Mypair._Myval2._Myres + 1);

	inc	edx
; File C:\Program Files (x86)\Microsoft Visual Studio\2019\Community\VC\Tools\MSVC\14.24.28314\include\xmemory

; 780  :         _Deallocate<_New_alignof<_Ty>>(_Ptr, sizeof(_Ty) * _Count);

	mov	eax, ecx

; 190  :     if (_Bytes >= _Big_allocation_threshold) { // boost the alignment of big allocations to help autovectorization

	cmp	edx, 4096				; 00001000H
	jb	SHORT $LN1125@Encrypt

; 111  :     const uintptr_t _Ptr_container   = _Ptr_user[-1];

	mov	ecx, DWORD PTR [ecx-4]
	add	edx, 35					; 00000023H
	sub	eax, ecx

; 112  : 
; 113  :     // If the following asserts, it likely means that we are performing
; 114  :     // an aligned delete on memory coming from an unaligned allocation.
; 115  :     _STL_ASSERT(_Ptr_user[-2] == _Big_allocation_sentinel, "invalid argument");
; 116  : 
; 117  :     // Extra paranoia on aligned allocation/deallocation; ensure _Ptr_container is
; 118  :     // in range [_Min_back_shift, _Non_user_size]
; 119  : #ifdef _DEBUG
; 120  :     constexpr uintptr_t _Min_back_shift = 2 * sizeof(void*);
; 121  : #else // ^^^ _DEBUG ^^^ // vvv !_DEBUG vvv
; 122  :     constexpr uintptr_t _Min_back_shift = sizeof(void*);
; 123  : #endif // _DEBUG
; 124  :     const uintptr_t _Back_shift = reinterpret_cast<uintptr_t>(_Ptr) - _Ptr_container;
; 125  :     _STL_VERIFY(_Back_shift >= _Min_back_shift && _Back_shift <= _Non_user_size, "invalid argument");

	add	eax, -4					; fffffffcH
	cmp	eax, 31					; 0000001fH
	jbe	SHORT $LN1125@Encrypt
	call	DWORD PTR __imp___invalid_parameter_noinfo_noreturn
$LN1125@Encrypt:

; 195  :     ::operator delete(_Ptr, _Bytes);

	push	edx
	push	ecx
	call	??3@YAXPAXI@Z				; operator delete
	mov	al, BYTE PTR $T165[ebp]
	add	esp, 8
$LN1115@Encrypt:
; File E:\Visual Studio Application\\ThatboyEncryptFileEncoder\ThatboyEncrypt.cpp

; 86   : 	callBackStatusUpdate("...");

	test	al, al
	jne	SHORT $LN32@Encrypt
$LN75@Encrypt:
	mov	edi, 1
	jmp	$LN2753@Encrypt
$LN32@Encrypt:

; 87   : 	// 
; 88   : 	ifstream ifs(file, ios::binary, _SH_DENYWR);

	push	ecx
	push	32					; 00000020H
	push	ecx
	lea	eax, DWORD PTR _file$[ebp]
	push	eax
	lea	ecx, DWORD PTR _ifs$[ebp]
	call	??0?$basic_ifstream@DU?$char_traits@D@std@@@std@@QAE@ABV?$basic_string@DU?$char_traits@D@std@@V?$allocator@D@2@@1@HH@Z ; std::basic_ifstream<char,std::char_traits<char> >::basic_ifstream<char,std::char_traits<char> >

; 89   : 	ofstream ofs(encryptFileName, ios::binary, _SH_DENYRW);

	sub	esp, 12					; 0000000cH
	mov	BYTE PTR __$EHRec$[ebp+8], 8
	lea	eax, DWORD PTR _encryptFileName$[ebp]
	lea	ecx, DWORD PTR _ofs$[ebp]
	push	eax
	call	??0?$basic_ofstream@DU?$char_traits@D@std@@@std@@QAE@ABV?$basic_string@DU?$char_traits@D@std@@V?$allocator@D@2@@1@HH@Z ; std::basic_ofstream<char,std::char_traits<char> >::basic_ofstream<char,std::char_traits<char> >
	mov	BYTE PTR __$EHRec$[ebp+8], 9
; File C:\Program Files (x86)\Microsoft Visual Studio\2019\Community\VC\Tools\MSVC\14.24.28314\include\fstream

; 272  :         return static_cast<bool>(_Myfile);

	cmp	DWORD PTR _ifs$[ebp+92], 0
; File E:\Visual Studio Application\\ThatboyEncryptFileEncoder\ThatboyEncrypt.cpp

; 91   : 	if (!ifs.is_open() || !ofs.is_open())

	je	$LN34@Encrypt
; File C:\Program Files (x86)\Microsoft Visual Studio\2019\Community\VC\Tools\MSVC\14.24.28314\include\fstream

; 272  :         return static_cast<bool>(_Myfile);

	cmp	DWORD PTR _ofs$[ebp+80], 0
; File E:\Visual Studio Application\\ThatboyEncryptFileEncoder\ThatboyEncrypt.cpp

; 91   : 	if (!ifs.is_open() || !ofs.is_open())

	je	$LN34@Encrypt

; 92   : 		return EncryptErrorCode::ENCRYPT_FILEOPENERROR;
; 93   : 
; 94   : 	/**********************  **************************/
; 95   : 	ofs.write((LPCSTR)&signature, sizeof(signature));

	push	0
	push	320					; 00000140H
	lea	eax, DWORD PTR _signature$[ebp]
	push	eax
	lea	ecx, DWORD PTR _ofs$[ebp]
	call	DWORD PTR __imp_?write@?$basic_ostream@DU?$char_traits@D@std@@@std@@QAEAAV12@PBD_J@Z

; 96   : 	/**********************  **************************/
; 97   : 	thdrChunk.doFigure(static_cast<BYTE>(crcType));

	push	DWORD PTR _crcType$1$[ebp]
	lea	ecx, DWORD PTR _thdrChunk$[ebp]
	call	?doFigure@THDR_Chunk@thatboy@@UAEXE@Z	; thatboy::THDR_Chunk::doFigure

; 98   : 	thdrChunk.write(ofs);

	lea	eax, DWORD PTR _ofs$[ebp]
	push	eax
	lea	ecx, DWORD PTR _thdrChunk$[ebp]
	call	?write@THDR_Chunk@thatboy@@UBEAAV?$basic_ostream@DU?$char_traits@D@std@@@std@@AAV34@@Z ; thatboy::THDR_Chunk::write

; 99   : 	ofs.flush();

	lea	ecx, DWORD PTR _ofs$[ebp]
	call	DWORD PTR __imp_?flush@?$basic_ostream@DU?$char_traits@D@std@@@std@@QAEAAV12@XZ

; 100  : 	callBackStatusUpdate("...");

	cmp	DWORD PTR ?callBackStatusUpdate@EncryptFileDoModal@thatboy@@3V?$function@$$A6A_NV?$basic_string@DU?$char_traits@D@std@@V?$allocator@D@2@@std@@@Z@std@@A+36, 0
	je	SHORT $LN36@Encrypt
	sub	esp, 24					; 00000018H
	mov	ecx, esp
; File C:\Program Files (x86)\Microsoft Visual Studio\2019\Community\VC\Tools\MSVC\14.24.28314\include\xstring

; 2337 :         assign(_Ptr);

	push	OFFSET ??_C@_0BI@EODDGCKG@?R?Q?P?$LE?H?k?J?p?C?$PL?S?r?$LK?M?N?D?$LM?$PO?M?$LH?4?4?4@

; 4178 :         _Mypair._Myval2._Mysize = 0;

	mov	DWORD PTR [ecx+16], 0

; 4179 :         _Mypair._Myval2._Myres  = _BUF_SIZE - 1;

	mov	DWORD PTR [ecx+20], 15			; 0000000fH

; 4180 :         // the _Traits::assign is last so the codegen doesn't think the char
; 4181 :         // write can alias this
; 4182 :         _Traits::assign(_Mypair._Myval2._Bx._Buf[0], _Elem());

	mov	BYTE PTR [ecx], 0

; 2337 :         assign(_Ptr);

	call	?assign@?$basic_string@DU?$char_traits@D@std@@V?$allocator@D@2@@std@@QAEAAV12@QBD@Z ; std::basic_string<char,std::char_traits<char>,std::allocator<char> >::assign
; File E:\Visual Studio Application\\ThatboyEncryptFileEncoder\ThatboyEncrypt.cpp

; 100  : 	callBackStatusUpdate("...");

	call	??R?$_Func_class@_NV?$basic_string@DU?$char_traits@D@std@@V?$allocator@D@2@@std@@@std@@QBE_NV?$basic_string@DU?$char_traits@D@std@@V?$allocator@D@2@@1@@Z ; std::_Func_class<bool,std::basic_string<char,std::char_traits<char>,std::allocator<char> > >::operator()
	test	al, al
	jne	SHORT $LN36@Encrypt
	mov	edi, 1
	jmp	$LN2726@Encrypt
$LN36@Encrypt:
; File C:\Program Files (x86)\Microsoft Visual Studio\2019\Community\VC\Tools\MSVC\14.24.28314\include\vector

; 374  :     _Vector_val() noexcept : _Myfirst(), _Mylast(), _Myend() {}

	mov	DWORD PTR _fileContentBuff$[ebp], 0
	mov	DWORD PTR _fileContentBuff$[ebp+4], 0
	mov	DWORD PTR _fileContentBuff$[ebp+8], 0

; 1663 :         if (_Newcapacity > max_size()) {

	cmp	edi, 2147483647				; 7fffffffH
	ja	$LN2820@Encrypt
; File C:\Program Files (x86)\Microsoft Visual Studio\2019\Community\VC\Tools\MSVC\14.24.28314\include\xmemory

; 174  :     if (_Bytes >= _Big_allocation_threshold) { // boost the alignment of big allocations to help autovectorization

	cmp	edi, 4096				; 00001000H
	jb	SHORT $LN1581@Encrypt

; 89   :     const size_t _Block_size = _Non_user_size + _Bytes;

	lea	eax, DWORD PTR [edi+35]

; 90   :     if (_Block_size <= _Bytes) {

	cmp	eax, edi
	jbe	$LN2821@Encrypt

; 51   :         return ::operator new(_Bytes);

	push	eax
	call	DWORD PTR __imp_??2@YAPAXI@Z
	add	esp, 4

; 95   :     _STL_VERIFY(_Ptr_container != 0, "invalid argument"); // validate even in release since we're doing p[-1]

	test	eax, eax
	je	$LN2804@Encrypt

; 96   :     void* const _Ptr = reinterpret_cast<void*>((_Ptr_container + _Non_user_size) & ~(_Big_allocation_alignment - 1));

	lea	esi, DWORD PTR [eax+35]
	and	esi, -32				; ffffffe0H
	mov	DWORD PTR __Ptr$1$[ebp], esi

; 97   :     static_cast<uintptr_t*>(_Ptr)[-1] = _Ptr_container;

	mov	DWORD PTR [esi-4], eax

; 175  :         return _Allocate_manually_vector_aligned<_Traits>(_Bytes);

	jmp	SHORT $LN1580@Encrypt
$LN1581@Encrypt:

; 51   :         return ::operator new(_Bytes);

	push	edi
	call	DWORD PTR __imp_??2@YAPAXI@Z
	add	esp, 4

; 180  :         return _Traits::_Allocate(_Bytes);

	mov	DWORD PTR __Ptr$1$[ebp], eax
	mov	esi, eax
$LN1580@Encrypt:

; 1818 :     _CSTD memset(_First_ch, 0, static_cast<size_t>(_Last_ch - _First_ch));

	push	DWORD PTR _chunkDataSize$GSCopy$1$[ebp]
; File C:\Program Files (x86)\Microsoft Visual Studio\2019\Community\VC\Tools\MSVC\14.24.28314\include\vector

; 1649 :         _Myend             = _Newvec + _Newcapacity;

	add	edi, esi
	mov	DWORD PTR _fileContentBuff$[ebp], esi
; File C:\Program Files (x86)\Microsoft Visual Studio\2019\Community\VC\Tools\MSVC\14.24.28314\include\xmemory

; 1818 :     _CSTD memset(_First_ch, 0, static_cast<size_t>(_Last_ch - _First_ch));

	push	0
	push	esi
; File C:\Program Files (x86)\Microsoft Visual Studio\2019\Community\VC\Tools\MSVC\14.24.28314\include\vector

; 1649 :         _Myend             = _Newvec + _Newcapacity;

	mov	DWORD PTR _fileContentBuff$[ebp+8], edi
; File C:\Program Files (x86)\Microsoft Visual Studio\2019\Community\VC\Tools\MSVC\14.24.28314\include\xmemory

; 1818 :     _CSTD memset(_First_ch, 0, static_cast<size_t>(_Last_ch - _First_ch));

	call	_memset
	add	esp, 12					; 0000000cH
; File C:\Program Files (x86)\Microsoft Visual Studio\2019\Community\VC\Tools\MSVC\14.24.28314\include\vector

; 461  :             _My_data._Mylast = _Ufill(_My_data._Myfirst, _Count, _Val);

	mov	DWORD PTR _fileContentBuff$[ebp+4], edi
; File E:\Visual Studio Application\\ThatboyEncryptFileEncoder\ThatboyEncrypt.cpp

; 102  : 	std::vector<BYTE> fileContentBuff(chunkDataSize);

	mov	BYTE PTR __$EHRec$[ebp+8], 10		; 0000000aH

; 103  : 	DWORD curXORCode = XORCode ^ signature.RXORCode ^ pwdCRC;

	mov	eax, DWORD PTR _signature$[ebp+20]
	xor	eax, DWORD PTR _pwdCRC$1$[ebp]

; 106  : 	callBackStatusUpdate("...");

	cmp	DWORD PTR ?callBackStatusUpdate@EncryptFileDoModal@thatboy@@3V?$function@$$A6A_NV?$basic_string@DU?$char_traits@D@std@@V?$allocator@D@2@@std@@@Z@std@@A+36, 0
	mov	DWORD PTR tv9562[ebp], eax
	je	SHORT $LN2850@Encrypt
	sub	esp, 24					; 00000018H
	mov	ecx, esp
; File C:\Program Files (x86)\Microsoft Visual Studio\2019\Community\VC\Tools\MSVC\14.24.28314\include\xstring

; 2337 :         assign(_Ptr);

	push	OFFSET ??_C@_0BO@MHNEFFKB@?U?$PN?T?Z?$LE?$KG?$MA?m?J?$PN?$LO?$NN?$LP?i?$KD?$KM?G?k?D?M?P?D?$LF?H?$LE?$PN?4?4?4@

; 4178 :         _Mypair._Myval2._Mysize = 0;

	mov	DWORD PTR [ecx+16], 0

; 4179 :         _Mypair._Myval2._Myres  = _BUF_SIZE - 1;

	mov	DWORD PTR [ecx+20], 15			; 0000000fH

; 4180 :         // the _Traits::assign is last so the codegen doesn't think the char
; 4181 :         // write can alias this
; 4182 :         _Traits::assign(_Mypair._Myval2._Bx._Buf[0], _Elem());

	mov	BYTE PTR [ecx], 0

; 2337 :         assign(_Ptr);

	call	?assign@?$basic_string@DU?$char_traits@D@std@@V?$allocator@D@2@@std@@QAEAAV12@QBD@Z ; std::basic_string<char,std::char_traits<char>,std::allocator<char> >::assign
; File E:\Visual Studio Application\\ThatboyEncryptFileEncoder\ThatboyEncrypt.cpp

; 106  : 	callBackStatusUpdate("...");

	call	??R?$_Func_class@_NV?$basic_string@DU?$char_traits@D@std@@V?$allocator@D@2@@std@@@std@@QBE_NV?$basic_string@DU?$char_traits@D@std@@V?$allocator@D@2@@1@@Z ; std::_Func_class<bool,std::basic_string<char,std::char_traits<char>,std::allocator<char> > >::operator()
	test	al, al
	jne	SHORT $LN2850@Encrypt
	mov	edi, 1
	jmp	$LN83@Encrypt
$LN2850@Encrypt:

; 107  : 	for (size_t i = 0; i < signature.chunkCount; i++)

	cmp	DWORD PTR _signature$[ebp+8], 0
	mov	DWORD PTR _i$1$[ebp], 0
	jbe	$LN2853@Encrypt
	mov	DWORD PTR tv9535[ebp], 100		; 00000064H
	npad	1
$LL10@Encrypt:
; File C:\Program Files (x86)\Microsoft Visual Studio\2019\Community\VC\Tools\MSVC\14.24.28314\include\xstring

; 4178 :         _Mypair._Myval2._Mysize = 0;

	mov	DWORD PTR _chunkBuff$169[ebp+16], 0

; 4179 :         _Mypair._Myval2._Myres  = _BUF_SIZE - 1;

	mov	DWORD PTR _chunkBuff$169[ebp+20], 15	; 0000000fH

; 4180 :         // the _Traits::assign is last so the codegen doesn't think the char
; 4181 :         // write can alias this
; 4182 :         _Traits::assign(_Mypair._Myval2._Bx._Buf[0], _Elem());

	mov	BYTE PTR _chunkBuff$169[ebp], 0
; File C:\Program Files (x86)\Microsoft Visual Studio\2019\Community\VC\Tools\MSVC\14.24.28314\include\vector

; 1217 :         if (_Newsize < _Oldsize) { // trim

	mov	edx, DWORD PTR _chunkDataSize$GSCopy$1$[ebp]
	mov	ecx, edi
	sub	ecx, esi
; File E:\Visual Studio Application\\ThatboyEncryptFileEncoder\ThatboyEncrypt.cpp

; 110  : 		string chunkBuff;

	mov	BYTE PTR __$EHRec$[ebp+8], 11		; 0000000bH
; File C:\Program Files (x86)\Microsoft Visual Studio\2019\Community\VC\Tools\MSVC\14.24.28314\include\vector

; 1217 :         if (_Newsize < _Oldsize) { // trim

	cmp	edx, ecx
	jae	SHORT $LN1820@Encrypt

; 1218 :             const pointer _Newlast = _Myfirst + _Newsize;

	lea	edi, DWORD PTR [edx+esi]

; 1222 :             return;

	jmp	SHORT $LN2862@Encrypt
$LN1820@Encrypt:

; 1223 :         }
; 1224 : 
; 1225 :         if (_Newsize > _Oldsize) { // append

	jbe	SHORT $LN1821@Encrypt

; 1226 :             const auto _Oldcapacity = static_cast<size_type>(_My_data._Myend - _Myfirst);

	mov	eax, DWORD PTR _fileContentBuff$[ebp+8]
	sub	eax, esi

; 1227 :             if (_Newsize > _Oldcapacity) { // reallocate

	cmp	edx, eax
	jbe	SHORT $LN1822@Encrypt

; 1228 :                 _Resize_reallocate(_Newsize, _Val);

	push	ecx
	push	edx
	lea	ecx, DWORD PTR _fileContentBuff$[ebp]
	call	??$_Resize_reallocate@U_Value_init_tag@std@@@?$vector@EV?$allocator@E@std@@@std@@AAEXIABU_Value_init_tag@1@@Z ; std::vector<unsigned char,std::allocator<unsigned char> >::_Resize_reallocate<std::_Value_init_tag>

; 1229 :                 return;

	mov	edi, DWORD PTR _fileContentBuff$[ebp+4]
	mov	esi, DWORD PTR _fileContentBuff$[ebp]
	mov	edx, DWORD PTR _chunkDataSize$GSCopy$1$[ebp]
	jmp	SHORT $LN1821@Encrypt
$LN1822@Encrypt:

; 1233 :             _Mylast                = _Ufill(_Oldlast, _Newsize - _Oldsize, _Val);

	mov	esi, edx
	sub	esi, ecx
; File C:\Program Files (x86)\Microsoft Visual Studio\2019\Community\VC\Tools\MSVC\14.24.28314\include\xmemory

; 1818 :     _CSTD memset(_First_ch, 0, static_cast<size_t>(_Last_ch - _First_ch));

	push	esi
	push	0
	push	edi
	call	_memset
	mov	edx, DWORD PTR _chunkDataSize$GSCopy$1$[ebp]
	add	esp, 12					; 0000000cH
; File C:\Program Files (x86)\Microsoft Visual Studio\2019\Community\VC\Tools\MSVC\14.24.28314\include\vector

; 1233 :             _Mylast                = _Ufill(_Oldlast, _Newsize - _Oldsize, _Val);

	add	edi, esi
	mov	esi, DWORD PTR __Ptr$1$[ebp]
$LN2862@Encrypt:
; File E:\Visual Studio Application\\ThatboyEncryptFileEncoder\ThatboyEncrypt.cpp

; 113  : 		ifs.read((LPSTR)fileContentBuff.data(), chunkDataSize);

	mov	DWORD PTR _fileContentBuff$[ebp+4], edi
$LN1821@Encrypt:
	push	0
	push	edx
	push	esi
	lea	ecx, DWORD PTR _ifs$[ebp]
	call	DWORD PTR __imp_?read@?$basic_istream@DU?$char_traits@D@std@@@std@@QAEAAV12@PAD_J@Z

; 114  : 		fileContentSize = static_cast<size_t>(ifs.gcount());

	lea	ecx, DWORD PTR _ifs$[ebp]
	call	DWORD PTR __imp_?gcount@?$basic_istream@DU?$char_traits@D@std@@@std@@QBE_JXZ
; File C:\Program Files (x86)\Microsoft Visual Studio\2019\Community\VC\Tools\MSVC\14.24.28314\include\vector

; 1216 :         const auto _Oldsize = static_cast<size_type>(_Mylast - _Myfirst);

	mov	edx, edi
; File E:\Visual Studio Application\\ThatboyEncryptFileEncoder\ThatboyEncrypt.cpp

; 114  : 		fileContentSize = static_cast<size_t>(ifs.gcount());

	mov	ecx, eax
; File C:\Program Files (x86)\Microsoft Visual Studio\2019\Community\VC\Tools\MSVC\14.24.28314\include\vector

; 1216 :         const auto _Oldsize = static_cast<size_type>(_Mylast - _Myfirst);

	sub	edx, esi

; 1217 :         if (_Newsize < _Oldsize) { // trim

	cmp	ecx, edx
	jae	SHORT $LN1833@Encrypt

; 1218 :             const pointer _Newlast = _Myfirst + _Newsize;

	lea	eax, DWORD PTR [esi+ecx]

; 1219 :             _Orphan_range(_Newlast, _Mylast);
; 1220 :             _Destroy(_Newlast, _Mylast);
; 1221 :             _Mylast = _Newlast;

	mov	DWORD PTR _fileContentBuff$[ebp+4], eax

; 1222 :             return;

	jmp	SHORT $LN1834@Encrypt
$LN1833@Encrypt:

; 1223 :         }
; 1224 : 
; 1225 :         if (_Newsize > _Oldsize) { // append

	jbe	SHORT $LN1834@Encrypt

; 1226 :             const auto _Oldcapacity = static_cast<size_type>(_My_data._Myend - _Myfirst);

	mov	eax, DWORD PTR _fileContentBuff$[ebp+8]
	sub	eax, esi

; 1227 :             if (_Newsize > _Oldcapacity) { // reallocate

	cmp	ecx, eax
	jbe	SHORT $LN1835@Encrypt

; 1228 :                 _Resize_reallocate(_Newsize, _Val);

	push	ecx
	push	ecx
	lea	ecx, DWORD PTR _fileContentBuff$[ebp]
	call	??$_Resize_reallocate@U_Value_init_tag@std@@@?$vector@EV?$allocator@E@std@@@std@@AAEXIABU_Value_init_tag@1@@Z ; std::vector<unsigned char,std::allocator<unsigned char> >::_Resize_reallocate<std::_Value_init_tag>

; 1229 :                 return;

	jmp	SHORT $LN1834@Encrypt
$LN1835@Encrypt:

; 1233 :             _Mylast                = _Ufill(_Oldlast, _Newsize - _Oldsize, _Val);

	sub	ecx, edx
; File C:\Program Files (x86)\Microsoft Visual Studio\2019\Community\VC\Tools\MSVC\14.24.28314\include\xmemory

; 1818 :     _CSTD memset(_First_ch, 0, static_cast<size_t>(_Last_ch - _First_ch));

	push	ecx
	push	0
	push	edi
; File C:\Program Files (x86)\Microsoft Visual Studio\2019\Community\VC\Tools\MSVC\14.24.28314\include\vector

; 1233 :             _Mylast                = _Ufill(_Oldlast, _Newsize - _Oldsize, _Val);

	mov	DWORD PTR __Count$1$[ebp], ecx
; File C:\Program Files (x86)\Microsoft Visual Studio\2019\Community\VC\Tools\MSVC\14.24.28314\include\xmemory

; 1818 :     _CSTD memset(_First_ch, 0, static_cast<size_t>(_Last_ch - _First_ch));

	call	_memset
	add	esp, 12					; 0000000cH
; File C:\Program Files (x86)\Microsoft Visual Studio\2019\Community\VC\Tools\MSVC\14.24.28314\include\vector

; 1233 :             _Mylast                = _Ufill(_Oldlast, _Newsize - _Oldsize, _Val);

	add	edi, DWORD PTR __Count$1$[ebp]
	mov	DWORD PTR _fileContentBuff$[ebp+4], edi
$LN1834@Encrypt:
; File E:\Visual Studio Application\\ThatboyEncryptFileEncoder\ThatboyEncrypt.cpp

; 117  : 		if (!Base64::encode(fileContentBuff, chunkBuff))

	lea	edx, DWORD PTR _chunkBuff$169[ebp]
	lea	ecx, DWORD PTR _fileContentBuff$[ebp]
	call	?encode@Base64@thatboy@@YA_NABV?$vector@EV?$allocator@E@std@@@std@@AAV?$basic_string@DU?$char_traits@D@std@@V?$allocator@D@2@@4@@Z ; thatboy::Base64::encode
	test	al, al
	je	$LN2819@Encrypt
; File C:\Program Files (x86)\Microsoft Visual Studio\2019\Community\VC\Tools\MSVC\14.24.28314\include\xstring

; 2161 :         return _BUF_SIZE <= _Myres;

	cmp	DWORD PTR _chunkBuff$169[ebp+20], 16	; 00000010H

; 2143 :         value_type* _Result = _Bx._Buf;

	lea	edx, DWORD PTR _chunkBuff$169[ebp]
; File C:\Program Files (x86)\Microsoft Visual Studio\2019\Community\VC\Tools\MSVC\14.24.28314\include\vector

; 1108 :             const auto _Oldcapacity = static_cast<size_type>(_Myend - _Myfirst);

	mov	ecx, DWORD PTR _tdatChunk$[ebp+24]
; File C:\Program Files (x86)\Microsoft Visual Studio\2019\Community\VC\Tools\MSVC\14.24.28314\include\xstring

; 2143 :         value_type* _Result = _Bx._Buf;

	lea	eax, DWORD PTR _chunkBuff$169[ebp]

; 2144 :         if (_Large_string_engaged()) {

	cmovae	edx, DWORD PTR _chunkBuff$169[ebp]

; 3401 :         return iterator(

	add	edx, DWORD PTR _chunkBuff$169[ebp+16]

; 2161 :         return _BUF_SIZE <= _Myres;

	cmp	DWORD PTR _chunkBuff$169[ebp+20], 16	; 00000010H
; File C:\Program Files (x86)\Microsoft Visual Studio\2019\Community\VC\Tools\MSVC\14.24.28314\include\vector

; 1108 :             const auto _Oldcapacity = static_cast<size_type>(_Myend - _Myfirst);

	mov	esi, DWORD PTR _tdatChunk$[ebp+16]
; File C:\Program Files (x86)\Microsoft Visual Studio\2019\Community\VC\Tools\MSVC\14.24.28314\include\xstring

; 2144 :         if (_Large_string_engaged()) {

	cmovae	eax, DWORD PTR _chunkBuff$169[ebp]
; File C:\Program Files (x86)\Microsoft Visual Studio\2019\Community\VC\Tools\MSVC\14.24.28314\include\vector

; 1108 :             const auto _Oldcapacity = static_cast<size_type>(_Myend - _Myfirst);

	sub	ecx, esi
; File C:\Program Files (x86)\Microsoft Visual Studio\2019\Community\VC\Tools\MSVC\14.24.28314\include\xutility

; 1647 :         return _Last - _First; // assume the iterator will do debug checking

	sub	edx, eax
; File C:\Program Files (x86)\Microsoft Visual Studio\2019\Community\VC\Tools\MSVC\14.24.28314\include\xstring

; 2144 :         if (_Large_string_engaged()) {

	mov	DWORD PTR __Result$2$[ebp], eax
; File C:\Program Files (x86)\Microsoft Visual Studio\2019\Community\VC\Tools\MSVC\14.24.28314\include\xutility

; 1647 :         return _Last - _First; // assume the iterator will do debug checking

	mov	DWORD PTR __Count$1$[ebp], edx
; File C:\Program Files (x86)\Microsoft Visual Studio\2019\Community\VC\Tools\MSVC\14.24.28314\include\vector

; 1109 :             if (_Newsize > _Oldcapacity) {

	cmp	edx, ecx
	jbe	$LN2112@Encrypt

; 1286 :         if (_Newsize > max_size()) {

	cmp	edx, 2147483647				; 7fffffffH
	ja	$LN2820@Encrypt

; 1622 :         if (_Oldcapacity > max_size() - _Oldcapacity / 2) {

	mov	edi, ecx
	mov	eax, 2147483647				; 7fffffffH
	shr	edi, 1
	sub	eax, edi
	cmp	ecx, eax
	jbe	SHORT $LN2064@Encrypt

; 1623 :             return _Newsize; // geometric growth would overflow

	mov	edi, edx
	jmp	SHORT $LN2065@Encrypt
$LN2064@Encrypt:

; 1624 :         }
; 1625 : 
; 1626 :         const size_type _Geometric = _Oldcapacity + _Oldcapacity / 2;

	add	edi, ecx

; 1627 : 
; 1628 :         if (_Geometric < _Newsize) {

	cmp	edi, edx
	cmovb	edi, edx
$LN2065@Encrypt:

; 1292 :         if (_Myfirst) { // destroy and deallocate old array

	test	esi, esi
	je	SHORT $LN2061@Encrypt
; File C:\Program Files (x86)\Microsoft Visual Studio\2019\Community\VC\Tools\MSVC\14.24.28314\include\xmemory

; 190  :     if (_Bytes >= _Big_allocation_threshold) { // boost the alignment of big allocations to help autovectorization

	cmp	ecx, 4096				; 00001000H
	jb	SHORT $LN2083@Encrypt

; 111  :     const uintptr_t _Ptr_container   = _Ptr_user[-1];

	mov	edx, DWORD PTR [esi-4]
	add	ecx, 35					; 00000023H
	sub	esi, edx

; 112  : 
; 113  :     // If the following asserts, it likely means that we are performing
; 114  :     // an aligned delete on memory coming from an unaligned allocation.
; 115  :     _STL_ASSERT(_Ptr_user[-2] == _Big_allocation_sentinel, "invalid argument");
; 116  : 
; 117  :     // Extra paranoia on aligned allocation/deallocation; ensure _Ptr_container is
; 118  :     // in range [_Min_back_shift, _Non_user_size]
; 119  : #ifdef _DEBUG
; 120  :     constexpr uintptr_t _Min_back_shift = 2 * sizeof(void*);
; 121  : #else // ^^^ _DEBUG ^^^ // vvv !_DEBUG vvv
; 122  :     constexpr uintptr_t _Min_back_shift = sizeof(void*);
; 123  : #endif // _DEBUG
; 124  :     const uintptr_t _Back_shift = reinterpret_cast<uintptr_t>(_Ptr) - _Ptr_container;
; 125  :     _STL_VERIFY(_Back_shift >= _Min_back_shift && _Back_shift <= _Non_user_size, "invalid argument");

	lea	eax, DWORD PTR [esi-4]
	cmp	eax, 31					; 0000001fH
	ja	$LN2346@Encrypt

; 126  :     _Ptr = reinterpret_cast<void*>(_Ptr_container);

	mov	esi, edx
$LN2083@Encrypt:

; 195  :     ::operator delete(_Ptr, _Bytes);

	push	ecx
	push	esi
	call	??3@YAXPAXI@Z				; operator delete
	add	esp, 8
; File C:\Program Files (x86)\Microsoft Visual Studio\2019\Community\VC\Tools\MSVC\14.24.28314\include\vector

; 1296 :             _Myfirst = pointer();

	mov	DWORD PTR _tdatChunk$[ebp+16], 0

; 1297 :             _Mylast  = pointer();

	mov	DWORD PTR _tdatChunk$[ebp+20], 0

; 1298 :             _Myend   = pointer();

	mov	DWORD PTR _tdatChunk$[ebp+24], 0
$LN2061@Encrypt:
; File C:\Program Files (x86)\Microsoft Visual Studio\2019\Community\VC\Tools\MSVC\14.24.28314\include\xmemory

; 174  :     if (_Bytes >= _Big_allocation_threshold) { // boost the alignment of big allocations to help autovectorization

	cmp	edi, 4096				; 00001000H
	jb	SHORT $LN2092@Encrypt

; 89   :     const size_t _Block_size = _Non_user_size + _Bytes;

	lea	eax, DWORD PTR [edi+35]

; 90   :     if (_Block_size <= _Bytes) {

	cmp	eax, edi
	jbe	$LN2821@Encrypt

; 51   :         return ::operator new(_Bytes);

	push	eax
	call	DWORD PTR __imp_??2@YAPAXI@Z
	add	esp, 4

; 95   :     _STL_VERIFY(_Ptr_container != 0, "invalid argument"); // validate even in release since we're doing p[-1]

	test	eax, eax
	je	$LN2346@Encrypt

; 96   :     void* const _Ptr = reinterpret_cast<void*>((_Ptr_container + _Non_user_size) & ~(_Big_allocation_alignment - 1));

	lea	esi, DWORD PTR [eax+35]
	and	esi, -32				; ffffffe0H

; 97   :     static_cast<uintptr_t*>(_Ptr)[-1] = _Ptr_container;

	mov	DWORD PTR [esi-4], eax

; 175  :         return _Allocate_manually_vector_aligned<_Traits>(_Bytes);

	jmp	SHORT $LN2091@Encrypt
$LN2092@Encrypt:

; 176  :     }
; 177  : #endif // defined(_M_IX86) || defined(_M_X64)
; 178  : 
; 179  :     if (_Bytes != 0) {

	test	edi, edi
	je	SHORT $LN2093@Encrypt

; 51   :         return ::operator new(_Bytes);

	push	edi
	call	DWORD PTR __imp_??2@YAPAXI@Z
	add	esp, 4

; 180  :         return _Traits::_Allocate(_Bytes);

	mov	esi, eax
	jmp	SHORT $LN2091@Encrypt
$LN2093@Encrypt:

; 181  :     }
; 182  : 
; 183  :     return nullptr;

	xor	esi, esi
$LN2091@Encrypt:
	mov	edx, DWORD PTR __Count$1$[ebp]
; File C:\Program Files (x86)\Microsoft Visual Studio\2019\Community\VC\Tools\MSVC\14.24.28314\include\vector

; 1649 :         _Myend             = _Newvec + _Newcapacity;

	lea	eax, DWORD PTR [esi+edi]
	mov	DWORD PTR _tdatChunk$[ebp+24], eax
	mov	eax, DWORD PTR __Result$2$[ebp]

; 1629 :             return _Newsize; // geometric growth would be insufficient
; 1630 :         }
; 1631 : 
; 1632 :         return _Geometric; // geometric growth is sufficient
; 1633 :     }
; 1634 : 
; 1635 :     // _Buy is an ABI zombie name
; 1636 :     void _Buy_raw(const size_type _Newcapacity) {
; 1637 :         // allocate array with _Newcapacity elements
; 1638 :         auto& _My_data    = _Mypair._Myval2;
; 1639 :         pointer& _Myfirst = _My_data._Myfirst;
; 1640 :         pointer& _Mylast  = _My_data._Mylast;
; 1641 :         pointer& _Myend   = _My_data._Myend;
; 1642 : 
; 1643 :         _STL_INTERNAL_CHECK(!_Myfirst && !_Mylast && !_Myend); // check that *this is tidy
; 1644 :         _STL_INTERNAL_CHECK(0 < _Newcapacity && _Newcapacity <= max_size());
; 1645 : 
; 1646 :         const auto _Newvec = _Getal().allocate(_Newcapacity);
; 1647 :         _Myfirst           = _Newvec;

	mov	DWORD PTR _tdatChunk$[ebp+16], esi

; 1648 :         _Mylast            = _Newvec;

	mov	DWORD PTR _tdatChunk$[ebp+20], esi
$LN2112@Encrypt:
; File C:\Program Files (x86)\Microsoft Visual Studio\2019\Community\VC\Tools\MSVC\14.24.28314\include\xutility

; 3312 :     _CSTD memmove(_Dest_ch, _First_ch, _Count);

	push	edx
	push	eax
	push	esi
	call	_memmove

; 3313 :     return reinterpret_cast<_OutIt>(_Dest_ch + _Count);

	mov	edi, DWORD PTR __Count$1$[ebp]
	add	esp, 12					; 0000000cH
	add	edi, esi
; File E:\Visual Studio Application\\ThatboyEncryptFileEncoder\ThatboyEncrypt.cpp

; 123  : 		for (size_t i = 0; i < tdatChunk.compressData.size() / 4; i++)

	xor	ecx, ecx
	mov	esi, DWORD PTR _tdatChunk$[ebp+16]
	mov	eax, edi
	sub	eax, esi
; File C:\Program Files (x86)\Microsoft Visual Studio\2019\Community\VC\Tools\MSVC\14.24.28314\include\vector

; 1113 :             _Mylast = _Refancy<pointer>(_Copy_memmove(_First, _Last, _Unfancy(_Myfirst)));

	mov	DWORD PTR _tdatChunk$[ebp+20], edi
; File E:\Visual Studio Application\\ThatboyEncryptFileEncoder\ThatboyEncrypt.cpp

; 123  : 		for (size_t i = 0; i < tdatChunk.compressData.size() / 4; i++)

	test	eax, -4					; fffffffcH
	jbe	SHORT $LN12@Encrypt
	mov	edx, DWORD PTR tv9562[ebp]
$LL13@Encrypt:

; 124  : 			((DWORD_PTR)tdatChunk.compressData.data())[i] ^= curXORCode;

	mov	eax, DWORD PTR [esi+ecx*4]
	xor	eax, edx
	xor	eax, 11184810				; 00aaaaaaH
	mov	DWORD PTR [esi+ecx*4], eax
	inc	ecx
; File C:\Program Files (x86)\Microsoft Visual Studio\2019\Community\VC\Tools\MSVC\14.24.28314\include\vector

; 1485 :         return static_cast<size_type>(_My_data._Mylast - _My_data._Myfirst);

	mov	edi, DWORD PTR _tdatChunk$[ebp+20]
	mov	eax, edi
	mov	esi, DWORD PTR _tdatChunk$[ebp+16]
	sub	eax, esi
; File E:\Visual Studio Application\\ThatboyEncryptFileEncoder\ThatboyEncrypt.cpp

; 123  : 		for (size_t i = 0; i < tdatChunk.compressData.size() / 4; i++)

	shr	eax, 2
	cmp	ecx, eax
	jb	SHORT $LL13@Encrypt
$LN12@Encrypt:
; File C:\Program Files (x86)\Microsoft Visual Studio\2019\Community\VC\Tools\MSVC\14.24.28314\include\vector

; 1485 :         return static_cast<size_type>(_My_data._Mylast - _My_data._Myfirst);

	sub	edi, esi
; File E:\Visual Studio Application\\ThatboyEncryptFileEncoder\ThatboyEncrypt.cpp

; 125  : 		for (size_t i = (tdatChunk.compressData.size() / 4) * 4; i < tdatChunk.compressData.size(); i++)

	mov	edx, edi
	and	edx, -4					; fffffffcH
	cmp	edx, edi
	jae	SHORT $LN15@Encrypt
	npad	11
$LL16@Encrypt:

; 126  : 			tdatChunk.compressData[i] ^= curXORCode && (0XFF << (i % 4 - 1) * 8);

	cmp	DWORD PTR tv9562[ebp], 11184810		; 00aaaaaaH
	je	SHORT $LN48@Encrypt
	mov	eax, edx
	and	eax, 3
	lea	ecx, DWORD PTR [eax*8-8]
	mov	eax, 255				; 000000ffH
	shl	eax, cl
	test	eax, eax
	je	SHORT $LN48@Encrypt
	mov	cl, 1
	jmp	SHORT $LN49@Encrypt
$LN48@Encrypt:
	xor	cl, cl
$LN49@Encrypt:
	xor	BYTE PTR [esi+edx], cl
; File C:\Program Files (x86)\Microsoft Visual Studio\2019\Community\VC\Tools\MSVC\14.24.28314\include\vector

; 1505 :         return _My_data._Myfirst[_Pos];

	lea	eax, DWORD PTR [esi+edx]

; 1485 :         return static_cast<size_type>(_My_data._Mylast - _My_data._Myfirst);

	mov	eax, DWORD PTR _tdatChunk$[ebp+20]
; File E:\Visual Studio Application\\ThatboyEncryptFileEncoder\ThatboyEncrypt.cpp

; 125  : 		for (size_t i = (tdatChunk.compressData.size() / 4) * 4; i < tdatChunk.compressData.size(); i++)

	inc	edx
; File C:\Program Files (x86)\Microsoft Visual Studio\2019\Community\VC\Tools\MSVC\14.24.28314\include\vector

; 1485 :         return static_cast<size_type>(_My_data._Mylast - _My_data._Myfirst);

	mov	esi, DWORD PTR _tdatChunk$[ebp+16]
	sub	eax, esi
; File E:\Visual Studio Application\\ThatboyEncryptFileEncoder\ThatboyEncrypt.cpp

; 125  : 		for (size_t i = (tdatChunk.compressData.size() / 4) * 4; i < tdatChunk.compressData.size(); i++)

	cmp	edx, eax
	jb	SHORT $LL16@Encrypt
$LN15@Encrypt:

; 127  : 
; 128  : 		tdatChunk.doFigure(thdrChunk.crcEncodeType);

	push	DWORD PTR _thdrChunk$[ebp+16]
	lea	ecx, DWORD PTR _tdatChunk$[ebp]
	call	?doFigure@TDAT_Chunk@thatboy@@UAEXE@Z	; thatboy::TDAT_Chunk::doFigure

; 129  : 		tdatChunk.write(ofs);

	lea	eax, DWORD PTR _ofs$[ebp]
	push	eax
	lea	ecx, DWORD PTR _tdatChunk$[ebp]
	call	?write@TDAT_Chunk@thatboy@@UBEAAV?$basic_ostream@DU?$char_traits@D@std@@@std@@AAV34@@Z ; thatboy::TDAT_Chunk::write

; 130  : 		if (flushChunkWrite)

	cmp	BYTE PTR _flushChunkWrite$[ebp], 0
	je	SHORT $LN40@Encrypt

; 131  : 			ofs.flush();

	lea	ecx, DWORD PTR _ofs$[ebp]
	call	DWORD PTR __imp_?flush@?$basic_ostream@DU?$char_traits@D@std@@@std@@QAEAAV12@XZ
$LN40@Encrypt:

; 133  : 		callBackSetProcessBarPos(chunkCountToProcessPos(i + 1));

	mov	ecx, DWORD PTR ?callBackSetProcessBarPos@EncryptFileDoModal@thatboy@@3V?$function@$$A6A_NH@Z@std@@A+36
	mov	esi, DWORD PTR tv9535[ebp]
	test	ecx, ecx
	je	SHORT $LN42@Encrypt

; 55   : 		return x * 100 / signature.chunkCount;

	xor	edx, edx
	mov	eax, esi
	div	DWORD PTR _signature$[ebp+8]
; File C:\Program Files (x86)\Microsoft Visual Studio\2019\Community\VC\Tools\MSVC\14.24.28314\include\functional

; 969  :         return _Impl->_Do_call(_STD forward<_Types>(_Args)...);

	lea	edx, DWORD PTR _<_Args_0>$[ebp]
; File E:\Visual Studio Application\\ThatboyEncryptFileEncoder\ThatboyEncrypt.cpp

; 133  : 		callBackSetProcessBarPos(chunkCountToProcessPos(i + 1));

	mov	DWORD PTR _<_Args_0>$[ebp], eax
; File C:\Program Files (x86)\Microsoft Visual Studio\2019\Community\VC\Tools\MSVC\14.24.28314\include\functional

; 969  :         return _Impl->_Do_call(_STD forward<_Types>(_Args)...);

	mov	eax, DWORD PTR [ecx]
	push	edx
	mov	eax, DWORD PTR [eax+8]
	call	eax
; File E:\Visual Studio Application\\ThatboyEncryptFileEncoder\ThatboyEncrypt.cpp

; 133  : 		callBackSetProcessBarPos(chunkCountToProcessPos(i + 1));

	test	al, al
	je	SHORT $LN2823@Encrypt
$LN42@Encrypt:

; 134  : 	}

	mov	BYTE PTR __$EHRec$[ebp+8], 10		; 0000000aH
; File C:\Program Files (x86)\Microsoft Visual Studio\2019\Community\VC\Tools\MSVC\14.24.28314\include\xstring

; 2161 :         return _BUF_SIZE <= _Myres;

	mov	edx, DWORD PTR _chunkBuff$169[ebp+20]
	cmp	edx, 16					; 00000010H

; 4187 :         if (_Mypair._Myval2._Large_string_engaged()) {

	jb	SHORT $LN2339@Encrypt
; File C:\Program Files (x86)\Microsoft Visual Studio\2019\Community\VC\Tools\MSVC\14.24.28314\include\xmemory

; 780  :         _Deallocate<_New_alignof<_Ty>>(_Ptr, sizeof(_Ty) * _Count);

	mov	ecx, DWORD PTR _chunkBuff$169[ebp]
; File C:\Program Files (x86)\Microsoft Visual Studio\2019\Community\VC\Tools\MSVC\14.24.28314\include\xstring

; 4191 :             _Al.deallocate(_Ptr, _Mypair._Myval2._Myres + 1);

	inc	edx
; File C:\Program Files (x86)\Microsoft Visual Studio\2019\Community\VC\Tools\MSVC\14.24.28314\include\xmemory

; 780  :         _Deallocate<_New_alignof<_Ty>>(_Ptr, sizeof(_Ty) * _Count);

	mov	eax, ecx

; 190  :     if (_Bytes >= _Big_allocation_threshold) { // boost the alignment of big allocations to help autovectorization

	cmp	edx, 4096				; 00001000H
	jb	SHORT $LN2349@Encrypt

; 111  :     const uintptr_t _Ptr_container   = _Ptr_user[-1];

	mov	ecx, DWORD PTR [ecx-4]
	add	edx, 35					; 00000023H
	sub	eax, ecx

; 112  : 
; 113  :     // If the following asserts, it likely means that we are performing
; 114  :     // an aligned delete on memory coming from an unaligned allocation.
; 115  :     _STL_ASSERT(_Ptr_user[-2] == _Big_allocation_sentinel, "invalid argument");
; 116  : 
; 117  :     // Extra paranoia on aligned allocation/deallocation; ensure _Ptr_container is
; 118  :     // in range [_Min_back_shift, _Non_user_size]
; 119  : #ifdef _DEBUG
; 120  :     constexpr uintptr_t _Min_back_shift = 2 * sizeof(void*);
; 121  : #else // ^^^ _DEBUG ^^^ // vvv !_DEBUG vvv
; 122  :     constexpr uintptr_t _Min_back_shift = sizeof(void*);
; 123  : #endif // _DEBUG
; 124  :     const uintptr_t _Back_shift = reinterpret_cast<uintptr_t>(_Ptr) - _Ptr_container;
; 125  :     _STL_VERIFY(_Back_shift >= _Min_back_shift && _Back_shift <= _Non_user_size, "invalid argument");

	add	eax, -4					; fffffffcH
	cmp	eax, 31					; 0000001fH
	ja	SHORT $LN2346@Encrypt
$LN2349@Encrypt:

; 195  :     ::operator delete(_Ptr, _Bytes);

	push	edx
	push	ecx
	call	??3@YAXPAXI@Z				; operator delete
	add	esp, 8
$LN2339@Encrypt:
; File E:\Visual Studio Application\\ThatboyEncryptFileEncoder\ThatboyEncrypt.cpp

; 107  : 	for (size_t i = 0; i < signature.chunkCount; i++)

	mov	eax, DWORD PTR _i$1$[ebp]
	add	esi, 100				; 00000064H
	mov	edi, DWORD PTR _signature$[ebp+8]
	inc	eax
	mov	DWORD PTR tv9535[ebp], esi
	mov	esi, DWORD PTR _fileContentBuff$[ebp]
	mov	DWORD PTR _i$1$[ebp], eax
	cmp	eax, edi
	jae	SHORT $LN2851@Encrypt
	mov	edi, DWORD PTR _fileContentBuff$[ebp+4]
	mov	DWORD PTR __Ptr$1$[ebp], esi
	jmp	$LL10@Encrypt
$LN2823@Encrypt:

; 133  : 		callBackSetProcessBarPos(chunkCountToProcessPos(i + 1));

	mov	edi, 1
	jmp	SHORT $LN80@Encrypt
$LN2819@Encrypt:
	mov	edi, 10					; 0000000aH
$LN80@Encrypt:
; File C:\Program Files (x86)\Microsoft Visual Studio\2019\Community\VC\Tools\MSVC\14.24.28314\include\xstring

; 2161 :         return _BUF_SIZE <= _Myres;

	mov	edx, DWORD PTR _chunkBuff$169[ebp+20]
	cmp	edx, 16					; 00000010H

; 4187 :         if (_Mypair._Myval2._Large_string_engaged()) {

	jb	SHORT $LN2152@Encrypt
; File C:\Program Files (x86)\Microsoft Visual Studio\2019\Community\VC\Tools\MSVC\14.24.28314\include\xmemory

; 780  :         _Deallocate<_New_alignof<_Ty>>(_Ptr, sizeof(_Ty) * _Count);

	mov	ecx, DWORD PTR _chunkBuff$169[ebp]
; File C:\Program Files (x86)\Microsoft Visual Studio\2019\Community\VC\Tools\MSVC\14.24.28314\include\xstring

; 4191 :             _Al.deallocate(_Ptr, _Mypair._Myval2._Myres + 1);

	inc	edx
; File C:\Program Files (x86)\Microsoft Visual Studio\2019\Community\VC\Tools\MSVC\14.24.28314\include\xmemory

; 780  :         _Deallocate<_New_alignof<_Ty>>(_Ptr, sizeof(_Ty) * _Count);

	mov	eax, ecx

; 190  :     if (_Bytes >= _Big_allocation_threshold) { // boost the alignment of big allocations to help autovectorization

	cmp	edx, 4096				; 00001000H
	jb	SHORT $LN2162@Encrypt

; 111  :     const uintptr_t _Ptr_container   = _Ptr_user[-1];

	mov	ecx, DWORD PTR [ecx-4]
	add	edx, 35					; 00000023H
	sub	eax, ecx

; 112  : 
; 113  :     // If the following asserts, it likely means that we are performing
; 114  :     // an aligned delete on memory coming from an unaligned allocation.
; 115  :     _STL_ASSERT(_Ptr_user[-2] == _Big_allocation_sentinel, "invalid argument");
; 116  : 
; 117  :     // Extra paranoia on aligned allocation/deallocation; ensure _Ptr_container is
; 118  :     // in range [_Min_back_shift, _Non_user_size]
; 119  : #ifdef _DEBUG
; 120  :     constexpr uintptr_t _Min_back_shift = 2 * sizeof(void*);
; 121  : #else // ^^^ _DEBUG ^^^ // vvv !_DEBUG vvv
; 122  :     constexpr uintptr_t _Min_back_shift = sizeof(void*);
; 123  : #endif // _DEBUG
; 124  :     const uintptr_t _Back_shift = reinterpret_cast<uintptr_t>(_Ptr) - _Ptr_container;
; 125  :     _STL_VERIFY(_Back_shift >= _Min_back_shift && _Back_shift <= _Non_user_size, "invalid argument");

	add	eax, -4					; fffffffcH
	cmp	eax, 31					; 0000001fH
	jbe	SHORT $LN2162@Encrypt
$LN2346@Encrypt:
	call	DWORD PTR __imp___invalid_parameter_noinfo_noreturn
$LN2162@Encrypt:

; 195  :     ::operator delete(_Ptr, _Bytes);

	push	edx
	push	ecx
	call	??3@YAXPAXI@Z				; operator delete
	add	esp, 8
$LN2152@Encrypt:
	mov	esi, DWORD PTR _fileContentBuff$[ebp]
	jmp	$LN83@Encrypt
$LN2853@Encrypt:
; File E:\Visual Studio Application\\ThatboyEncryptFileEncoder\ThatboyEncrypt.cpp

; 107  : 	for (size_t i = 0; i < signature.chunkCount; i++)

	mov	edi, DWORD PTR _signature$[ebp+8]
$LN2851@Encrypt:
; File C:\Program Files (x86)\Microsoft Visual Studio\2019\Community\VC\Tools\MSVC\14.24.28314\include\functional

; 982  :         return !_Getimpl();

	mov	ecx, DWORD PTR ?callBackSetProcessBarPos@EncryptFileDoModal@thatboy@@3V?$function@$$A6A_NH@Z@std@@A+36
	test	ecx, ecx
; File E:\Visual Studio Application\\ThatboyEncryptFileEncoder\ThatboyEncrypt.cpp

; 135  : 	callBackSetProcessBarPos(chunkCountToProcessPos(signature.chunkCount));

	je	SHORT $LN2852@Encrypt

; 55   : 		return x * 100 / signature.chunkCount;

	imul	eax, edi, 100
	xor	edx, edx
	div	edi
; File C:\Program Files (x86)\Microsoft Visual Studio\2019\Community\VC\Tools\MSVC\14.24.28314\include\functional

; 969  :         return _Impl->_Do_call(_STD forward<_Types>(_Args)...);

	lea	edx, DWORD PTR _<_Args_0>$[ebp]
; File E:\Visual Studio Application\\ThatboyEncryptFileEncoder\ThatboyEncrypt.cpp

; 135  : 	callBackSetProcessBarPos(chunkCountToProcessPos(signature.chunkCount));

	mov	DWORD PTR _<_Args_0>$[ebp], eax
; File C:\Program Files (x86)\Microsoft Visual Studio\2019\Community\VC\Tools\MSVC\14.24.28314\include\functional

; 969  :         return _Impl->_Do_call(_STD forward<_Types>(_Args)...);

	mov	eax, DWORD PTR [ecx]
	push	edx
	mov	eax, DWORD PTR [eax+8]
	call	eax
; File E:\Visual Studio Application\\ThatboyEncryptFileEncoder\ThatboyEncrypt.cpp

; 135  : 	callBackSetProcessBarPos(chunkCountToProcessPos(signature.chunkCount));

	test	al, al
	jne	SHORT $LN2852@Encrypt
	mov	edi, 1
	jmp	$LN83@Encrypt
$LN2852@Encrypt:
; File C:\Program Files (x86)\Microsoft Visual Studio\2019\Community\VC\Tools\MSVC\14.24.28314\include\functional

; 982  :         return !_Getimpl();

	cmp	DWORD PTR ?callBackStatusUpdate@EncryptFileDoModal@thatboy@@3V?$function@$$A6A_NV?$basic_string@DU?$char_traits@D@std@@V?$allocator@D@2@@std@@@Z@std@@A+36, 0
; File E:\Visual Studio Application\\ThatboyEncryptFileEncoder\ThatboyEncrypt.cpp

; 136  : 	callBackStatusUpdate("");

	je	SHORT $LN46@Encrypt
	sub	esp, 24					; 00000018H
	mov	ecx, esp
; File C:\Program Files (x86)\Microsoft Visual Studio\2019\Community\VC\Tools\MSVC\14.24.28314\include\xstring

; 2337 :         assign(_Ptr);

	push	OFFSET ??_C@_0BD@EEDJJGAN@?N?D?$LM?$PO?J?$PN?$LO?$NN?$LM?S?C?$NM?M?j?$LD?I?$KB?$KD@

; 4178 :         _Mypair._Myval2._Mysize = 0;

	mov	DWORD PTR [ecx+16], 0

; 4179 :         _Mypair._Myval2._Myres  = _BUF_SIZE - 1;

	mov	DWORD PTR [ecx+20], 15			; 0000000fH

; 4180 :         // the _Traits::assign is last so the codegen doesn't think the char
; 4181 :         // write can alias this
; 4182 :         _Traits::assign(_Mypair._Myval2._Bx._Buf[0], _Elem());

	mov	BYTE PTR [ecx], 0

; 2337 :         assign(_Ptr);

	call	?assign@?$basic_string@DU?$char_traits@D@std@@V?$allocator@D@2@@std@@QAEAAV12@QBD@Z ; std::basic_string<char,std::char_traits<char>,std::allocator<char> >::assign
; File E:\Visual Studio Application\\ThatboyEncryptFileEncoder\ThatboyEncrypt.cpp

; 136  : 	callBackStatusUpdate("");

	call	??R?$_Func_class@_NV?$basic_string@DU?$char_traits@D@std@@V?$allocator@D@2@@std@@@std@@QBE_NV?$basic_string@DU?$char_traits@D@std@@V?$allocator@D@2@@1@@Z ; std::_Func_class<bool,std::basic_string<char,std::char_traits<char>,std::allocator<char> > >::operator()
	test	al, al
	jne	SHORT $LN46@Encrypt
	mov	edi, 1
	jmp	$LN83@Encrypt
$LN46@Encrypt:
; File C:\Program Files (x86)\Microsoft Visual Studio\2019\Community\VC\Tools\MSVC\14.24.28314\include\fstream

; 376  :         if (_Myfile) { // put any homing sequence and close file

	cmp	DWORD PTR _ifs$[ebp+92], 0
	je	SHORT $LN2701@Encrypt

; 377  :             _Ans = this;

	lea	edi, DWORD PTR _ifs$[ebp+16]

; 378  :             if (!_Endwrite()) {

	mov	ecx, edi
	call	?_Endwrite@?$basic_filebuf@DU?$char_traits@D@std@@@std@@IAE_NXZ ; std::basic_filebuf<char,std::char_traits<char> >::_Endwrite

; 379  :                 _Ans = nullptr;
; 380  :             }
; 381  : 
; 382  :             if (_CSTD fclose(_Myfile) != 0) {

	push	DWORD PTR _ifs$[ebp+92]
	xor	ecx, ecx
	test	al, al
	cmove	edi, ecx
	call	DWORD PTR __imp__fclose
	add	esp, 4
	test	eax, eax
	je	SHORT $LN2702@Encrypt
$LN2701@Encrypt:

; 702  :         _Closef    = _Which == _Openfl;

	xor	edi, edi
$LN2702@Encrypt:

; 703  :         _Wrotesome = false;
; 704  : 
; 705  :         _Mysb::_Init(); // initialize stream buffer base object

	lea	ecx, DWORD PTR _ifs$[ebp+16]
	mov	BYTE PTR _ifs$[ebp+88], 0
	mov	BYTE PTR _ifs$[ebp+77], 0
	call	DWORD PTR __imp_?_Init@?$basic_streambuf@DU?$char_traits@D@std@@@std@@IAEXXZ

; 706  : 
; 707  :         if (_File && sizeof(_Elem) == 1) { // point inside C stream with [first, first + count) buffer
; 708  :             _Elem** _Pb = nullptr;
; 709  :             _Elem** _Pn = nullptr;
; 710  :             int* _Nr    = nullptr;
; 711  : 
; 712  :             ::_get_stream_buffer_pointers(
; 713  :                 _File, reinterpret_cast<char***>(&_Pb), reinterpret_cast<char***>(&_Pn), &_Nr);
; 714  :             int* _Nw = _Nr;
; 715  : 
; 716  :             _Mysb::_Init(_Pb, _Pn, _Nr, _Pb, _Pn, _Nw);
; 717  :         }
; 718  : 
; 719  :         _Myfile = _File;
; 720  :         _State  = _Stinit;

	mov	eax, DWORD PTR ?_Stinit@?1??_Init@?$basic_filebuf@DU?$char_traits@D@std@@@std@@IAEXPAU_iobuf@@W4_Initfl@23@@Z@4U_Mbstatet@@A
	mov	DWORD PTR _ifs$[ebp+80], eax
	mov	eax, DWORD PTR ?_Stinit@?1??_Init@?$basic_filebuf@DU?$char_traits@D@std@@@std@@IAEXPAU_iobuf@@W4_Initfl@23@@Z@4U_Mbstatet@@A+4
	mov	DWORD PTR _ifs$[ebp+92], 0
	mov	DWORD PTR _ifs$[ebp+84], eax

; 721  :         _Pcvt   = nullptr; // pointer to codecvt facet

	mov	DWORD PTR _ifs$[ebp+72], 0

; 980  :         if (!_Filebuffer.close()) {

	test	edi, edi
	jne	SHORT $LN2698@Encrypt

; 981  :             _Myios::setstate(ios_base::failbit);

	mov	eax, DWORD PTR _ifs$[ebp]
	lea	ecx, DWORD PTR _ifs$[ebp]
	push	edi
	push	2
	mov	eax, DWORD PTR [eax+4]
	add	ecx, eax
	call	DWORD PTR __imp_?setstate@?$basic_ios@DU?$char_traits@D@std@@@std@@QAEXH_N@Z
$LN2698@Encrypt:
; File E:\Visual Studio Application\\ThatboyEncryptFileEncoder\ThatboyEncrypt.cpp

; 139  : 	tendChunk.doFigure(thdrChunk.crcEncodeType);

	push	DWORD PTR _thdrChunk$[ebp+16]
	lea	ecx, DWORD PTR _tendChunk$[ebp]
	call	?doFigure@TEND_Chunk@thatboy@@UAEXE@Z	; thatboy::TEND_Chunk::doFigure

; 140  : 	tendChunk.write(ofs);

	lea	eax, DWORD PTR _ofs$[ebp]
	push	eax
	lea	ecx, DWORD PTR _tendChunk$[ebp]
	call	?write@Chunk@thatboy@@UBEAAV?$basic_ostream@DU?$char_traits@D@std@@@std@@AAV34@@Z ; thatboy::Chunk::write
; File C:\Program Files (x86)\Microsoft Visual Studio\2019\Community\VC\Tools\MSVC\14.24.28314\include\fstream

; 376  :         if (_Myfile) { // put any homing sequence and close file

	cmp	DWORD PTR _ofs$[ebp+80], 0
	je	SHORT $LN2715@Encrypt

; 377  :             _Ans = this;

	lea	edi, DWORD PTR _ofs$[ebp+4]

; 378  :             if (!_Endwrite()) {

	mov	ecx, edi
	call	?_Endwrite@?$basic_filebuf@DU?$char_traits@D@std@@@std@@IAE_NXZ ; std::basic_filebuf<char,std::char_traits<char> >::_Endwrite

; 379  :                 _Ans = nullptr;
; 380  :             }
; 381  : 
; 382  :             if (_CSTD fclose(_Myfile) != 0) {

	push	DWORD PTR _ofs$[ebp+80]
	xor	ecx, ecx
	test	al, al
	cmove	edi, ecx
	call	DWORD PTR __imp__fclose
	add	esp, 4
	test	eax, eax
	je	SHORT $LN2716@Encrypt
$LN2715@Encrypt:

; 702  :         _Closef    = _Which == _Openfl;

	xor	edi, edi
$LN2716@Encrypt:

; 703  :         _Wrotesome = false;
; 704  : 
; 705  :         _Mysb::_Init(); // initialize stream buffer base object

	lea	ecx, DWORD PTR _ofs$[ebp+4]
	mov	BYTE PTR _ofs$[ebp+76], 0
	mov	BYTE PTR _ofs$[ebp+65], 0
	call	DWORD PTR __imp_?_Init@?$basic_streambuf@DU?$char_traits@D@std@@@std@@IAEXXZ

; 706  : 
; 707  :         if (_File && sizeof(_Elem) == 1) { // point inside C stream with [first, first + count) buffer
; 708  :             _Elem** _Pb = nullptr;
; 709  :             _Elem** _Pn = nullptr;
; 710  :             int* _Nr    = nullptr;
; 711  : 
; 712  :             ::_get_stream_buffer_pointers(
; 713  :                 _File, reinterpret_cast<char***>(&_Pb), reinterpret_cast<char***>(&_Pn), &_Nr);
; 714  :             int* _Nw = _Nr;
; 715  : 
; 716  :             _Mysb::_Init(_Pb, _Pn, _Nr, _Pb, _Pn, _Nw);
; 717  :         }
; 718  : 
; 719  :         _Myfile = _File;
; 720  :         _State  = _Stinit;

	mov	eax, DWORD PTR ?_Stinit@?1??_Init@?$basic_filebuf@DU?$char_traits@D@std@@@std@@IAEXPAU_iobuf@@W4_Initfl@23@@Z@4U_Mbstatet@@A
	mov	DWORD PTR _ofs$[ebp+68], eax
	mov	eax, DWORD PTR ?_Stinit@?1??_Init@?$basic_filebuf@DU?$char_traits@D@std@@@std@@IAEXPAU_iobuf@@W4_Initfl@23@@Z@4U_Mbstatet@@A+4
	mov	DWORD PTR _ofs$[ebp+80], 0
	mov	DWORD PTR _ofs$[ebp+72], eax

; 721  :         _Pcvt   = nullptr; // pointer to codecvt facet

	mov	DWORD PTR _ofs$[ebp+60], 0

; 1173 :         if (!_Filebuffer.close()) {

	test	edi, edi
	jne	SHORT $LN2712@Encrypt

; 1174 :             _Myios::setstate(ios_base::failbit);

	mov	eax, DWORD PTR _ofs$[ebp]
	lea	ecx, DWORD PTR _ofs$[ebp]
	push	edi
	push	2
	mov	eax, DWORD PTR [eax+4]
	add	ecx, eax
	call	DWORD PTR __imp_?setstate@?$basic_ios@DU?$char_traits@D@std@@@std@@QAEXH_N@Z
$LN2712@Encrypt:
; File E:\Visual Studio Application\\ThatboyEncryptFileEncoder\ThatboyEncrypt.cpp

; 143  : 	return EncryptErrorCode::ENCRYPT_SUCCESS;

	xor	edi, edi
$LN83@Encrypt:
; File C:\Program Files (x86)\Microsoft Visual Studio\2019\Community\VC\Tools\MSVC\14.24.28314\include\vector

; 1697 :         if (_Myfirst) { // destroy and deallocate old array

	test	esi, esi
	je	SHORT $LN2726@Encrypt

; 1699 :             _Getal().deallocate(_Myfirst, static_cast<size_type>(_Myend - _Myfirst));

	mov	ecx, DWORD PTR _fileContentBuff$[ebp+8]
; File C:\Program Files (x86)\Microsoft Visual Studio\2019\Community\VC\Tools\MSVC\14.24.28314\include\xmemory

; 780  :         _Deallocate<_New_alignof<_Ty>>(_Ptr, sizeof(_Ty) * _Count);

	mov	eax, esi
; File C:\Program Files (x86)\Microsoft Visual Studio\2019\Community\VC\Tools\MSVC\14.24.28314\include\vector

; 1699 :             _Getal().deallocate(_Myfirst, static_cast<size_type>(_Myend - _Myfirst));

	sub	ecx, esi
; File C:\Program Files (x86)\Microsoft Visual Studio\2019\Community\VC\Tools\MSVC\14.24.28314\include\xmemory

; 190  :     if (_Bytes >= _Big_allocation_threshold) { // boost the alignment of big allocations to help autovectorization

	cmp	ecx, 4096				; 00001000H
	jb	SHORT $LN2742@Encrypt

; 111  :     const uintptr_t _Ptr_container   = _Ptr_user[-1];

	mov	esi, DWORD PTR [esi-4]
	add	ecx, 35					; 00000023H
	sub	eax, esi

; 112  : 
; 113  :     // If the following asserts, it likely means that we are performing
; 114  :     // an aligned delete on memory coming from an unaligned allocation.
; 115  :     _STL_ASSERT(_Ptr_user[-2] == _Big_allocation_sentinel, "invalid argument");
; 116  : 
; 117  :     // Extra paranoia on aligned allocation/deallocation; ensure _Ptr_container is
; 118  :     // in range [_Min_back_shift, _Non_user_size]
; 119  : #ifdef _DEBUG
; 120  :     constexpr uintptr_t _Min_back_shift = 2 * sizeof(void*);
; 121  : #else // ^^^ _DEBUG ^^^ // vvv !_DEBUG vvv
; 122  :     constexpr uintptr_t _Min_back_shift = sizeof(void*);
; 123  : #endif // _DEBUG
; 124  :     const uintptr_t _Back_shift = reinterpret_cast<uintptr_t>(_Ptr) - _Ptr_container;
; 125  :     _STL_VERIFY(_Back_shift >= _Min_back_shift && _Back_shift <= _Non_user_size, "invalid argument");

	add	eax, -4					; fffffffcH
	cmp	eax, 31					; 0000001fH
	ja	$LN2804@Encrypt
$LN2742@Encrypt:

; 195  :     ::operator delete(_Ptr, _Bytes);

	push	ecx
	push	esi
	call	??3@YAXPAXI@Z				; operator delete
	add	esp, 8
; File C:\Program Files (x86)\Microsoft Visual Studio\2019\Community\VC\Tools\MSVC\14.24.28314\include\vector

; 1703 :             _Myend   = pointer();

	jmp	SHORT $LN2726@Encrypt
$LN34@Encrypt:
	mov	edi, 2
$LN2726@Encrypt:
; File C:\Program Files (x86)\Microsoft Visual Studio\2019\Community\VC\Tools\MSVC\14.24.28314\include\fstream

; 1141 :     virtual __CLR_OR_THIS_CALL ~basic_ofstream() noexcept {}

	mov	eax, DWORD PTR _ofs$[ebp]
	mov	eax, DWORD PTR [eax+4]
	mov	DWORD PTR _ofs$[ebp+eax], OFFSET ??_7?$basic_ofstream@DU?$char_traits@D@std@@@std@@6B@
	mov	eax, DWORD PTR _ofs$[ebp]
	mov	ecx, DWORD PTR [eax+4]
	lea	eax, DWORD PTR [ecx-104]
	mov	DWORD PTR _ofs$[ebp+ecx-4], eax
	lea	ecx, DWORD PTR _ofs$[ebp+4]
	call	??1?$basic_filebuf@DU?$char_traits@D@std@@@std@@UAE@XZ ; std::basic_filebuf<char,std::char_traits<char> >::~basic_filebuf<char,std::char_traits<char> >
	lea	ecx, DWORD PTR _ofs$[ebp+8]
	call	DWORD PTR __imp_??1?$basic_ostream@DU?$char_traits@D@std@@@std@@UAE@XZ
	lea	ecx, DWORD PTR _ofs$[ebp+104]
	call	DWORD PTR __imp_??1?$basic_ios@DU?$char_traits@D@std@@@std@@UAE@XZ

; 948  :     virtual __CLR_OR_THIS_CALL ~basic_ifstream() noexcept {}

	mov	eax, DWORD PTR _ifs$[ebp]
	mov	eax, DWORD PTR [eax+4]
	mov	DWORD PTR _ifs$[ebp+eax], OFFSET ??_7?$basic_ifstream@DU?$char_traits@D@std@@@std@@6B@
	mov	eax, DWORD PTR _ifs$[ebp]
	mov	ecx, DWORD PTR [eax+4]
	lea	eax, DWORD PTR [ecx-112]
	mov	DWORD PTR _ifs$[ebp+ecx-4], eax
	lea	ecx, DWORD PTR _ifs$[ebp+16]
	call	??1?$basic_filebuf@DU?$char_traits@D@std@@@std@@UAE@XZ ; std::basic_filebuf<char,std::char_traits<char> >::~basic_filebuf<char,std::char_traits<char> >
	lea	ecx, DWORD PTR _ifs$[ebp+24]
	call	DWORD PTR __imp_??1?$basic_istream@DU?$char_traits@D@std@@@std@@UAE@XZ
	lea	ecx, DWORD PTR _ifs$[ebp+112]
	call	DWORD PTR __imp_??1?$basic_ios@DU?$char_traits@D@std@@@std@@UAE@XZ
$LN2753@Encrypt:
; File C:\Program Files (x86)\Microsoft Visual Studio\2019\Community\VC\Tools\MSVC\14.24.28314\include\vector

; 1697 :         if (_Myfirst) { // destroy and deallocate old array

	mov	ecx, DWORD PTR _tdatChunk$[ebp+16]
	test	ecx, ecx
	je	SHORT $LN2763@Encrypt

; 1699 :             _Getal().deallocate(_Myfirst, static_cast<size_type>(_Myend - _Myfirst));

	mov	edx, DWORD PTR _tdatChunk$[ebp+24]
; File C:\Program Files (x86)\Microsoft Visual Studio\2019\Community\VC\Tools\MSVC\14.24.28314\include\xmemory

; 780  :         _Deallocate<_New_alignof<_Ty>>(_Ptr, sizeof(_Ty) * _Count);

	mov	eax, ecx
; File C:\Program Files (x86)\Microsoft Visual Studio\2019\Community\VC\Tools\MSVC\14.24.28314\include\vector

; 1699 :             _Getal().deallocate(_Myfirst, static_cast<size_type>(_Myend - _Myfirst));

	sub	edx, ecx
; File C:\Program Files (x86)\Microsoft Visual Studio\2019\Community\VC\Tools\MSVC\14.24.28314\include\xmemory

; 190  :     if (_Bytes >= _Big_allocation_threshold) { // boost the alignment of big allocations to help autovectorization

	cmp	edx, 4096				; 00001000H
	jb	SHORT $LN2779@Encrypt

; 111  :     const uintptr_t _Ptr_container   = _Ptr_user[-1];

	mov	ecx, DWORD PTR [ecx-4]
	add	edx, 35					; 00000023H
	sub	eax, ecx

; 112  : 
; 113  :     // If the following asserts, it likely means that we are performing
; 114  :     // an aligned delete on memory coming from an unaligned allocation.
; 115  :     _STL_ASSERT(_Ptr_user[-2] == _Big_allocation_sentinel, "invalid argument");
; 116  : 
; 117  :     // Extra paranoia on aligned allocation/deallocation; ensure _Ptr_container is
; 118  :     // in range [_Min_back_shift, _Non_user_size]
; 119  : #ifdef _DEBUG
; 120  :     constexpr uintptr_t _Min_back_shift = 2 * sizeof(void*);
; 121  : #else // ^^^ _DEBUG ^^^ // vvv !_DEBUG vvv
; 122  :     constexpr uintptr_t _Min_back_shift = sizeof(void*);
; 123  : #endif // _DEBUG
; 124  :     const uintptr_t _Back_shift = reinterpret_cast<uintptr_t>(_Ptr) - _Ptr_container;
; 125  :     _STL_VERIFY(_Back_shift >= _Min_back_shift && _Back_shift <= _Non_user_size, "invalid argument");

	add	eax, -4					; fffffffcH
	cmp	eax, 31					; 0000001fH
	ja	SHORT $LN2804@Encrypt
$LN2779@Encrypt:

; 195  :     ::operator delete(_Ptr, _Bytes);

	push	edx
	push	ecx
	call	??3@YAXPAXI@Z				; operator delete
	add	esp, 8
; File C:\Program Files (x86)\Microsoft Visual Studio\2019\Community\VC\Tools\MSVC\14.24.28314\include\vector

; 1701 :             _Myfirst = pointer();

	mov	DWORD PTR _tdatChunk$[ebp+16], 0

; 1702 :             _Mylast  = pointer();

	mov	DWORD PTR _tdatChunk$[ebp+20], 0

; 1703 :             _Myend   = pointer();

	mov	DWORD PTR _tdatChunk$[ebp+24], 0
$LN2763@Encrypt:
; File C:\Program Files (x86)\Microsoft Visual Studio\2019\Community\VC\Tools\MSVC\14.24.28314\include\xstring

; 2161 :         return _BUF_SIZE <= _Myres;

	mov	edx, DWORD PTR _file$[ebp+20]
	cmp	edx, 16					; 00000010H

; 4187 :         if (_Mypair._Myval2._Large_string_engaged()) {

	jb	SHORT $LN2797@Encrypt
; File C:\Program Files (x86)\Microsoft Visual Studio\2019\Community\VC\Tools\MSVC\14.24.28314\include\xmemory

; 780  :         _Deallocate<_New_alignof<_Ty>>(_Ptr, sizeof(_Ty) * _Count);

	mov	ecx, DWORD PTR _file$[ebp]
; File C:\Program Files (x86)\Microsoft Visual Studio\2019\Community\VC\Tools\MSVC\14.24.28314\include\xstring

; 4191 :             _Al.deallocate(_Ptr, _Mypair._Myval2._Myres + 1);

	inc	edx
; File C:\Program Files (x86)\Microsoft Visual Studio\2019\Community\VC\Tools\MSVC\14.24.28314\include\xmemory

; 780  :         _Deallocate<_New_alignof<_Ty>>(_Ptr, sizeof(_Ty) * _Count);

	mov	eax, ecx

; 190  :     if (_Bytes >= _Big_allocation_threshold) { // boost the alignment of big allocations to help autovectorization

	cmp	edx, 4096				; 00001000H
	jb	SHORT $LN2807@Encrypt

; 111  :     const uintptr_t _Ptr_container   = _Ptr_user[-1];

	mov	ecx, DWORD PTR [ecx-4]
	add	edx, 35					; 00000023H
	sub	eax, ecx

; 112  : 
; 113  :     // If the following asserts, it likely means that we are performing
; 114  :     // an aligned delete on memory coming from an unaligned allocation.
; 115  :     _STL_ASSERT(_Ptr_user[-2] == _Big_allocation_sentinel, "invalid argument");
; 116  : 
; 117  :     // Extra paranoia on aligned allocation/deallocation; ensure _Ptr_container is
; 118  :     // in range [_Min_back_shift, _Non_user_size]
; 119  : #ifdef _DEBUG
; 120  :     constexpr uintptr_t _Min_back_shift = 2 * sizeof(void*);
; 121  : #else // ^^^ _DEBUG ^^^ // vvv !_DEBUG vvv
; 122  :     constexpr uintptr_t _Min_back_shift = sizeof(void*);
; 123  : #endif // _DEBUG
; 124  :     const uintptr_t _Back_shift = reinterpret_cast<uintptr_t>(_Ptr) - _Ptr_container;
; 125  :     _STL_VERIFY(_Back_shift >= _Min_back_shift && _Back_shift <= _Non_user_size, "invalid argument");

	add	eax, -4					; fffffffcH
	cmp	eax, 31					; 0000001fH
	jbe	SHORT $LN2807@Encrypt
$LN2804@Encrypt:
	call	DWORD PTR __imp___invalid_parameter_noinfo_noreturn
$LN2807@Encrypt:

; 195  :     ::operator delete(_Ptr, _Bytes);

	push	edx
	push	ecx
	call	??3@YAXPAXI@Z				; operator delete
	add	esp, 8
$LN2797@Encrypt:
; File E:\Visual Studio Application\\ThatboyEncryptFileEncoder\ThatboyEncrypt.cpp

; 143  : 	return EncryptErrorCode::ENCRYPT_SUCCESS;

	lea	ecx, DWORD PTR _encryptFileName$[ebp]
; File C:\Program Files (x86)\Microsoft Visual Studio\2019\Community\VC\Tools\MSVC\14.24.28314\include\xstring

; 4194 :         _Mypair._Myval2._Mysize = 0;

	mov	DWORD PTR _file$[ebp+16], 0

; 4195 :         _Mypair._Myval2._Myres  = _BUF_SIZE - 1;

	mov	DWORD PTR _file$[ebp+20], 15		; 0000000fH

; 4196 :         // the _Traits::assign is last so the codegen doesn't think the char
; 4197 :         // write can alias this
; 4198 :         _Traits::assign(_Mypair._Myval2._Bx._Buf[0], _Elem());

	mov	BYTE PTR _file$[ebp], 0
; File E:\Visual Studio Application\\ThatboyEncryptFileEncoder\ThatboyEncrypt.cpp

; 143  : 	return EncryptErrorCode::ENCRYPT_SUCCESS;

	call	??1?$basic_string@DU?$char_traits@D@std@@V?$allocator@D@2@@std@@QAE@XZ ; std::basic_string<char,std::char_traits<char>,std::allocator<char> >::~basic_string<char,std::char_traits<char>,std::allocator<char> >
	lea	ecx, DWORD PTR _password$[ebp]
	call	??1?$basic_string@DU?$char_traits@D@std@@V?$allocator@D@2@@std@@QAE@XZ ; std::basic_string<char,std::char_traits<char>,std::allocator<char> >::~basic_string<char,std::char_traits<char>,std::allocator<char> >
	lea	ecx, DWORD PTR _deviceSerial$[ebp]
	call	??1?$basic_string@DU?$char_traits@D@std@@V?$allocator@D@2@@std@@QAE@XZ ; std::basic_string<char,std::char_traits<char>,std::allocator<char> >::~basic_string<char,std::char_traits<char>,std::allocator<char> >
	mov	eax, edi

; 144  : 
; 145  : 
; 146  : #undef callBackSetProcessBarRange
; 147  : #undef callBackSetProcessBarPos
; 148  : #undef callBackStatusUpdate
; 149  : }

	mov	ecx, DWORD PTR __$EHRec$[ebp]
	mov	DWORD PTR fs:0, ecx
	pop	ecx
	pop	edi
	pop	esi
	mov	ecx, DWORD PTR __$ArrayPad$[ebp]
	xor	ecx, ebp
	call	@__security_check_cookie@4
	mov	esp, ebp
	pop	ebp
	ret	0
$LN2820@Encrypt:
	call	?_Xlength@?$vector@EV?$allocator@E@std@@@std@@CAXXZ ; std::vector<unsigned char,std::allocator<unsigned char> >::_Xlength
$LN2821@Encrypt:
	call	?_Throw_bad_array_new_length@std@@YAXXZ	; std::_Throw_bad_array_new_length
$LN2861@Encrypt:
	int	3
_TEXT	ENDS
;	COMDAT text$x
text$x	SEGMENT
__unwindfunclet$?Encrypt@EncryptFileDoModal@thatboy@@YA?AW4EncryptErrorCode@12@V?$basic_string@DU?$char_traits@D@std@@V?$allocator@D@2@@std@@000IW4CRC32_TYPE@CRC32@2@_N@Z$0:
	lea	ecx, DWORD PTR _deviceSerial$[ebp]
	jmp	??1?$basic_string@DU?$char_traits@D@std@@V?$allocator@D@2@@std@@QAE@XZ ; std::basic_string<char,std::char_traits<char>,std::allocator<char> >::~basic_string<char,std::char_traits<char>,std::allocator<char> >
__unwindfunclet$?Encrypt@EncryptFileDoModal@thatboy@@YA?AW4EncryptErrorCode@12@V?$basic_string@DU?$char_traits@D@std@@V?$allocator@D@2@@std@@000IW4CRC32_TYPE@CRC32@2@_N@Z$1:
	lea	ecx, DWORD PTR _password$[ebp]
	jmp	??1?$basic_string@DU?$char_traits@D@std@@V?$allocator@D@2@@std@@QAE@XZ ; std::basic_string<char,std::char_traits<char>,std::allocator<char> >::~basic_string<char,std::char_traits<char>,std::allocator<char> >
__unwindfunclet$?Encrypt@EncryptFileDoModal@thatboy@@YA?AW4EncryptErrorCode@12@V?$basic_string@DU?$char_traits@D@std@@V?$allocator@D@2@@std@@000IW4CRC32_TYPE@CRC32@2@_N@Z$2:
	lea	ecx, DWORD PTR _encryptFileName$[ebp]
	jmp	??1?$basic_string@DU?$char_traits@D@std@@V?$allocator@D@2@@std@@QAE@XZ ; std::basic_string<char,std::char_traits<char>,std::allocator<char> >::~basic_string<char,std::char_traits<char>,std::allocator<char> >
__unwindfunclet$?Encrypt@EncryptFileDoModal@thatboy@@YA?AW4EncryptErrorCode@12@V?$basic_string@DU?$char_traits@D@std@@V?$allocator@D@2@@std@@000IW4CRC32_TYPE@CRC32@2@_N@Z$3:
	lea	ecx, DWORD PTR _file$[ebp]
	jmp	??1?$basic_string@DU?$char_traits@D@std@@V?$allocator@D@2@@std@@QAE@XZ ; std::basic_string<char,std::char_traits<char>,std::allocator<char> >::~basic_string<char,std::char_traits<char>,std::allocator<char> >
__unwindfunclet$?Encrypt@EncryptFileDoModal@thatboy@@YA?AW4EncryptErrorCode@12@V?$basic_string@DU?$char_traits@D@std@@V?$allocator@D@2@@std@@000IW4CRC32_TYPE@CRC32@2@_N@Z$5:
	lea	ecx, DWORD PTR _tdatChunk$[ebp]
	jmp	??1TDAT_Chunk@thatboy@@QAE@XZ
__unwindfunclet$?Encrypt@EncryptFileDoModal@thatboy@@YA?AW4EncryptErrorCode@12@V?$basic_string@DU?$char_traits@D@std@@V?$allocator@D@2@@std@@000IW4CRC32_TYPE@CRC32@2@_N@Z$28:
	lea	ecx, DWORD PTR $T21[ebp]
	jmp	??1?$basic_string@DU?$char_traits@D@std@@V?$allocator@D@2@@std@@QAE@XZ ; std::basic_string<char,std::char_traits<char>,std::allocator<char> >::~basic_string<char,std::char_traits<char>,std::allocator<char> >
__unwindfunclet$?Encrypt@EncryptFileDoModal@thatboy@@YA?AW4EncryptErrorCode@12@V?$basic_string@DU?$char_traits@D@std@@V?$allocator@D@2@@std@@000IW4CRC32_TYPE@CRC32@2@_N@Z$29:
	lea	ecx, DWORD PTR _ifs$168[ebp]
	jmp	??_D?$basic_ifstream@DU?$char_traits@D@std@@@std@@QAEXXZ
__unwindfunclet$?Encrypt@EncryptFileDoModal@thatboy@@YA?AW4EncryptErrorCode@12@V?$basic_string@DU?$char_traits@D@std@@V?$allocator@D@2@@std@@000IW4CRC32_TYPE@CRC32@2@_N@Z$53:
	lea	ecx, DWORD PTR $T77[ebp]
	jmp	??1?$basic_string@DU?$char_traits@D@std@@V?$allocator@D@2@@std@@QAE@XZ ; std::basic_string<char,std::char_traits<char>,std::allocator<char> >::~basic_string<char,std::char_traits<char>,std::allocator<char> >
__unwindfunclet$?Encrypt@EncryptFileDoModal@thatboy@@YA?AW4EncryptErrorCode@12@V?$basic_string@DU?$char_traits@D@std@@V?$allocator@D@2@@std@@000IW4CRC32_TYPE@CRC32@2@_N@Z$13:
	lea	ecx, DWORD PTR _ifs$[ebp]
	jmp	??_D?$basic_ifstream@DU?$char_traits@D@std@@@std@@QAEXXZ
__unwindfunclet$?Encrypt@EncryptFileDoModal@thatboy@@YA?AW4EncryptErrorCode@12@V?$basic_string@DU?$char_traits@D@std@@V?$allocator@D@2@@std@@000IW4CRC32_TYPE@CRC32@2@_N@Z$14:
	lea	ecx, DWORD PTR _ofs$[ebp]
	jmp	??_D?$basic_ofstream@DU?$char_traits@D@std@@@std@@QAEXXZ
__unwindfunclet$?Encrypt@EncryptFileDoModal@thatboy@@YA?AW4EncryptErrorCode@12@V?$basic_string@DU?$char_traits@D@std@@V?$allocator@D@2@@std@@000IW4CRC32_TYPE@CRC32@2@_N@Z$16:
	lea	ecx, DWORD PTR _fileContentBuff$[ebp]
	jmp	??1?$vector@EV?$allocator@E@std@@@std@@QAE@XZ ; std::vector<unsigned char,std::allocator<unsigned char> >::~vector<unsigned char,std::allocator<unsigned char> >
__unwindfunclet$?Encrypt@EncryptFileDoModal@thatboy@@YA?AW4EncryptErrorCode@12@V?$basic_string@DU?$char_traits@D@std@@V?$allocator@D@2@@std@@000IW4CRC32_TYPE@CRC32@2@_N@Z$18:
	lea	ecx, DWORD PTR _chunkBuff$169[ebp]
	jmp	??1?$basic_string@DU?$char_traits@D@std@@V?$allocator@D@2@@std@@QAE@XZ ; std::basic_string<char,std::char_traits<char>,std::allocator<char> >::~basic_string<char,std::char_traits<char>,std::allocator<char> >
__ehhandler$?Encrypt@EncryptFileDoModal@thatboy@@YA?AW4EncryptErrorCode@12@V?$basic_string@DU?$char_traits@D@std@@V?$allocator@D@2@@std@@000IW4CRC32_TYPE@CRC32@2@_N@Z:
	mov	edx, DWORD PTR [esp+8]
	lea	eax, DWORD PTR [edx+12]
	mov	ecx, DWORD PTR [edx-2404]
	xor	ecx, eax
	call	@__security_check_cookie@4
	mov	ecx, DWORD PTR [edx-4]
	xor	ecx, eax
	call	@__security_check_cookie@4
	mov	eax, OFFSET __ehfuncinfo$?Encrypt@EncryptFileDoModal@thatboy@@YA?AW4EncryptErrorCode@12@V?$basic_string@DU?$char_traits@D@std@@V?$allocator@D@2@@std@@000IW4CRC32_TYPE@CRC32@2@_N@Z
	jmp	___CxxFrameHandler3
text$x	ENDS
?Encrypt@EncryptFileDoModal@thatboy@@YA?AW4EncryptErrorCode@12@V?$basic_string@DU?$char_traits@D@std@@V?$allocator@D@2@@std@@000IW4CRC32_TYPE@CRC32@2@_N@Z ENDP ; thatboy::EncryptFileDoModal::Encrypt
; Function compile flags: /Ogtp
; File E:\Visual Studio Application\\ThatboyEncryptFileEncoder\ThatboyEncrypt.cpp
; File C:\Program Files (x86)\Microsoft Visual Studio\2019\Community\VC\Tools\MSVC\14.24.28314\include\iosfwd
; File E:\Visual Studio Application\\ThatboyEncryptFileEncoder\ThatboyEncrypt.cpp
; File C:\Program Files (x86)\Microsoft Visual Studio\2019\Community\VC\Tools\MSVC\14.24.28314\include\iosfwd
; File E:\Visual Studio Application\\ThatboyEncryptFileEncoder\ThatboyEncrypt.cpp
; File C:\Program Files (x86)\Microsoft Visual Studio\2019\Community\VC\Tools\MSVC\14.24.28314\include\fstream
; File C:\Program Files (x86)\Microsoft Visual Studio\2019\Community\VC\Tools\MSVC\14.24.28314\include\xstring
; File C:\Program Files (x86)\Microsoft Visual Studio\2019\Community\VC\Tools\MSVC\14.24.28314\include\xmemory
; File C:\Program Files (x86)\Microsoft Visual Studio\2019\Community\VC\Tools\MSVC\14.24.28314\include\xstring
; File C:\Program Files (x86)\Microsoft Visual Studio\2019\Community\VC\Tools\MSVC\14.24.28314\include\xmemory
; File E:\Visual Studio Application\\ThatboyEncryptFileEncoder\ThatboyEncrypt.cpp
;	COMDAT ??R<lambda_bd5209fe60ea693a3654fa8c8c591453>@@QBEIV?$basic_string@DU?$char_traits@D@std@@V?$allocator@D@2@@std@@@Z
_TEXT	SEGMENT
$T1 = -224						; size = 24
_ifs$ = -200						; size = 184
__$EHRec$ = -12						; size = 12
_file$ = 8						; size = 24
??R<lambda_bd5209fe60ea693a3654fa8c8c591453>@@QBEIV?$basic_string@DU?$char_traits@D@std@@V?$allocator@D@2@@std@@@Z PROC ; <lambda_bd5209fe60ea693a3654fa8c8c591453>::operator(), COMDAT
; _this$dead$ = ecx

; 35   : 	size_t fileSize = [](std::string file) {

	push	ebp
	mov	ebp, esp
	push	-1
	push	__ehhandler$??R<lambda_bd5209fe60ea693a3654fa8c8c591453>@@QBEIV?$basic_string@DU?$char_traits@D@std@@V?$allocator@D@2@@std@@@Z
	mov	eax, DWORD PTR fs:0
	push	eax
	sub	esp, 212				; 000000d4H
	push	esi
	mov	eax, DWORD PTR ___security_cookie
	xor	eax, ebp
	push	eax
	lea	eax, DWORD PTR __$EHRec$[ebp]
	mov	DWORD PTR fs:0, eax

; 36   : 		ifstream ifs(file, ios::binary);

	push	ecx
	push	64					; 00000040H
	push	ecx
	lea	eax, DWORD PTR _file$[ebp]
	mov	DWORD PTR __$EHRec$[ebp+8], 0
	push	eax
	lea	ecx, DWORD PTR _ifs$[ebp]
	call	??0?$basic_ifstream@DU?$char_traits@D@std@@@std@@QAE@ABV?$basic_string@DU?$char_traits@D@std@@V?$allocator@D@2@@1@HH@Z ; std::basic_ifstream<char,std::char_traits<char> >::basic_ifstream<char,std::char_traits<char> >

; 37   : 		size_t fileSize;
; 38   : 		ifs.seekg(0, ios::end);

	push	2
	push	0
	push	0
	lea	ecx, DWORD PTR _ifs$[ebp]
	mov	BYTE PTR __$EHRec$[ebp+8], 1
	call	DWORD PTR __imp_?seekg@?$basic_istream@DU?$char_traits@D@std@@@std@@QAEAAV12@_JH@Z

; 39   : 		fileSize = static_cast<size_t>(ifs.tellg());

	lea	eax, DWORD PTR $T1[ebp]
	push	eax
	lea	ecx, DWORD PTR _ifs$[ebp]
	call	DWORD PTR __imp_?tellg@?$basic_istream@DU?$char_traits@D@std@@@std@@QAE?AV?$fpos@U_Mbstatet@@@2@XZ

; 40   : 		ifs.seekg(0);

	sub	esp, 24					; 00000018H
	lea	ecx, DWORD PTR _ifs$[ebp]
	xorps	xmm0, xmm0
; File C:\Program Files (x86)\Microsoft Visual Studio\2019\Community\VC\Tools\MSVC\14.24.28314\include\iosfwd

; 70   :         return _Myoff + _Fpos;

	mov	esi, DWORD PTR [eax+8]
	add	esi, DWORD PTR [eax]
; File E:\Visual Studio Application\\ThatboyEncryptFileEncoder\ThatboyEncrypt.cpp

; 40   : 		ifs.seekg(0);

	mov	eax, esp
; File C:\Program Files (x86)\Microsoft Visual Studio\2019\Community\VC\Tools\MSVC\14.24.28314\include\iosfwd

; 55   :     /* implicit */ fpos(streamoff _Off = 0) : _Myoff(_Off), _Fpos(0), _Mystate() {}

	mov	DWORD PTR [eax], 0
	mov	DWORD PTR [eax+4], 0
	mov	DWORD PTR [eax+8], 0
	mov	DWORD PTR [eax+12], 0
	movq	QWORD PTR [eax+16], xmm0
; File E:\Visual Studio Application\\ThatboyEncryptFileEncoder\ThatboyEncrypt.cpp

; 40   : 		ifs.seekg(0);

	call	DWORD PTR __imp_?seekg@?$basic_istream@DU?$char_traits@D@std@@@std@@QAEAAV12@V?$fpos@U_Mbstatet@@@2@@Z

; 41   : 		ifs.close();

	lea	ecx, DWORD PTR _ifs$[ebp]
	call	?close@?$basic_ifstream@DU?$char_traits@D@std@@@std@@QAEXXZ ; std::basic_ifstream<char,std::char_traits<char> >::close
; File C:\Program Files (x86)\Microsoft Visual Studio\2019\Community\VC\Tools\MSVC\14.24.28314\include\fstream

; 948  :     virtual __CLR_OR_THIS_CALL ~basic_ifstream() noexcept {}

	mov	eax, DWORD PTR _ifs$[ebp]
	mov	eax, DWORD PTR [eax+4]
	mov	DWORD PTR _ifs$[ebp+eax], OFFSET ??_7?$basic_ifstream@DU?$char_traits@D@std@@@std@@6B@
	mov	eax, DWORD PTR _ifs$[ebp]
	mov	ecx, DWORD PTR [eax+4]
	lea	eax, DWORD PTR [ecx-112]
	mov	DWORD PTR _ifs$[ebp+ecx-4], eax
	lea	ecx, DWORD PTR _ifs$[ebp+16]
	call	??1?$basic_filebuf@DU?$char_traits@D@std@@@std@@UAE@XZ ; std::basic_filebuf<char,std::char_traits<char> >::~basic_filebuf<char,std::char_traits<char> >
	lea	ecx, DWORD PTR _ifs$[ebp+24]
	call	DWORD PTR __imp_??1?$basic_istream@DU?$char_traits@D@std@@@std@@UAE@XZ
	lea	ecx, DWORD PTR _ifs$[ebp+112]
	call	DWORD PTR __imp_??1?$basic_ios@DU?$char_traits@D@std@@@std@@UAE@XZ
; File C:\Program Files (x86)\Microsoft Visual Studio\2019\Community\VC\Tools\MSVC\14.24.28314\include\xstring

; 2161 :         return _BUF_SIZE <= _Myres;

	mov	edx, DWORD PTR _file$[ebp+20]
	cmp	edx, 16					; 00000010H

; 4187 :         if (_Mypair._Myval2._Large_string_engaged()) {

	jb	SHORT $LN26@operator
; File C:\Program Files (x86)\Microsoft Visual Studio\2019\Community\VC\Tools\MSVC\14.24.28314\include\xmemory

; 780  :         _Deallocate<_New_alignof<_Ty>>(_Ptr, sizeof(_Ty) * _Count);

	mov	ecx, DWORD PTR _file$[ebp]
; File C:\Program Files (x86)\Microsoft Visual Studio\2019\Community\VC\Tools\MSVC\14.24.28314\include\xstring

; 4191 :             _Al.deallocate(_Ptr, _Mypair._Myval2._Myres + 1);

	inc	edx
; File C:\Program Files (x86)\Microsoft Visual Studio\2019\Community\VC\Tools\MSVC\14.24.28314\include\xmemory

; 780  :         _Deallocate<_New_alignof<_Ty>>(_Ptr, sizeof(_Ty) * _Count);

	mov	eax, ecx

; 190  :     if (_Bytes >= _Big_allocation_threshold) { // boost the alignment of big allocations to help autovectorization

	cmp	edx, 4096				; 00001000H
	jb	SHORT $LN36@operator

; 111  :     const uintptr_t _Ptr_container   = _Ptr_user[-1];

	mov	ecx, DWORD PTR [ecx-4]
	add	edx, 35					; 00000023H
	sub	eax, ecx

; 112  : 
; 113  :     // If the following asserts, it likely means that we are performing
; 114  :     // an aligned delete on memory coming from an unaligned allocation.
; 115  :     _STL_ASSERT(_Ptr_user[-2] == _Big_allocation_sentinel, "invalid argument");
; 116  : 
; 117  :     // Extra paranoia on aligned allocation/deallocation; ensure _Ptr_container is
; 118  :     // in range [_Min_back_shift, _Non_user_size]
; 119  : #ifdef _DEBUG
; 120  :     constexpr uintptr_t _Min_back_shift = 2 * sizeof(void*);
; 121  : #else // ^^^ _DEBUG ^^^ // vvv !_DEBUG vvv
; 122  :     constexpr uintptr_t _Min_back_shift = sizeof(void*);
; 123  : #endif // _DEBUG
; 124  :     const uintptr_t _Back_shift = reinterpret_cast<uintptr_t>(_Ptr) - _Ptr_container;
; 125  :     _STL_VERIFY(_Back_shift >= _Min_back_shift && _Back_shift <= _Non_user_size, "invalid argument");

	add	eax, -4					; fffffffcH
	cmp	eax, 31					; 0000001fH
	jbe	SHORT $LN36@operator
	call	DWORD PTR __imp___invalid_parameter_noinfo_noreturn
$LN36@operator:

; 195  :     ::operator delete(_Ptr, _Bytes);

	push	edx
	push	ecx
	call	??3@YAXPAXI@Z				; operator delete
	add	esp, 8
$LN26@operator:
; File E:\Visual Studio Application\\ThatboyEncryptFileEncoder\ThatboyEncrypt.cpp

; 42   : 		return fileSize;

	mov	eax, esi

; 43   : 	}(file);

	mov	ecx, DWORD PTR __$EHRec$[ebp]
	mov	DWORD PTR fs:0, ecx
	pop	ecx
	pop	esi
	mov	esp, ebp
	pop	ebp
	ret	24					; 00000018H
$LN43@operator:
_TEXT	ENDS
;	COMDAT text$x
text$x	SEGMENT
__unwindfunclet$??R<lambda_bd5209fe60ea693a3654fa8c8c591453>@@QBEIV?$basic_string@DU?$char_traits@D@std@@V?$allocator@D@2@@std@@@Z$0:
	lea	ecx, DWORD PTR _file$[ebp]
	jmp	??1?$basic_string@DU?$char_traits@D@std@@V?$allocator@D@2@@std@@QAE@XZ ; std::basic_string<char,std::char_traits<char>,std::allocator<char> >::~basic_string<char,std::char_traits<char>,std::allocator<char> >
__unwindfunclet$??R<lambda_bd5209fe60ea693a3654fa8c8c591453>@@QBEIV?$basic_string@DU?$char_traits@D@std@@V?$allocator@D@2@@std@@@Z$1:
	lea	ecx, DWORD PTR _ifs$[ebp]
	jmp	??_D?$basic_ifstream@DU?$char_traits@D@std@@@std@@QAEXXZ
__ehhandler$??R<lambda_bd5209fe60ea693a3654fa8c8c591453>@@QBEIV?$basic_string@DU?$char_traits@D@std@@V?$allocator@D@2@@std@@@Z:
	mov	edx, DWORD PTR [esp+8]
	lea	eax, DWORD PTR [edx+12]
	mov	ecx, DWORD PTR [edx-220]
	xor	ecx, eax
	call	@__security_check_cookie@4
	mov	eax, OFFSET __ehfuncinfo$??R<lambda_bd5209fe60ea693a3654fa8c8c591453>@@QBEIV?$basic_string@DU?$char_traits@D@std@@V?$allocator@D@2@@std@@@Z
	jmp	___CxxFrameHandler3
text$x	ENDS
??R<lambda_bd5209fe60ea693a3654fa8c8c591453>@@QBEIV?$basic_string@DU?$char_traits@D@std@@V?$allocator@D@2@@std@@@Z ENDP ; <lambda_bd5209fe60ea693a3654fa8c8c591453>::operator()
; Function compile flags: /Ogtp
; File E:\Visual Studio Application\\ThatboyEncryptFileEncoder\ThatboyEncrypt.cpp
;	COMDAT ??R<lambda_6f3344afa8ea55a74eace450e9c4527a>@@QBEHH@Z
_TEXT	SEGMENT
_x$ = 8							; size = 4
??R<lambda_6f3344afa8ea55a74eace450e9c4527a>@@QBEHH@Z PROC ; <lambda_6f3344afa8ea55a74eace450e9c4527a>::operator(), COMDAT
; _this$ = ecx

; 54   : 	{

	push	ebp
	mov	ebp, esp

; 55   : 		return x * 100 / signature.chunkCount;

	imul	eax, DWORD PTR _x$[ebp], 100
	xor	edx, edx
	mov	ecx, DWORD PTR [ecx]
	div	DWORD PTR [ecx+8]

; 56   : 	};

	pop	ebp
	ret	4
??R<lambda_6f3344afa8ea55a74eace450e9c4527a>@@QBEHH@Z ENDP ; <lambda_6f3344afa8ea55a74eace450e9c4527a>::operator()
_TEXT	ENDS
; Function compile flags: /Ogtp
; File E:\Visual Studio Application\\ThatboyEncryptFileEncoder\ThatboyEncrypt.cpp
;	COMDAT ??0<lambda_6f3344afa8ea55a74eace450e9c4527a>@@QAE@AAUSignatureDomain@thatboy@@@Z
_TEXT	SEGMENT
_<signature>$ = 8					; size = 4
??0<lambda_6f3344afa8ea55a74eace450e9c4527a>@@QAE@AAUSignatureDomain@thatboy@@@Z PROC ; <lambda_6f3344afa8ea55a74eace450e9c4527a>::<lambda_6f3344afa8ea55a74eace450e9c4527a>, COMDAT
; _this$ = ecx

; 56   : 	};

	push	ebp
	mov	ebp, esp
	mov	eax, DWORD PTR _<signature>$[ebp]
	mov	DWORD PTR [ecx], eax
	mov	eax, ecx
	pop	ebp
	ret	4
??0<lambda_6f3344afa8ea55a74eace450e9c4527a>@@QAE@AAUSignatureDomain@thatboy@@@Z ENDP ; <lambda_6f3344afa8ea55a74eace450e9c4527a>::<lambda_6f3344afa8ea55a74eace450e9c4527a>
_TEXT	ENDS
; Function compile flags: /Ogtp
;	COMDAT ??0SignatureDomain@thatboy@@QAE@XZ
_TEXT	SEGMENT
??0SignatureDomain@thatboy@@QAE@XZ PROC			; thatboy::SignatureDomain::SignatureDomain, COMDAT
; _this$ = ecx
	push	esi
	mov	esi, ecx
	xorps	xmm0, xmm0
	push	263					; 00000107H
	push	0
	mov	DWORD PTR [esi], -12171948		; ff464554H
	lea	eax, DWORD PTR [esi+57]
	mov	DWORD PTR [esi+4], 16777216		; 01000000H
	mov	DWORD PTR [esi+8], 0
	mov	DWORD PTR [esi+12], 0
	mov	DWORD PTR [esi+16], 0
	mov	DWORD PTR [esi+20], 0
	movups	XMMWORD PTR [esi+24], xmm0
	push	eax
	movups	XMMWORD PTR [esi+40], xmm0
	mov	BYTE PTR [esi+56], 0
	call	_memset
	add	esp, 12					; 0000000cH
	mov	eax, esi
	pop	esi
	ret	0
??0SignatureDomain@thatboy@@QAE@XZ ENDP			; thatboy::SignatureDomain::SignatureDomain
_TEXT	ENDS
; Function compile flags: /Ogtp
; File C:\Program Files (x86)\Microsoft Visual Studio\2019\Community\VC\Tools\MSVC\14.24.28314\include\fstream
;	COMDAT ??_D?$basic_ifstream@DU?$char_traits@D@std@@@std@@QAEXXZ
_TEXT	SEGMENT
??_D?$basic_ifstream@DU?$char_traits@D@std@@@std@@QAEXXZ PROC ; std::basic_ifstream<char,std::char_traits<char> >::`vbase destructor', COMDAT
; _this$ = ecx

; 948  :     virtual __CLR_OR_THIS_CALL ~basic_ifstream() noexcept {}

	mov	eax, DWORD PTR [ecx]
	push	esi
	lea	esi, DWORD PTR [ecx+112]
	lea	ecx, DWORD PTR [esi-96]
	mov	eax, DWORD PTR [eax+4]
	mov	DWORD PTR [eax+esi-112], OFFSET ??_7?$basic_ifstream@DU?$char_traits@D@std@@@std@@6B@
	mov	eax, DWORD PTR [esi-112]
	mov	edx, DWORD PTR [eax+4]
	lea	eax, DWORD PTR [edx-112]
	mov	DWORD PTR [edx+esi-116], eax
	call	??1?$basic_filebuf@DU?$char_traits@D@std@@@std@@UAE@XZ ; std::basic_filebuf<char,std::char_traits<char> >::~basic_filebuf<char,std::char_traits<char> >
	lea	ecx, DWORD PTR [esi-88]
	call	DWORD PTR __imp_??1?$basic_istream@DU?$char_traits@D@std@@@std@@UAE@XZ
	mov	ecx, esi
	pop	esi
	jmp	DWORD PTR __imp_??1?$basic_ios@DU?$char_traits@D@std@@@std@@UAE@XZ
??_D?$basic_ifstream@DU?$char_traits@D@std@@@std@@QAEXXZ ENDP ; std::basic_ifstream<char,std::char_traits<char> >::`vbase destructor'
_TEXT	ENDS
; Function compile flags: /Ogtp
; File C:\Program Files (x86)\Microsoft Visual Studio\2019\Community\VC\Tools\MSVC\14.24.28314\include\fstream
;	COMDAT ??_D?$basic_ofstream@DU?$char_traits@D@std@@@std@@QAEXXZ
_TEXT	SEGMENT
??_D?$basic_ofstream@DU?$char_traits@D@std@@@std@@QAEXXZ PROC ; std::basic_ofstream<char,std::char_traits<char> >::`vbase destructor', COMDAT
; _this$ = ecx

; 1141 :     virtual __CLR_OR_THIS_CALL ~basic_ofstream() noexcept {}

	mov	eax, DWORD PTR [ecx]
	push	esi
	lea	esi, DWORD PTR [ecx+104]
	lea	ecx, DWORD PTR [esi-100]
	mov	eax, DWORD PTR [eax+4]
	mov	DWORD PTR [eax+esi-104], OFFSET ??_7?$basic_ofstream@DU?$char_traits@D@std@@@std@@6B@
	mov	eax, DWORD PTR [esi-104]
	mov	edx, DWORD PTR [eax+4]
	lea	eax, DWORD PTR [edx-104]
	mov	DWORD PTR [edx+esi-108], eax
	call	??1?$basic_filebuf@DU?$char_traits@D@std@@@std@@UAE@XZ ; std::basic_filebuf<char,std::char_traits<char> >::~basic_filebuf<char,std::char_traits<char> >
	lea	ecx, DWORD PTR [esi-96]
	call	DWORD PTR __imp_??1?$basic_ostream@DU?$char_traits@D@std@@@std@@UAE@XZ
	mov	ecx, esi
	pop	esi
	jmp	DWORD PTR __imp_??1?$basic_ios@DU?$char_traits@D@std@@@std@@UAE@XZ
??_D?$basic_ofstream@DU?$char_traits@D@std@@@std@@QAEXXZ ENDP ; std::basic_ofstream<char,std::char_traits<char> >::`vbase destructor'
_TEXT	ENDS
; Function compile flags: /Ogtp
; File E:\Visual Studio Application\\ThatboyEncryptFileEncoder\ThatboyEncrypt.cpp
; File C:\Program Files (x86)\Microsoft Visual Studio\2019\Community\VC\Tools\MSVC\14.24.28314\include\xstring
; File E:\Visual Studio Application\\ThatboyEncryptFileEncoder\ThatboyEncrypt.cpp
; File C:\Program Files (x86)\Microsoft Visual Studio\2019\Community\VC\Tools\MSVC\14.24.28314\include\functional
; File E:\Visual Studio Application\\ThatboyEncryptFileEncoder\ThatboyEncrypt.cpp
; File E:\Visual Studio Application\\ThatboyEncryptFileEncoder\ThatboyCriticalChunk.cpp
; File C:\Program Files (x86)\Microsoft Visual Studio\2019\Community\VC\Tools\MSVC\14.24.28314\include\vector
; File E:\Visual Studio Application\\ThatboyEncryptFileEncoder\ThatboyCriticalChunk.cpp
; File E:\Visual Studio Application\\ThatboyEncryptFileEncoder\ThatboyEncrypt.cpp
; File C:\Program Files (x86)\Microsoft Visual Studio\2019\Community\VC\Tools\MSVC\14.24.28314\include\fstream
; File E:\Visual Studio Application\\ThatboyEncryptFileEncoder\ThatboyEncrypt.cpp
; File C:\Program Files (x86)\Microsoft Visual Studio\2019\Community\VC\Tools\MSVC\14.24.28314\include\functional
; File E:\Visual Studio Application\\ThatboyEncryptFileEncoder\ThatboyEncrypt.cpp
; File C:\Program Files (x86)\Microsoft Visual Studio\2019\Community\VC\Tools\MSVC\14.24.28314\include\functional
; File E:\Visual Studio Application\\ThatboyEncryptFileEncoder\ThatboyEncrypt.cpp
; File C:\Program Files (x86)\Microsoft Visual Studio\2019\Community\VC\Tools\MSVC\14.24.28314\include\xstring
; File E:\Visual Studio Application\\ThatboyEncryptFileEncoder\ThatboyEncrypt.cpp
; File C:\Program Files (x86)\Microsoft Visual Studio\2019\Community\VC\Tools\MSVC\14.24.28314\include\xstring
; File E:\Visual Studio Application\\ThatboyEncryptFileEncoder\ThatboyEncrypt.cpp
; File C:\Program Files (x86)\Microsoft Visual Studio\2019\Community\VC\Tools\MSVC\14.24.28314\include\xstring
; File C:\Program Files (x86)\Microsoft Visual Studio\2019\Community\VC\Tools\MSVC\14.24.28314\include\xmemory
; File C:\Program Files (x86)\Microsoft Visual Studio\2019\Community\VC\Tools\MSVC\14.24.28314\include\xstring
; File C:\Program Files (x86)\Microsoft Visual Studio\2019\Community\VC\Tools\MSVC\14.24.28314\include\xmemory
; File E:\Visual Studio Application\\ThatboyEncryptFileEncoder\ThatboyEncrypt.cpp
; File C:\Program Files (x86)\Microsoft Visual Studio\2019\Community\VC\Tools\MSVC\14.24.28314\include\xstring
; File E:\Visual Studio Application\\ThatboyEncryptFileEncoder\CRC.h
; File C:\Program Files (x86)\Microsoft Visual Studio\2019\Community\VC\Tools\MSVC\14.24.28314\include\xstring
; File E:\Visual Studio Application\\ThatboyEncryptFileEncoder\CRC.h
; File E:\Visual Studio Application\\ThatboyEncryptFileEncoder\ThatboyEncrypt.cpp
; File E:\Visual Studio Application\\ThatboyEncryptFileEncoder\CRC.h
; File E:\Visual Studio Application\\ThatboyEncryptFileEncoder\ThatboyEncrypt.cpp
; File C:\Program Files (x86)\Microsoft Visual Studio\2019\Community\VC\Tools\MSVC\14.24.28314\include\xstring
; File E:\Visual Studio Application\\ThatboyEncryptFileEncoder\ThatboyEncrypt.cpp
; File C:\Program Files (x86)\Microsoft Visual Studio\2019\Community\VC\Tools\MSVC\14.24.28314\include\xstring
; File E:\Visual Studio Application\\ThatboyEncryptFileEncoder\CRC.h
; File C:\Program Files (x86)\Microsoft Visual Studio\2019\Community\VC\Tools\MSVC\14.24.28314\include\xstring
; File E:\Visual Studio Application\\ThatboyEncryptFileEncoder\CRC.h
; File E:\Visual Studio Application\\ThatboyEncryptFileEncoder\ThatboyEncrypt.cpp
; File C:\Program Files (x86)\Microsoft Visual Studio\2019\Community\VC\Tools\MSVC\14.24.28314\include\xstring
; File E:\Visual Studio Application\\ThatboyEncryptFileEncoder\ThatboyEncrypt.cpp
; File C:\Program Files (x86)\Microsoft Visual Studio\2019\Community\VC\Tools\MSVC\14.24.28314\include\xstring
; File E:\Visual Studio Application\\ThatboyEncryptFileEncoder\ThatboyEncrypt.cpp
; File C:\Program Files (x86)\Microsoft Visual Studio\2019\Community\VC\Tools\MSVC\14.24.28314\include\xstring
; File E:\Visual Studio Application\\ThatboyEncryptFileEncoder\ThatboyEncrypt.cpp
; File E:\Visual Studio Application\\ThatboyEncryptFileEncoder\ThatboyCriticalChunk.cpp
; File E:\Visual Studio Application\\ThatboyEncryptFileEncoder\ThatboyEncrypt.cpp
; File C:\Program Files (x86)\Microsoft Visual Studio\2019\Community\VC\Tools\MSVC\14.24.28314\include\fstream
; File E:\Visual Studio Application\\ThatboyEncryptFileEncoder\ThatboyEncrypt.cpp
; File C:\Program Files (x86)\Microsoft Visual Studio\2019\Community\VC\Tools\MSVC\14.24.28314\include\vector
; File E:\Visual Studio Application\\ThatboyEncryptFileEncoder\ThatboyEncrypt.cpp
; File C:\Program Files (x86)\Microsoft Visual Studio\2019\Community\VC\Tools\MSVC\14.24.28314\include\xstring
; File E:\Visual Studio Application\\ThatboyEncryptFileEncoder\ThatboyEncrypt.cpp
; File C:\Program Files (x86)\Microsoft Visual Studio\2019\Community\VC\Tools\MSVC\14.24.28314\include\vector
; File E:\Visual Studio Application\\ThatboyEncryptFileEncoder\ThatboyEncrypt.cpp
; File C:\Program Files (x86)\Microsoft Visual Studio\2019\Community\VC\Tools\MSVC\14.24.28314\include\functional
; File E:\Visual Studio Application\\ThatboyEncryptFileEncoder\ThatboyEncrypt.cpp
; File C:\Program Files (x86)\Microsoft Visual Studio\2019\Community\VC\Tools\MSVC\14.24.28314\include\functional
; File E:\Visual Studio Application\\ThatboyEncryptFileEncoder\ThatboyEncrypt.cpp
;	COMDAT ?Decrypt@EncryptFileDoModal@thatboy@@YA?AW4EncryptErrorCode@12@V?$basic_string@DU?$char_traits@D@std@@V?$allocator@D@2@@std@@000_N@Z
_TEXT	SEGMENT
_ofs$ = -1856						; size = 176
_ifs$ = -1680						; size = 184
_tdatChunk$ = -1496					; size = 28
_<_Args_1>$ = -1468					; size = 4
_NChunk$162 = -1464					; size = 20
_fileContentBuff$ = -1456				; size = 12
_pwdCRC$1$ = -1444					; size = 4
_<_Args_0>$ = -1444					; size = 4
_flushChunkWrite$1$ = -1437				; size = 1
_<_Args_0>$ = -1436					; size = 4
$T163 = -1429						; size = 1
_crc$164 = -1428					; size = 1048
_crc$165 = -1428					; size = 1048
_signature$ = -380					; size = 320
_codeData$166 = -60					; size = 24
$T62 = -60						; size = 24
_thdrChunk$ = -36					; size = 20
__$ArrayPad$ = -16					; size = 4
__$EHRec$ = -12						; size = 12
_encryptFileName$ = 8					; size = 24
_file$ = 32						; size = 24
_password$ = 56						; size = 24
_deviceSerial$ = 80					; size = 24
?Decrypt@EncryptFileDoModal@thatboy@@YA?AW4EncryptErrorCode@12@V?$basic_string@DU?$char_traits@D@std@@V?$allocator@D@2@@std@@000_N@Z PROC ; thatboy::EncryptFileDoModal::Decrypt, COMDAT
; _flushChunkWrite$ = cl

; 158  : {

	push	ebp
	mov	ebp, esp
	push	-1
	push	__ehhandler$?Decrypt@EncryptFileDoModal@thatboy@@YA?AW4EncryptErrorCode@12@V?$basic_string@DU?$char_traits@D@std@@V?$allocator@D@2@@std@@000_N@Z
	mov	eax, DWORD PTR fs:0
	push	eax
	sub	esp, 1844				; 00000734H
	mov	eax, DWORD PTR ___security_cookie
	xor	eax, ebp
	mov	DWORD PTR __$ArrayPad$[ebp], eax
	push	esi
	push	edi
	push	eax
	lea	eax, DWORD PTR __$EHRec$[ebp]
	mov	DWORD PTR fs:0, eax
	mov	BYTE PTR _flushChunkWrite$1$[ebp], cl
	mov	DWORD PTR __$EHRec$[ebp+8], 3

; 165  : 	callBackStatusUpdate("...");

	cmp	DWORD PTR ?callBackStatusUpdate@EncryptFileDoModal@thatboy@@3V?$function@$$A6A_NV?$basic_string@DU?$char_traits@D@std@@V?$allocator@D@2@@std@@@Z@std@@A+36, 0
	je	SHORT $LN14@Decrypt
	sub	esp, 24					; 00000018H
	mov	ecx, esp
; File C:\Program Files (x86)\Microsoft Visual Studio\2019\Community\VC\Tools\MSVC\14.24.28314\include\xstring

; 2337 :         assign(_Ptr);

	push	OFFSET ??_C@_0O@HDFBCNEM@?$LN?b?C?$NM?W?$LM?$LB?$LI?V?P?4?4?4@

; 4178 :         _Mypair._Myval2._Mysize = 0;

	mov	DWORD PTR [ecx+16], 0

; 4179 :         _Mypair._Myval2._Myres  = _BUF_SIZE - 1;

	mov	DWORD PTR [ecx+20], 15			; 0000000fH

; 4180 :         // the _Traits::assign is last so the codegen doesn't think the char
; 4181 :         // write can alias this
; 4182 :         _Traits::assign(_Mypair._Myval2._Bx._Buf[0], _Elem());

	mov	BYTE PTR [ecx], 0

; 2337 :         assign(_Ptr);

	call	?assign@?$basic_string@DU?$char_traits@D@std@@V?$allocator@D@2@@std@@QAEAAV12@QBD@Z ; std::basic_string<char,std::char_traits<char>,std::allocator<char> >::assign
; File E:\Visual Studio Application\\ThatboyEncryptFileEncoder\ThatboyEncrypt.cpp

; 165  : 	callBackStatusUpdate("...");

	call	??R?$_Func_class@_NV?$basic_string@DU?$char_traits@D@std@@V?$allocator@D@2@@std@@@std@@QBE_NV?$basic_string@DU?$char_traits@D@std@@V?$allocator@D@2@@1@@Z ; std::_Func_class<bool,std::basic_string<char,std::char_traits<char>,std::allocator<char> > >::operator()
	test	al, al
	je	SHORT $LN76@Decrypt
$LN14@Decrypt:

; 166  : 	callBackSetProcessBarPos(0);

	mov	ecx, DWORD PTR ?callBackSetProcessBarPos@EncryptFileDoModal@thatboy@@3V?$function@$$A6A_NH@Z@std@@A+36
	test	ecx, ecx
	je	SHORT $LN16@Decrypt
	mov	DWORD PTR _<_Args_0>$[ebp], 0
; File C:\Program Files (x86)\Microsoft Visual Studio\2019\Community\VC\Tools\MSVC\14.24.28314\include\functional

; 969  :         return _Impl->_Do_call(_STD forward<_Types>(_Args)...);

	lea	edx, DWORD PTR _<_Args_0>$[ebp]
	mov	eax, DWORD PTR [ecx]
	push	edx
	mov	eax, DWORD PTR [eax+8]
	call	eax
; File E:\Visual Studio Application\\ThatboyEncryptFileEncoder\ThatboyEncrypt.cpp

; 166  : 	callBackSetProcessBarPos(0);

	test	al, al
	jne	SHORT $LN16@Decrypt
$LN76@Decrypt:
	mov	esi, 1
	jmp	$LN77@Decrypt
$LN16@Decrypt:
	push	263					; 00000107H
	xorps	xmm0, xmm0
	mov	DWORD PTR _signature$[ebp], -12171948	; ff464554H
	lea	eax, DWORD PTR _signature$[ebp+57]
	mov	DWORD PTR _signature$[ebp+4], 16777216	; 01000000H
	push	0
	push	eax
	mov	DWORD PTR _signature$[ebp+8], 0
	mov	DWORD PTR _signature$[ebp+12], 0
	mov	DWORD PTR _signature$[ebp+16], 0
	mov	DWORD PTR _signature$[ebp+20], 0
	movups	XMMWORD PTR _signature$[ebp+24], xmm0
	mov	BYTE PTR _signature$[ebp+56], 0
	movups	XMMWORD PTR _signature$[ebp+40], xmm0
	call	_memset
; File E:\Visual Studio Application\\ThatboyEncryptFileEncoder\ThatboyCriticalChunk.cpp

; 8    : {

	mov	DWORD PTR _thdrChunk$[ebp], OFFSET ??_7THDR_Chunk@thatboy@@6B@

; 9    : 	Chunk::dataLength = sizeof(crcEncodeType) + sizeof(reserve);

	mov	DWORD PTR _thdrChunk$[ebp+4], 4

; 10   : 	Chunk::typeCode = hdrChunkType;

	mov	DWORD PTR _thdrChunk$[ebp+8], 1380206676 ; 52444854H

; 11   : 	Chunk::crcCode = 0;

	mov	DWORD PTR _thdrChunk$[ebp+12], 0

; 12   : 	crcEncodeType = static_cast<BYTE>(CRC32::CRC32_TYPE::eMPEG2);

	mov	DWORD PTR _thdrChunk$[ebp+16], 10	; 0000000aH

; 85   : {

	mov	DWORD PTR _tdatChunk$[ebp], OFFSET ??_7TDAT_Chunk@thatboy@@6B@
; File C:\Program Files (x86)\Microsoft Visual Studio\2019\Community\VC\Tools\MSVC\14.24.28314\include\vector

; 374  :     _Vector_val() noexcept : _Myfirst(), _Mylast(), _Myend() {}

	mov	DWORD PTR _tdatChunk$[ebp+16], 0
	mov	DWORD PTR _tdatChunk$[ebp+20], 0
	mov	DWORD PTR _tdatChunk$[ebp+24], 0
; File E:\Visual Studio Application\\ThatboyEncryptFileEncoder\ThatboyCriticalChunk.cpp

; 86   : 	Chunk::dataLength = 0;

	mov	DWORD PTR _tdatChunk$[ebp+4], 0

; 87   : 	Chunk::typeCode = dataChunkType;

	mov	DWORD PTR _tdatChunk$[ebp+8], 1413563476 ; 54414454H

; 88   : 	Chunk::crcCode = 0;

	mov	DWORD PTR _tdatChunk$[ebp+12], 0
; File E:\Visual Studio Application\\ThatboyEncryptFileEncoder\ThatboyEncrypt.cpp

; 175  : 	ifstream ifs(encryptFileName, ios::binary, _SH_DENYWR);

	add	esp, 8
	mov	BYTE PTR __$EHRec$[ebp+8], 4
	lea	eax, DWORD PTR _encryptFileName$[ebp]
	xor	edi, edi
	mov	DWORD PTR _pwdCRC$1$[ebp], edi
	push	32					; 00000020H
	push	ecx
	push	eax
	lea	ecx, DWORD PTR _ifs$[ebp]
	call	??0?$basic_ifstream@DU?$char_traits@D@std@@@std@@QAE@ABV?$basic_string@DU?$char_traits@D@std@@V?$allocator@D@2@@1@HH@Z ; std::basic_ifstream<char,std::char_traits<char> >::basic_ifstream<char,std::char_traits<char> >
	mov	BYTE PTR __$EHRec$[ebp+8], 5
; File C:\Program Files (x86)\Microsoft Visual Studio\2019\Community\VC\Tools\MSVC\14.24.28314\include\fstream

; 272  :         return static_cast<bool>(_Myfile);

	cmp	DWORD PTR _ifs$[ebp+92], edi
; File E:\Visual Studio Application\\ThatboyEncryptFileEncoder\ThatboyEncrypt.cpp

; 176  : 	if (!ifs.is_open())

	jne	SHORT $LN17@Decrypt
	lea	esi, DWORD PTR [edi+2]
	jmp	$LN90@Decrypt
$LN17@Decrypt:

; 177  : 		return EncryptErrorCode::ENCRYPT_FILEOPENERROR;
; 178  : 
; 179  : 	ifs.read((LPSTR)&signature, sizeof(signature));

	push	0
	push	320					; 00000140H
	lea	eax, DWORD PTR _signature$[ebp]
	push	eax
	lea	ecx, DWORD PTR _ifs$[ebp]
	call	DWORD PTR __imp_?read@?$basic_istream@DU?$char_traits@D@std@@@std@@QAEAAV12@PAD_J@Z

; 180  : 
; 181  : 	// 
; 182  : 	if (signature.magicNumber != makeDWORD('T', 'E', 'F', 255))

	cmp	DWORD PTR _signature$[ebp], -12171948	; ff464554H
	je	SHORT $LN18@Decrypt

; 183  : 		return EncryptErrorCode::ENCRYPT_FILETYPEERROR;

	mov	esi, 3
	jmp	$LN90@Decrypt
$LN18@Decrypt:

; 184  : 	if (signature.version != makeDWORD(0, 0, 0, 1))

	cmp	DWORD PTR _signature$[ebp+4], 16777216	; 01000000H
	je	SHORT $LN19@Decrypt

; 185  : 		return EncryptErrorCode::ENCRYPT_VERSIONNOTMATCH;

	mov	esi, 4
	jmp	$LN90@Decrypt
$LN19@Decrypt:

; 191  : 	callBackSetProcessBarRange(0, chunkCountToProcessPos(signature.chunkCount));

	mov	ecx, DWORD PTR ?callBackSetProcessBarRange@EncryptFileDoModal@thatboy@@3V?$function@$$A6A_NHH@Z@std@@A+36
	test	ecx, ecx
	je	SHORT $LN2982@Decrypt

; 189  : 		return x * 100 / signature.chunkCount;

	imul	eax, DWORD PTR _signature$[ebp+8], 100
	xor	edx, edx

; 191  : 	callBackSetProcessBarRange(0, chunkCountToProcessPos(signature.chunkCount));

	mov	DWORD PTR _<_Args_0>$[ebp], 0

; 189  : 		return x * 100 / signature.chunkCount;

	div	DWORD PTR _signature$[ebp+8]
; File C:\Program Files (x86)\Microsoft Visual Studio\2019\Community\VC\Tools\MSVC\14.24.28314\include\functional

; 969  :         return _Impl->_Do_call(_STD forward<_Types>(_Args)...);

	lea	edx, DWORD PTR _<_Args_1>$[ebp]
; File E:\Visual Studio Application\\ThatboyEncryptFileEncoder\ThatboyEncrypt.cpp

; 191  : 	callBackSetProcessBarRange(0, chunkCountToProcessPos(signature.chunkCount));

	mov	DWORD PTR _<_Args_1>$[ebp], eax
; File C:\Program Files (x86)\Microsoft Visual Studio\2019\Community\VC\Tools\MSVC\14.24.28314\include\functional

; 969  :         return _Impl->_Do_call(_STD forward<_Types>(_Args)...);

	mov	eax, DWORD PTR [ecx]
	push	edx
	lea	edx, DWORD PTR _<_Args_0>$[ebp]
	push	edx
	mov	eax, DWORD PTR [eax+8]
	call	eax
; File E:\Visual Studio Application\\ThatboyEncryptFileEncoder\ThatboyEncrypt.cpp

; 191  : 	callBackSetProcessBarRange(0, chunkCountToProcessPos(signature.chunkCount));

	test	al, al
	je	$LN2996@Decrypt
$LN2982@Decrypt:

; 192  : 
; 193  : 	// MD5 CRC
; 194  : 	if (signature.attributeMark & (BYTE)SignatureDomain::ENCRYPT_ATTRIBUTE::PASSWORD)

	mov	al, BYTE PTR _signature$[ebp+56]
	test	al, 1
	je	$LN22@Decrypt

; 196  : 		callBackStatusUpdate("...");

	cmp	DWORD PTR ?callBackStatusUpdate@EncryptFileDoModal@thatboy@@3V?$function@$$A6A_NV?$basic_string@DU?$char_traits@D@std@@V?$allocator@D@2@@std@@@Z@std@@A+36, 0
	je	SHORT $LN24@Decrypt
	sub	esp, 24					; 00000018H
	mov	ecx, esp
; File C:\Program Files (x86)\Microsoft Visual Studio\2019\Community\VC\Tools\MSVC\14.24.28314\include\xstring

; 2337 :         assign(_Ptr);

	push	OFFSET ??_C@_0BE@JFONAGKE@?Q?i?V?$KE?C?$NM?B?k?U?$KK?R?$KK?P?E?O?$KC?4?4?4@

; 4178 :         _Mypair._Myval2._Mysize = 0;

	mov	DWORD PTR [ecx+16], 0

; 4179 :         _Mypair._Myval2._Myres  = _BUF_SIZE - 1;

	mov	DWORD PTR [ecx+20], 15			; 0000000fH

; 4180 :         // the _Traits::assign is last so the codegen doesn't think the char
; 4181 :         // write can alias this
; 4182 :         _Traits::assign(_Mypair._Myval2._Bx._Buf[0], _Elem());

	mov	BYTE PTR [ecx], 0

; 2337 :         assign(_Ptr);

	call	?assign@?$basic_string@DU?$char_traits@D@std@@V?$allocator@D@2@@std@@QAEAAV12@QBD@Z ; std::basic_string<char,std::char_traits<char>,std::allocator<char> >::assign
; File E:\Visual Studio Application\\ThatboyEncryptFileEncoder\ThatboyEncrypt.cpp

; 196  : 		callBackStatusUpdate("...");

	call	??R?$_Func_class@_NV?$basic_string@DU?$char_traits@D@std@@V?$allocator@D@2@@std@@@std@@QBE_NV?$basic_string@DU?$char_traits@D@std@@V?$allocator@D@2@@1@@Z ; std::_Func_class<bool,std::basic_string<char,std::char_traits<char>,std::allocator<char> > >::operator()
	test	al, al
	je	$LN2996@Decrypt
$LN24@Decrypt:

; 197  : 		if (password.empty())

	cmp	DWORD PTR _password$[ebp+16], 0
	jne	SHORT $LN25@Decrypt

; 198  : 			return EncryptErrorCode::ENCRYPT_NEEDPASSWORD;

	mov	esi, 7
	jmp	$LN90@Decrypt
$LN25@Decrypt:

; 199  : 		if (memcmp(md5(password).c_str(), signature.passwordMD5, 32))

	sub	esp, 24					; 00000018H
	lea	eax, DWORD PTR _password$[ebp]
	mov	ecx, esp
	push	eax
	call	??0?$basic_string@DU?$char_traits@D@std@@V?$allocator@D@2@@std@@QAE@ABV01@@Z ; std::basic_string<char,std::char_traits<char>,std::allocator<char> >::basic_string<char,std::char_traits<char>,std::allocator<char> >
	lea	ecx, DWORD PTR $T62[ebp]
	call	?md5@thatboy@@YA?AV?$basic_string@DU?$char_traits@D@std@@V?$allocator@D@2@@std@@V23@@Z ; thatboy::md5
	mov	ecx, eax
	add	esp, 24					; 00000018H
; File C:\Program Files (x86)\Microsoft Visual Studio\2019\Community\VC\Tools\MSVC\14.24.28314\include\xstring

; 2161 :         return _BUF_SIZE <= _Myres;

	cmp	DWORD PTR [ecx+20], 16			; 00000010H

; 2153 :         if (_Large_string_engaged()) {

	jb	SHORT $LN1240@Decrypt

; 2154 :             _Result = _Unfancy(_Bx._Ptr);

	mov	ecx, DWORD PTR [ecx]
$LN1240@Decrypt:
; File E:\Visual Studio Application\\ThatboyEncryptFileEncoder\ThatboyEncrypt.cpp

; 199  : 		if (memcmp(md5(password).c_str(), signature.passwordMD5, 32))

	lea	edx, DWORD PTR _signature$[ebp+24]
	mov	esi, 28					; 0000001cH
	npad	1
$LL2979@Decrypt:
	mov	eax, DWORD PTR [ecx]
	cmp	eax, DWORD PTR [edx]
	jne	SHORT $LN2978@Decrypt
	add	ecx, 4
	add	edx, 4
	sub	esi, 4
	jae	SHORT $LL2979@Decrypt
	xor	esi, esi
	jmp	SHORT $LN2981@Decrypt
$LN2978@Decrypt:
	cmp	al, BYTE PTR [edx]
	jne	SHORT $LN2980@Decrypt
	mov	al, BYTE PTR [ecx+1]
	cmp	al, BYTE PTR [edx+1]
	jne	SHORT $LN2980@Decrypt
	mov	al, BYTE PTR [ecx+2]
	cmp	al, BYTE PTR [edx+2]
	jne	SHORT $LN2980@Decrypt
	mov	al, BYTE PTR [ecx+3]
	cmp	al, BYTE PTR [edx+3]
	jne	SHORT $LN2980@Decrypt
	xor	esi, esi
	jmp	SHORT $LN2981@Decrypt
$LN2980@Decrypt:
	sbb	esi, esi
	or	esi, 1
$LN2981@Decrypt:
; File C:\Program Files (x86)\Microsoft Visual Studio\2019\Community\VC\Tools\MSVC\14.24.28314\include\xstring

; 2161 :         return _BUF_SIZE <= _Myres;

	mov	edx, DWORD PTR $T62[ebp+20]
	cmp	edx, 16					; 00000010H

; 4187 :         if (_Mypair._Myval2._Large_string_engaged()) {

	jb	SHORT $LN1256@Decrypt
; File C:\Program Files (x86)\Microsoft Visual Studio\2019\Community\VC\Tools\MSVC\14.24.28314\include\xmemory

; 780  :         _Deallocate<_New_alignof<_Ty>>(_Ptr, sizeof(_Ty) * _Count);

	mov	ecx, DWORD PTR $T62[ebp]
; File C:\Program Files (x86)\Microsoft Visual Studio\2019\Community\VC\Tools\MSVC\14.24.28314\include\xstring

; 4191 :             _Al.deallocate(_Ptr, _Mypair._Myval2._Myres + 1);

	inc	edx
; File C:\Program Files (x86)\Microsoft Visual Studio\2019\Community\VC\Tools\MSVC\14.24.28314\include\xmemory

; 780  :         _Deallocate<_New_alignof<_Ty>>(_Ptr, sizeof(_Ty) * _Count);

	mov	eax, ecx

; 190  :     if (_Bytes >= _Big_allocation_threshold) { // boost the alignment of big allocations to help autovectorization

	cmp	edx, 4096				; 00001000H
	jb	SHORT $LN1266@Decrypt

; 111  :     const uintptr_t _Ptr_container   = _Ptr_user[-1];

	mov	ecx, DWORD PTR [ecx-4]
	add	edx, 35					; 00000023H
	sub	eax, ecx

; 112  : 
; 113  :     // If the following asserts, it likely means that we are performing
; 114  :     // an aligned delete on memory coming from an unaligned allocation.
; 115  :     _STL_ASSERT(_Ptr_user[-2] == _Big_allocation_sentinel, "invalid argument");
; 116  : 
; 117  :     // Extra paranoia on aligned allocation/deallocation; ensure _Ptr_container is
; 118  :     // in range [_Min_back_shift, _Non_user_size]
; 119  : #ifdef _DEBUG
; 120  :     constexpr uintptr_t _Min_back_shift = 2 * sizeof(void*);
; 121  : #else // ^^^ _DEBUG ^^^ // vvv !_DEBUG vvv
; 122  :     constexpr uintptr_t _Min_back_shift = sizeof(void*);
; 123  : #endif // _DEBUG
; 124  :     const uintptr_t _Back_shift = reinterpret_cast<uintptr_t>(_Ptr) - _Ptr_container;
; 125  :     _STL_VERIFY(_Back_shift >= _Min_back_shift && _Back_shift <= _Non_user_size, "invalid argument");

	add	eax, -4					; fffffffcH
	cmp	eax, 31					; 0000001fH
	jbe	SHORT $LN1266@Decrypt
	call	DWORD PTR __imp___invalid_parameter_noinfo_noreturn
$LN1266@Decrypt:

; 195  :     ::operator delete(_Ptr, _Bytes);

	push	edx
	push	ecx
	call	??3@YAXPAXI@Z				; operator delete
	add	esp, 8
$LN1256@Decrypt:
; File E:\Visual Studio Application\\ThatboyEncryptFileEncoder\ThatboyEncrypt.cpp

; 199  : 		if (memcmp(md5(password).c_str(), signature.passwordMD5, 32))

	test	esi, esi
	je	SHORT $LN26@Decrypt

; 200  : 			return EncryptErrorCode::ENCRYPT_PASSWORDNOTMATCH;

	mov	esi, 5
	jmp	$LN90@Decrypt
$LN26@Decrypt:

; 201  : 
; 202  : 		CRC32 crc(CRC32::CRC32_TYPE::eMPEG2);

	push	10					; 0000000aH
	lea	ecx, DWORD PTR _crc$165[ebp]
	call	??0CRC32@thatboy@@QAE@W4CRC32_TYPE@01@@Z ; thatboy::CRC32::CRC32
; File C:\Program Files (x86)\Microsoft Visual Studio\2019\Community\VC\Tools\MSVC\14.24.28314\include\xstring

; 2161 :         return _BUF_SIZE <= _Myres;

	cmp	DWORD PTR _password$[ebp+20], 16	; 00000010H

; 2152 :         const value_type* _Result = _Bx._Buf;

	lea	esi, DWORD PTR _password$[ebp]
; File E:\Visual Studio Application\\ThatboyEncryptFileEncoder\CRC.h

; 71   :     TYPE remainder = m_initial_remainder;

	mov	edi, DWORD PTR _crc$165[ebp+4]
; File C:\Program Files (x86)\Microsoft Visual Studio\2019\Community\VC\Tools\MSVC\14.24.28314\include\xstring

; 2153 :         if (_Large_string_engaged()) {

	cmovae	esi, DWORD PTR _password$[ebp]
; File E:\Visual Studio Application\\ThatboyEncryptFileEncoder\CRC.h

; 73   :     for (offset = 0; offset < nBytes; offset++)

	xor	edx, edx
	cmp	DWORD PTR _password$[ebp+16], edx
	jbe	SHORT $LN1416@Decrypt
	mov	ecx, DWORD PTR _crc$165[ebp+1040]
	lea	ecx, DWORD PTR [ecx-8]
	npad	4
$LL1417@Decrypt:

; 74   :     {
; 75   :         byte = (remainder >> (m_width - 8)) ^ message[offset];

	mov	eax, edi

; 76   :         remainder = crcTable[byte] ^ (remainder << 8);

	shl	edi, 8
	shr	eax, cl
	xor	al, BYTE PTR [edx+esi]
	inc	edx
	movzx	eax, al
	xor	edi, DWORD PTR _crc$165[ebp+eax*4+16]
	cmp	edx, DWORD PTR _password$[ebp+16]
	jb	SHORT $LL1417@Decrypt
$LN1416@Decrypt:

; 79   :     return (remainder ^ m_final_xor_value);

	xor	edi, DWORD PTR _crc$165[ebp+8]
; File E:\Visual Studio Application\\ThatboyEncryptFileEncoder\ThatboyEncrypt.cpp

; 203  : 		pwdCRC = crc.crcCompute((BYTE_CPTR)password.c_str(), password.size());

	mov	al, BYTE PTR _signature$[ebp+56]
; File E:\Visual Studio Application\\ThatboyEncryptFileEncoder\CRC.h

; 79   :     return (remainder ^ m_final_xor_value);

	mov	DWORD PTR _pwdCRC$1$[ebp], edi
$LN22@Decrypt:
; File E:\Visual Studio Application\\ThatboyEncryptFileEncoder\ThatboyEncrypt.cpp

; 205  : 	if (signature.attributeMark & (BYTE)SignatureDomain::ENCRYPT_ATTRIBUTE::DEVICEBIND)

	test	al, 2
	je	$LN2984@Decrypt

; 207  : 		callBackStatusUpdate("...");

	cmp	DWORD PTR ?callBackStatusUpdate@EncryptFileDoModal@thatboy@@3V?$function@$$A6A_NV?$basic_string@DU?$char_traits@D@std@@V?$allocator@D@2@@std@@@Z@std@@A+36, 0
	je	SHORT $LN2983@Decrypt
	sub	esp, 24					; 00000018H
	mov	ecx, esp
; File C:\Program Files (x86)\Microsoft Visual Studio\2019\Community\VC\Tools\MSVC\14.24.28314\include\xstring

; 2337 :         assign(_Ptr);

	push	OFFSET ??_C@_0M@CJLCHMHN@?Q?i?V?$KE?I?h?$LB?$LI?4?4?4@

; 4178 :         _Mypair._Myval2._Mysize = 0;

	mov	DWORD PTR [ecx+16], 0

; 4179 :         _Mypair._Myval2._Myres  = _BUF_SIZE - 1;

	mov	DWORD PTR [ecx+20], 15			; 0000000fH

; 4180 :         // the _Traits::assign is last so the codegen doesn't think the char
; 4181 :         // write can alias this
; 4182 :         _Traits::assign(_Mypair._Myval2._Bx._Buf[0], _Elem());

	mov	BYTE PTR [ecx], 0

; 2337 :         assign(_Ptr);

	call	?assign@?$basic_string@DU?$char_traits@D@std@@V?$allocator@D@2@@std@@QAEAAV12@QBD@Z ; std::basic_string<char,std::char_traits<char>,std::allocator<char> >::assign
; File E:\Visual Studio Application\\ThatboyEncryptFileEncoder\ThatboyEncrypt.cpp

; 207  : 		callBackStatusUpdate("...");

	call	??R?$_Func_class@_NV?$basic_string@DU?$char_traits@D@std@@V?$allocator@D@2@@std@@@std@@QBE_NV?$basic_string@DU?$char_traits@D@std@@V?$allocator@D@2@@1@@Z ; std::_Func_class<bool,std::basic_string<char,std::char_traits<char>,std::allocator<char> > >::operator()
	test	al, al
	je	$LN2996@Decrypt
$LN2983@Decrypt:

; 208  : 		if (deviceSerial.empty())

	cmp	DWORD PTR _deviceSerial$[ebp+16], 0
	jne	SHORT $LN30@Decrypt

; 209  : 			return EncryptErrorCode::ENCRYPT_NEEDDEVICE;

	mov	esi, 8
	jmp	$LN90@Decrypt
$LN30@Decrypt:

; 210  : 		CRC32 crc(CRC32::CRC32_TYPE::eMPEG2);

	push	10					; 0000000aH
	lea	ecx, DWORD PTR _crc$164[ebp]
	call	??0CRC32@thatboy@@QAE@W4CRC32_TYPE@01@@Z ; thatboy::CRC32::CRC32
; File C:\Program Files (x86)\Microsoft Visual Studio\2019\Community\VC\Tools\MSVC\14.24.28314\include\xstring

; 2161 :         return _BUF_SIZE <= _Myres;

	cmp	DWORD PTR _deviceSerial$[ebp+20], 16	; 00000010H

; 2152 :         const value_type* _Result = _Bx._Buf;

	lea	eax, DWORD PTR _deviceSerial$[ebp]
; File E:\Visual Studio Application\\ThatboyEncryptFileEncoder\CRC.h

; 71   :     TYPE remainder = m_initial_remainder;

	mov	edx, DWORD PTR _crc$164[ebp+4]
; File C:\Program Files (x86)\Microsoft Visual Studio\2019\Community\VC\Tools\MSVC\14.24.28314\include\xstring

; 2153 :         if (_Large_string_engaged()) {

